Archive member included because of file (symbol)

c:/px4/workspace/PX4Firmware/Build/px4io-v1_default.build/nuttx-export/libs\libnuttx.a(sched-irq_attach.o)
                              c:/px4/workspace/PX4Firmware/Build/px4io-v1_default.build/c/px4/workspace/PX4Firmware/src/drivers/stm32/module.pre.o (irq_attach)
c:/px4/workspace/PX4Firmware/Build/px4io-v1_default.build/nuttx-export/libs\libnuttx.a(sched-irq_initialize.o)
                              c:/px4/workspace/PX4Firmware/Build/px4io-v1_default.build/nuttx-export/libs\libnuttx.a(sched-irq_attach.o) (g_irqvector)
c:/px4/workspace/PX4Firmware/Build/px4io-v1_default.build/nuttx-export/libs\libnuttx.a(sched-irq_unexpectedisr.o)
                              c:/px4/workspace/PX4Firmware/Build/px4io-v1_default.build/nuttx-export/libs\libnuttx.a(sched-irq_attach.o) (irq_unexpected_isr)
c:/px4/workspace/PX4Firmware/Build/px4io-v1_default.build/nuttx-export/libs\libnuttx.a(c-lib_abort.o)
                              (abort)
c:/px4/workspace/PX4Firmware/Build/px4io-v1_default.build/nuttx-export/libs\libnuttx.a(c-lib_cfsetspeed.o)
                              c:/px4/workspace/PX4Firmware/Build/px4io-v1_default.build/c/px4/workspace/PX4Firmware/src/modules/px4iofirmware/module.pre.o (cfsetspeed)
c:/px4/workspace/PX4Firmware/Build/px4io-v1_default.build/nuttx-export/libs\libnuttx.a(c-lib_crc32.o)
                              c:/px4/workspace/PX4Firmware/Build/px4io-v1_default.build/c/px4/workspace/PX4Firmware/src/modules/px4iofirmware/module.pre.o (crc32part)
c:/px4/workspace/PX4Firmware/Build/px4io-v1_default.build/nuttx-export/libs\libnuttx.a(c-lib_lowsyslog.o)
                              c:/px4/workspace/PX4Firmware/Build/px4io-v1_default.build/c/px4/workspace/PX4Firmware/src/modules/px4iofirmware/module.pre.o (lowsyslog)
c:/px4/workspace/PX4Firmware/Build/px4io-v1_default.build/nuttx-export/libs\libnuttx.a(c-lib_memchr.o)
                              c:/px4/workspace/PX4Firmware/Build/px4io-v1_default.build/c/px4/workspace/PX4Firmware/src/modules/px4iofirmware/module.pre.o (memchr)
c:/px4/workspace/PX4Firmware/Build/px4io-v1_default.build/nuttx-export/libs\libnuttx.a(c-lib_memcpy.o)
                              c:/px4/workspace/PX4Firmware/Build/px4io-v1_default.build/c/px4/workspace/PX4Firmware/src/modules/px4iofirmware/module.pre.o (memcpy)
c:/px4/workspace/PX4Firmware/Build/px4io-v1_default.build/nuttx-export/libs\libnuttx.a(c-lib_memset.o)
                              c:/px4/workspace/PX4Firmware/Build/px4io-v1_default.build/c/px4/workspace/PX4Firmware/src/drivers/stm32/module.pre.o (memset)
c:/px4/workspace/PX4Firmware/Build/px4io-v1_default.build/nuttx-export/libs\libnuttx.a(c-lib_printf.o)
                              c:/px4/workspace/PX4Firmware/Build/px4io-v1_default.build/c/px4/workspace/PX4Firmware/src/modules/px4iofirmware/module.pre.o (printf)
c:/px4/workspace/PX4Firmware/Build/px4io-v1_default.build/nuttx-export/libs\libnuttx.a(c-lib_sscanf.o)
                              c:/px4/workspace/PX4Firmware/Build/px4io-v1_default.build/c/px4/workspace/PX4Firmware/src/modules/px4iofirmware/module.pre.o (sscanf)
c:/px4/workspace/PX4Firmware/Build/px4io-v1_default.build/nuttx-export/libs\libnuttx.a(c-lib_strchr.o)
                              c:/px4/workspace/PX4Firmware/Build/px4io-v1_default.build/nuttx-export/libs\libnuttx.a(c-lib_sscanf.o) (strchr)
c:/px4/workspace/PX4Firmware/Build/px4io-v1_default.build/nuttx-export/libs\libnuttx.a(c-lib_strcmp.o)
                              c:/px4/workspace/PX4Firmware/Build/px4io-v1_default.build/c/px4/workspace/PX4Firmware/src/modules/px4iofirmware/module.pre.o (strcmp)
c:/px4/workspace/PX4Firmware/Build/px4io-v1_default.build/nuttx-export/libs\libnuttx.a(c-lib_strcspn.o)
                              c:/px4/workspace/PX4Firmware/Build/px4io-v1_default.build/nuttx-export/libs\libnuttx.a(c-lib_sscanf.o) (strcspn)
c:/px4/workspace/PX4Firmware/Build/px4io-v1_default.build/nuttx-export/libs\libnuttx.a(c-lib_strncpy.o)
                              c:/px4/workspace/PX4Firmware/Build/px4io-v1_default.build/nuttx-export/libs\libnuttx.a(c-lib_sscanf.o) (strncpy)
c:/px4/workspace/PX4Firmware/Build/px4io-v1_default.build/nuttx-export/libs\libnuttx.a(c-lib_strtol.o)
                              c:/px4/workspace/PX4Firmware/Build/px4io-v1_default.build/nuttx-export/libs\libnuttx.a(c-lib_sscanf.o) (strtol)
c:/px4/workspace/PX4Firmware/Build/px4io-v1_default.build/nuttx-export/libs\libnuttx.a(c-lib_strtoul.o)
                              c:/px4/workspace/PX4Firmware/Build/px4io-v1_default.build/nuttx-export/libs\libnuttx.a(c-lib_strtol.o) (strtoul)
c:/px4/workspace/PX4Firmware/Build/px4io-v1_default.build/nuttx-export/libs\libnuttx.a(c-lib_syslog.o)
                              c:/px4/workspace/PX4Firmware/Build/px4io-v1_default.build/nuttx-export/libs\libnuttx.a(c-lib_printf.o) (vsyslog)
c:/px4/workspace/PX4Firmware/Build/px4io-v1_default.build/nuttx-export/libs\libnuttx.a(c-lib_tcgetattr.o)
                              c:/px4/workspace/PX4Firmware/Build/px4io-v1_default.build/c/px4/workspace/PX4Firmware/src/modules/px4iofirmware/module.pre.o (tcgetattr)
c:/px4/workspace/PX4Firmware/Build/px4io-v1_default.build/nuttx-export/libs\libnuttx.a(c-lib_tcsetattr.o)
                              c:/px4/workspace/PX4Firmware/Build/px4io-v1_default.build/c/px4/workspace/PX4Firmware/src/modules/px4iofirmware/module.pre.o (tcsetattr)
c:/px4/workspace/PX4Firmware/Build/px4io-v1_default.build/nuttx-export/libs\libnuttx.a(c-lib_vsnprintf.o)
                              c:/px4/workspace/PX4Firmware/Build/px4io-v1_default.build/c/px4/workspace/PX4Firmware/src/modules/px4iofirmware/module.pre.o (vsnprintf)
c:/px4/workspace/PX4Firmware/Build/px4io-v1_default.build/nuttx-export/libs\libnuttx.a(c-sq_addafter.o)
                              c:/px4/workspace/PX4Firmware/Build/px4io-v1_default.build/c/px4/workspace/PX4Firmware/src/drivers/stm32/module.pre.o (sq_addafter)
c:/px4/workspace/PX4Firmware/Build/px4io-v1_default.build/nuttx-export/libs\libnuttx.a(c-sq_addfirst.o)
                              c:/px4/workspace/PX4Firmware/Build/px4io-v1_default.build/c/px4/workspace/PX4Firmware/src/drivers/stm32/module.pre.o (sq_addfirst)
c:/px4/workspace/PX4Firmware/Build/px4io-v1_default.build/nuttx-export/libs\libnuttx.a(c-sq_addlast.o)
                              c:/px4/workspace/PX4Firmware/Build/px4io-v1_default.build/nuttx-export/libs\libnuttx.a(c-sq_addafter.o) (sq_addlast)
c:/px4/workspace/PX4Firmware/Build/px4io-v1_default.build/nuttx-export/libs\libnuttx.a(c-sq_rem.o)
                              c:/px4/workspace/PX4Firmware/Build/px4io-v1_default.build/c/px4/workspace/PX4Firmware/src/drivers/stm32/module.pre.o (sq_rem)
c:/px4/workspace/PX4Firmware/Build/px4io-v1_default.build/nuttx-export/libs\libnuttx.a(c-sq_remafter.o)
                              c:/px4/workspace/PX4Firmware/Build/px4io-v1_default.build/nuttx-export/libs\libnuttx.a(c-sq_rem.o) (sq_remafter)
c:/px4/workspace/PX4Firmware/Build/px4io-v1_default.build/nuttx-export/libs\libnuttx.a(mm-mm_calloc.o)
                              c:/px4/workspace/PX4Firmware/Build/px4io-v1_default.build/c/px4/workspace/PX4Firmware/src/modules/px4iofirmware/module.pre.o (calloc)
c:/px4/workspace/PX4Firmware/Build/px4io-v1_default.build/nuttx-export/libs\libnuttx.a(mm-mm_free.o)
                              c:/px4/workspace/PX4Firmware/Build/px4io-v1_default.build/c/px4/workspace/PX4Firmware/src/modules/px4iofirmware/module.pre.o (free)
c:/px4/workspace/PX4Firmware/Build/px4io-v1_default.build/nuttx-export/libs\libnuttx.a(mm-mm_mallinfo.o)
                              c:/px4/workspace/PX4Firmware/Build/px4io-v1_default.build/c/px4/workspace/PX4Firmware/src/modules/px4iofirmware/module.pre.o (mallinfo)
c:/px4/workspace/PX4Firmware/Build/px4io-v1_default.build/nuttx-export/libs\libnuttx.a(mm-mm_malloc.o)
                              c:/px4/workspace/PX4Firmware/Build/px4io-v1_default.build/c/px4/workspace/PX4Firmware/src/modules/px4iofirmware/module.pre.o (malloc)
c:/px4/workspace/PX4Firmware/Build/px4io-v1_default.build/nuttx-export/libs\libnuttx.a(mm-mm_sem.o)
                              c:/px4/workspace/PX4Firmware/Build/px4io-v1_default.build/nuttx-export/libs\libnuttx.a(mm-mm_free.o) (mm_takesemaphore)
c:/px4/workspace/PX4Firmware/Build/px4io-v1_default.build/nuttx-export/libs\libnuttx.a(mm-mm_size2ndx.o)
                              c:/px4/workspace/PX4Firmware/Build/px4io-v1_default.build/nuttx-export/libs\libnuttx.a(mm-mm_malloc.o) (mm_size2ndx)
c:/px4/workspace/PX4Firmware/Build/px4io-v1_default.build/nuttx-export/libs\libnuttx.a(mm-mm_user.o)
                              c:/px4/workspace/PX4Firmware/Build/px4io-v1_default.build/nuttx-export/libs\libnuttx.a(mm-mm_free.o) (g_mmheap)
c:/px4/workspace/PX4Firmware/Build/px4io-v1_default.build/nuttx-export/libs\libnuttx.a(mm-mm_zalloc.o)
                              c:/px4/workspace/PX4Firmware/Build/px4io-v1_default.build/nuttx-export/libs\libnuttx.a(mm-mm_calloc.o) (zalloc)
c:/px4/workspace/PX4Firmware/Build/px4io-v1_default.build/nuttx-export/libs\libnuttx.a(arch-stm32_dma.o)
                              c:/px4/workspace/PX4Firmware/Build/px4io-v1_default.build/c/px4/workspace/PX4Firmware/src/modules/px4iofirmware/module.pre.o (stm32_dmachannel)
c:/px4/workspace/PX4Firmware/Build/px4io-v1_default.build/nuttx-export/libs\libnuttx.a(arch-stm32_gpio.o)
                              c:/px4/workspace/PX4Firmware/Build/px4io-v1_default.build/c/px4/workspace/PX4Firmware/src/drivers/boards/px4io-v1/module.pre.o (stm32_configgpio)
c:/px4/workspace/PX4Firmware/Build/px4io-v1_default.build/nuttx-export/libs\libnuttx.a(arch-stm32_irq.o)
                              c:/px4/workspace/PX4Firmware/Build/px4io-v1_default.build/nuttx-export/libs\libnuttx.a(sched-irq_attach.o) (up_disable_irq)
c:/px4/workspace/PX4Firmware/Build/px4io-v1_default.build/nuttx-export/libs\libnuttx.a(arch-stm32_serial.o)
                              c:/px4/workspace/PX4Firmware/Build/px4io-v1_default.build/c/px4/workspace/PX4Firmware/src/modules/px4iofirmware/module.pre.o (stm32_serial_dma_poll)
c:/px4/workspace/PX4Firmware/Build/px4io-v1_default.build/nuttx-export/libs\libnuttx.a(arch-stm32_start.o)
                              (__start)
c:/px4/workspace/PX4Firmware/Build/px4io-v1_default.build/nuttx-export/libs\libnuttx.a(arch-up_assert.o)
                              c:/px4/workspace/PX4Firmware/Build/px4io-v1_default.build/nuttx-export/libs\libnuttx.a(sched-irq_unexpectedisr.o) (up_assert)
c:/px4/workspace/PX4Firmware/Build/px4io-v1_default.build/nuttx-export/libs\libnuttx.a(arch-up_hardfault.o)
                              c:/px4/workspace/PX4Firmware/Build/px4io-v1_default.build/nuttx-export/libs\libnuttx.a(arch-stm32_irq.o) (up_hardfault)
c:/px4/workspace/PX4Firmware/Build/px4io-v1_default.build/nuttx-export/libs\libnuttx.a(arch-up_modifyreg32.o)
                              c:/px4/workspace/PX4Firmware/Build/px4io-v1_default.build/c/px4/workspace/PX4Firmware/src/drivers/stm32/module.pre.o (modifyreg32)
c:/px4/workspace/PX4Firmware/Build/px4io-v1_default.build/nuttx-export/libs\libnuttx.a(arch-up_svcall.o)
                              c:/px4/workspace/PX4Firmware/Build/px4io-v1_default.build/nuttx-export/libs\libnuttx.a(arch-stm32_irq.o) (up_svcall)
c:/px4/workspace/PX4Firmware/Build/px4io-v1_default.build/nuttx-export/libs\libnuttx.a(arch-up_systemreset.o)
                              c:/px4/workspace/PX4Firmware/Build/px4io-v1_default.build/c/px4/workspace/PX4Firmware/src/modules/px4iofirmware/module.pre.o (up_systemreset)
c:/px4/workspace/PX4Firmware/Build/px4io-v1_default.build/nuttx-export/libs\libnuttx.a(arch-up_udelay.o)
                              c:/px4/workspace/PX4Firmware/Build/px4io-v1_default.build/c/px4/workspace/PX4Firmware/src/modules/px4iofirmware/module.pre.o (up_udelay)
c:/px4/workspace/PX4Firmware/Build/px4io-v1_default.build/nuttx-export/libs\libnuttx.a(arch-up_vectors.o)
                              (_vectors)
c:/px4/workspace/PX4Firmware/Build/px4io-v1_default.build/nuttx-export/libs\libnuttx.a(cxx-libxx_cxa_atexit.o)
                              c:/px4/workspace/PX4Firmware/Build/px4io-v1_default.build/c/px4/workspace/PX4Firmware/src/modules/px4iofirmware/module.pre.o (__dso_handle)
c:/px4/workspace/PX4Firmware/Build/px4io-v1_default.build/nuttx-export/libs\libnuttx.a(cxx-libxx_cxapurevirtual.o)
                              c:/px4/workspace/PX4Firmware/Build/px4io-v1_default.build/c/px4/workspace/PX4Firmware/src/modules/px4iofirmware/module.pre.o (__cxa_pure_virtual)
c:/px4/workspace/PX4Firmware/Build/px4io-v1_default.build/nuttx-export/libs\libnuttx.a(cxx-libxx_delete.o)
                              c:/px4/workspace/PX4Firmware/Build/px4io-v1_default.build/c/px4/workspace/PX4Firmware/src/modules/px4iofirmware/module.pre.o (operator delete(void*))
c:/px4/workspace/PX4Firmware/Build/px4io-v1_default.build/nuttx-export/libs\libnuttx.a(cxx-libxx_eabi_atexit.o)
                              c:/px4/workspace/PX4Firmware/Build/px4io-v1_default.build/c/px4/workspace/PX4Firmware/src/modules/px4iofirmware/module.pre.o (__aeabi_atexit)
c:/px4/workspace/PX4Firmware/Build/px4io-v1_default.build/nuttx-export/libs\libnuttx.a(cxx-libxx_new.o)
                              c:/px4/workspace/PX4Firmware/Build/px4io-v1_default.build/c/px4/workspace/PX4Firmware/src/modules/px4iofirmware/module.pre.o (operator new(unsigned int))
c:/px4/workspace/PX4Firmware/Build/px4io-v1_default.build/nuttx-export/libs\libnuttx.a(fs-fs_ioctl.o)
                              c:/px4/workspace/PX4Firmware/Build/px4io-v1_default.build/nuttx-export/libs\libnuttx.a(c-lib_tcgetattr.o) (ioctl)
c:/px4/workspace/PX4Firmware/Build/px4io-v1_default.build/nuttx-export/libs\libnuttx.a(fs-fs_open.o)
                              c:/px4/workspace/PX4Firmware/Build/px4io-v1_default.build/c/px4/workspace/PX4Firmware/src/modules/px4iofirmware/module.pre.o (open)
c:/px4/workspace/PX4Firmware/Build/px4io-v1_default.build/nuttx-export/libs\libnuttx.a(fs-fs_read.o)
                              c:/px4/workspace/PX4Firmware/Build/px4io-v1_default.build/c/px4/workspace/PX4Firmware/src/modules/px4iofirmware/module.pre.o (read)
c:/px4/workspace/PX4Firmware/Build/px4io-v1_default.build/nuttx-export/libs\libnuttx.a(drivers-serial.o)
                              c:/px4/workspace/PX4Firmware/Build/px4io-v1_default.build/nuttx-export/libs\libnuttx.a(arch-stm32_serial.o) (uart_register)
c:/px4/workspace/PX4Firmware/Build/px4io-v1_default.build/nuttx-export/libs\libnuttx.a(drivers-serialirq.o)
                              c:/px4/workspace/PX4Firmware/Build/px4io-v1_default.build/nuttx-export/libs\libnuttx.a(arch-stm32_serial.o) (uart_xmitchars)
c:/px4/workspace/PX4Firmware/Build/px4io-v1_default.build/nuttx-export/libs\libnuttx.a(sched-errno_getptr.o)
                              c:/px4/workspace/PX4Firmware/Build/px4io-v1_default.build/nuttx-export/libs\libnuttx.a(mm-mm_sem.o) (get_errno_ptr)
c:/px4/workspace/PX4Firmware/Build/px4io-v1_default.build/nuttx-export/libs\libnuttx.a(sched-exit.o)
                              c:/px4/workspace/PX4Firmware/Build/px4io-v1_default.build/nuttx-export/libs\libnuttx.a(c-lib_abort.o) (exit)
c:/px4/workspace/PX4Firmware/Build/px4io-v1_default.build/nuttx-export/libs\libnuttx.a(sched-getpid.o)
                              c:/px4/workspace/PX4Firmware/Build/px4io-v1_default.build/nuttx-export/libs\libnuttx.a(mm-mm_sem.o) (getpid)
c:/px4/workspace/PX4Firmware/Build/px4io-v1_default.build/nuttx-export/libs\libnuttx.a(sched-os_start.o)
                              c:/px4/workspace/PX4Firmware/Build/px4io-v1_default.build/nuttx-export/libs\libnuttx.a(arch-stm32_start.o) (os_start)
c:/px4/workspace/PX4Firmware/Build/px4io-v1_default.build/nuttx-export/libs\libnuttx.a(sched-sched_garbage.o)
                              c:/px4/workspace/PX4Firmware/Build/px4io-v1_default.build/nuttx-export/libs\libnuttx.a(sched-os_start.o) (sched_garbagecollection)
c:/px4/workspace/PX4Firmware/Build/px4io-v1_default.build/nuttx-export/libs\libnuttx.a(sched-sched_getfiles.o)
                              c:/px4/workspace/PX4Firmware/Build/px4io-v1_default.build/nuttx-export/libs\libnuttx.a(fs-fs_ioctl.o) (sched_getfiles)
c:/px4/workspace/PX4Firmware/Build/px4io-v1_default.build/nuttx-export/libs\libnuttx.a(sched-sem_post.o)
                              c:/px4/workspace/PX4Firmware/Build/px4io-v1_default.build/nuttx-export/libs\libnuttx.a(mm-mm_sem.o) (sem_post)
c:/px4/workspace/PX4Firmware/Build/px4io-v1_default.build/nuttx-export/libs\libnuttx.a(sched-sem_trywait.o)
                              c:/px4/workspace/PX4Firmware/Build/px4io-v1_default.build/nuttx-export/libs\libnuttx.a(mm-mm_sem.o) (sem_trywait)
c:/px4/workspace/PX4Firmware/Build/px4io-v1_default.build/nuttx-export/libs\libnuttx.a(sched-sem_wait.o)
                              c:/px4/workspace/PX4Firmware/Build/px4io-v1_default.build/nuttx-export/libs\libnuttx.a(mm-mm_sem.o) (sem_wait)
c:/px4/workspace/PX4Firmware/Build/px4io-v1_default.build/nuttx-export/libs\libnuttx.a(sched-task_exithook.o)
                              c:/px4/workspace/PX4Firmware/Build/px4io-v1_default.build/nuttx-export/libs\libnuttx.a(sched-exit.o) (task_exithook)
c:/px4/workspace/PX4Firmware/Build/px4io-v1_default.build/nuttx-export/libs\libnuttx.a(sched-task_recover.o)
                              c:/px4/workspace/PX4Firmware/Build/px4io-v1_default.build/nuttx-export/libs\libnuttx.a(sched-task_exithook.o) (task_recover)
c:/px4/workspace/PX4Firmware/Build/px4io-v1_default.build/nuttx-export/libs\libnuttx.a(sched-wd_cancel.o)
                              c:/px4/workspace/PX4Firmware/Build/px4io-v1_default.build/nuttx-export/libs\libnuttx.a(sched-task_recover.o) (wd_cancel)
c:/px4/workspace/PX4Firmware/Build/px4io-v1_default.build/nuttx-export/libs\libnuttx.a(sched-wd_delete.o)
                              c:/px4/workspace/PX4Firmware/Build/px4io-v1_default.build/nuttx-export/libs\libnuttx.a(sched-task_recover.o) (wd_delete)
c:/px4/workspace/PX4Firmware/Build/px4io-v1_default.build/nuttx-export/libs\libnuttx.a(sched-wd_initialize.o)
                              c:/px4/workspace/PX4Firmware/Build/px4io-v1_default.build/nuttx-export/libs\libnuttx.a(sched-wd_cancel.o) (g_wdactivelist)
c:/px4/workspace/PX4Firmware/Build/px4io-v1_default.build/nuttx-export/libs\libnuttx.a(c-dq_addfirst.o)
                              c:/px4/workspace/PX4Firmware/Build/px4io-v1_default.build/nuttx-export/libs\libnuttx.a(sched-os_start.o) (dq_addfirst)
c:/px4/workspace/PX4Firmware/Build/px4io-v1_default.build/nuttx-export/libs\libnuttx.a(c-lib_cfgetspeed.o)
                              c:/px4/workspace/PX4Firmware/Build/px4io-v1_default.build/nuttx-export/libs\libnuttx.a(arch-stm32_serial.o) (cfgetspeed)
c:/px4/workspace/PX4Firmware/Build/px4io-v1_default.build/nuttx-export/libs\libnuttx.a(c-lib_checkbase.o)
                              c:/px4/workspace/PX4Firmware/Build/px4io-v1_default.build/nuttx-export/libs\libnuttx.a(c-lib_strtoul.o) (lib_checkbase)
c:/px4/workspace/PX4Firmware/Build/px4io-v1_default.build/nuttx-export/libs\libnuttx.a(c-lib_isbasedigit.o)
                              c:/px4/workspace/PX4Firmware/Build/px4io-v1_default.build/nuttx-export/libs\libnuttx.a(c-lib_strtoul.o) (lib_isbasedigit)
c:/px4/workspace/PX4Firmware/Build/px4io-v1_default.build/nuttx-export/libs\libnuttx.a(c-lib_libvsprintf.o)
                              c:/px4/workspace/PX4Firmware/Build/px4io-v1_default.build/nuttx-export/libs\libnuttx.a(c-lib_lowsyslog.o) (lib_vsprintf)
c:/px4/workspace/PX4Firmware/Build/px4io-v1_default.build/nuttx-export/libs\libnuttx.a(c-lib_lowoutstream.o)
                              c:/px4/workspace/PX4Firmware/Build/px4io-v1_default.build/nuttx-export/libs\libnuttx.a(c-lib_lowsyslog.o) (lib_lowoutstream)
c:/px4/workspace/PX4Firmware/Build/px4io-v1_default.build/nuttx-export/libs\libnuttx.a(c-lib_memoutstream.o)
                              c:/px4/workspace/PX4Firmware/Build/px4io-v1_default.build/nuttx-export/libs\libnuttx.a(c-lib_vsnprintf.o) (lib_memoutstream)
c:/px4/workspace/PX4Firmware/Build/px4io-v1_default.build/nuttx-export/libs\libnuttx.a(c-lib_nulloutstream.o)
                              c:/px4/workspace/PX4Firmware/Build/px4io-v1_default.build/nuttx-export/libs\libnuttx.a(c-lib_libvsprintf.o) (lib_nulloutstream)
c:/px4/workspace/PX4Firmware/Build/px4io-v1_default.build/nuttx-export/libs\libnuttx.a(c-lib_rawoutstream.o)
                              c:/px4/workspace/PX4Firmware/Build/px4io-v1_default.build/nuttx-export/libs\libnuttx.a(c-lib_syslog.o) (lib_rawoutstream)
c:/px4/workspace/PX4Firmware/Build/px4io-v1_default.build/nuttx-export/libs\libnuttx.a(c-lib_skipspace.o)
                              c:/px4/workspace/PX4Firmware/Build/px4io-v1_default.build/nuttx-export/libs\libnuttx.a(c-lib_strtol.o) (lib_skipspace)
c:/px4/workspace/PX4Firmware/Build/px4io-v1_default.build/nuttx-export/libs\libnuttx.a(c-lib_strcpy.o)
                              c:/px4/workspace/PX4Firmware/Build/px4io-v1_default.build/nuttx-export/libs\libnuttx.a(arch-stm32_serial.o) (strcpy)
c:/px4/workspace/PX4Firmware/Build/px4io-v1_default.build/nuttx-export/libs\libnuttx.a(c-lib_strlen.o)
                              c:/px4/workspace/PX4Firmware/Build/px4io-v1_default.build/nuttx-export/libs\libnuttx.a(c-lib_libvsprintf.o) (strlen)
c:/px4/workspace/PX4Firmware/Build/px4io-v1_default.build/nuttx-export/libs\libnuttx.a(c-sem_init.o)
                              c:/px4/workspace/PX4Firmware/Build/px4io-v1_default.build/nuttx-export/libs\libnuttx.a(mm-mm_sem.o) (sem_init)
c:/px4/workspace/PX4Firmware/Build/px4io-v1_default.build/nuttx-export/libs\libnuttx.a(c-sq_remfirst.o)
                              c:/px4/workspace/PX4Firmware/Build/px4io-v1_default.build/nuttx-export/libs\libnuttx.a(sched-sched_garbage.o) (sq_remfirst)
c:/px4/workspace/PX4Firmware/Build/px4io-v1_default.build/nuttx-export/libs\libnuttx.a(mm-mm_addfreechunk.o)
                              c:/px4/workspace/PX4Firmware/Build/px4io-v1_default.build/nuttx-export/libs\libnuttx.a(mm-mm_free.o) (mm_addfreechunk)
c:/px4/workspace/PX4Firmware/Build/px4io-v1_default.build/nuttx-export/libs\libnuttx.a(mm-mm_initialize.o)
                              c:/px4/workspace/PX4Firmware/Build/px4io-v1_default.build/nuttx-export/libs\libnuttx.a(mm-mm_user.o) (mm_addregion)
c:/px4/workspace/PX4Firmware/Build/px4io-v1_default.build/nuttx-export/libs\libnuttx.a(arch-stm32_allocateheap.o)
                              c:/px4/workspace/PX4Firmware/Build/px4io-v1_default.build/nuttx-export/libs\libnuttx.a(sched-os_start.o) (up_allocate_heap)
c:/px4/workspace/PX4Firmware/Build/px4io-v1_default.build/nuttx-export/libs\libnuttx.a(arch-stm32_idle.o)
                              c:/px4/workspace/PX4Firmware/Build/px4io-v1_default.build/nuttx-export/libs\libnuttx.a(sched-os_start.o) (up_idle)
c:/px4/workspace/PX4Firmware/Build/px4io-v1_default.build/nuttx-export/libs\libnuttx.a(arch-stm32_lowputc.o)
                              c:/px4/workspace/PX4Firmware/Build/px4io-v1_default.build/nuttx-export/libs\libnuttx.a(arch-stm32_serial.o) (up_lowputc)
c:/px4/workspace/PX4Firmware/Build/px4io-v1_default.build/nuttx-export/libs\libnuttx.a(arch-stm32_rcc.o)
                              c:/px4/workspace/PX4Firmware/Build/px4io-v1_default.build/nuttx-export/libs\libnuttx.a(arch-stm32_start.o) (stm32_clockconfig)
c:/px4/workspace/PX4Firmware/Build/px4io-v1_default.build/nuttx-export/libs\libnuttx.a(arch-stm32_vectors.o)
                              c:/px4/workspace/PX4Firmware/Build/px4io-v1_default.build/nuttx-export/libs\libnuttx.a(arch-up_assert.o) (g_idle_topstack)
c:/px4/workspace/PX4Firmware/Build/px4io-v1_default.build/nuttx-export/libs\libnuttx.a(arch-up_blocktask.o)
                              c:/px4/workspace/PX4Firmware/Build/px4io-v1_default.build/nuttx-export/libs\libnuttx.a(sched-sem_wait.o) (up_block_task)
c:/px4/workspace/PX4Firmware/Build/px4io-v1_default.build/nuttx-export/libs\libnuttx.a(arch-up_copystate.o)
                              c:/px4/workspace/PX4Firmware/Build/px4io-v1_default.build/nuttx-export/libs\libnuttx.a(arch-up_blocktask.o) (up_copystate)
c:/px4/workspace/PX4Firmware/Build/px4io-v1_default.build/nuttx-export/libs\libnuttx.a(arch-up_exception.o)
                              c:/px4/workspace/PX4Firmware/Build/px4io-v1_default.build/nuttx-export/libs\libnuttx.a(arch-up_vectors.o) (exception_common)
c:/px4/workspace/PX4Firmware/Build/px4io-v1_default.build/nuttx-export/libs\libnuttx.a(arch-up_exit.o)
                              c:/px4/workspace/PX4Firmware/Build/px4io-v1_default.build/nuttx-export/libs\libnuttx.a(sched-exit.o) (_exit)
c:/px4/workspace/PX4Firmware/Build/px4io-v1_default.build/nuttx-export/libs\libnuttx.a(arch-up_fullcontextrestore.o)
                              c:/px4/workspace/PX4Firmware/Build/px4io-v1_default.build/nuttx-export/libs\libnuttx.a(arch-up_exit.o) (up_fullcontextrestore)
c:/px4/workspace/PX4Firmware/Build/px4io-v1_default.build/nuttx-export/libs\libnuttx.a(arch-up_initialize.o)
                              c:/px4/workspace/PX4Firmware/Build/px4io-v1_default.build/nuttx-export/libs\libnuttx.a(sched-os_start.o) (up_initialize)
c:/px4/workspace/PX4Firmware/Build/px4io-v1_default.build/nuttx-export/libs\libnuttx.a(arch-up_initialstate.o)
                              c:/px4/workspace/PX4Firmware/Build/px4io-v1_default.build/nuttx-export/libs\libnuttx.a(sched-os_start.o) (up_initial_state)
c:/px4/workspace/PX4Firmware/Build/px4io-v1_default.build/nuttx-export/libs\libnuttx.a(arch-up_interruptcontext.o)
                              c:/px4/workspace/PX4Firmware/Build/px4io-v1_default.build/nuttx-export/libs\libnuttx.a(drivers-serial.o) (up_interrupt_context)
c:/px4/workspace/PX4Firmware/Build/px4io-v1_default.build/nuttx-export/libs\libnuttx.a(arch-up_mdelay.o)
                              c:/px4/workspace/PX4Firmware/Build/px4io-v1_default.build/nuttx-export/libs\libnuttx.a(drivers-serial.o) (up_mdelay)
c:/px4/workspace/PX4Firmware/Build/px4io-v1_default.build/nuttx-export/libs\libnuttx.a(arch-up_switchcontext.o)
                              c:/px4/workspace/PX4Firmware/Build/px4io-v1_default.build/nuttx-export/libs\libnuttx.a(arch-up_blocktask.o) (up_switchcontext)
c:/px4/workspace/PX4Firmware/Build/px4io-v1_default.build/nuttx-export/libs\libnuttx.a(arch-up_unblocktask.o)
                              c:/px4/workspace/PX4Firmware/Build/px4io-v1_default.build/nuttx-export/libs\libnuttx.a(sched-sem_post.o) (up_unblock_task)
c:/px4/workspace/PX4Firmware/Build/px4io-v1_default.build/nuttx-export/libs\libnuttx.a(fs-fs_files.o)
                              c:/px4/workspace/PX4Firmware/Build/px4io-v1_default.build/nuttx-export/libs\libnuttx.a(fs-fs_open.o) (files_allocate)
c:/px4/workspace/PX4Firmware/Build/px4io-v1_default.build/nuttx-export/libs\libnuttx.a(fs-fs_inodeaddref.o)
                              c:/px4/workspace/PX4Firmware/Build/px4io-v1_default.build/nuttx-export/libs\libnuttx.a(fs-fs_files.o) (inode_addref)
c:/px4/workspace/PX4Firmware/Build/px4io-v1_default.build/nuttx-export/libs\libnuttx.a(fs-fs_inodefind.o)
                              c:/px4/workspace/PX4Firmware/Build/px4io-v1_default.build/nuttx-export/libs\libnuttx.a(fs-fs_open.o) (inode_find)
c:/px4/workspace/PX4Firmware/Build/px4io-v1_default.build/nuttx-export/libs\libnuttx.a(fs-fs_inoderelease.o)
                              c:/px4/workspace/PX4Firmware/Build/px4io-v1_default.build/nuttx-export/libs\libnuttx.a(fs-fs_open.o) (inode_release)
c:/px4/workspace/PX4Firmware/Build/px4io-v1_default.build/nuttx-export/libs\libnuttx.a(fs-fs_registerdriver.o)
                              c:/px4/workspace/PX4Firmware/Build/px4io-v1_default.build/nuttx-export/libs\libnuttx.a(drivers-serial.o) (register_driver)
c:/px4/workspace/PX4Firmware/Build/px4io-v1_default.build/nuttx-export/libs\libnuttx.a(fs-fs_write.o)
                              c:/px4/workspace/PX4Firmware/Build/px4io-v1_default.build/nuttx-export/libs\libnuttx.a(c-lib_rawoutstream.o) (write)
c:/px4/workspace/PX4Firmware/Build/px4io-v1_default.build/nuttx-export/libs\libnuttx.a(sched-group_create.o)
                              c:/px4/workspace/PX4Firmware/Build/px4io-v1_default.build/nuttx-export/libs\libnuttx.a(sched-os_start.o) (group_allocate)
c:/px4/workspace/PX4Firmware/Build/px4io-v1_default.build/nuttx-export/libs\libnuttx.a(sched-group_leave.o)
                              c:/px4/workspace/PX4Firmware/Build/px4io-v1_default.build/nuttx-export/libs\libnuttx.a(sched-task_exithook.o) (group_leave)
c:/px4/workspace/PX4Firmware/Build/px4io-v1_default.build/nuttx-export/libs\libnuttx.a(sched-group_setupidlefiles.o)
                              c:/px4/workspace/PX4Firmware/Build/px4io-v1_default.build/nuttx-export/libs\libnuttx.a(sched-os_start.o) (group_setupidlefiles)
c:/px4/workspace/PX4Firmware/Build/px4io-v1_default.build/nuttx-export/libs\libnuttx.a(sched-os_bringup.o)
                              c:/px4/workspace/PX4Firmware/Build/px4io-v1_default.build/nuttx-export/libs\libnuttx.a(sched-os_start.o) (os_bringup)
c:/px4/workspace/PX4Firmware/Build/px4io-v1_default.build/nuttx-export/libs\libnuttx.a(sched-sched_addblocked.o)
                              c:/px4/workspace/PX4Firmware/Build/px4io-v1_default.build/nuttx-export/libs\libnuttx.a(arch-up_blocktask.o) (sched_addblocked)
c:/px4/workspace/PX4Firmware/Build/px4io-v1_default.build/nuttx-export/libs\libnuttx.a(sched-sched_addprioritized.o)
                              c:/px4/workspace/PX4Firmware/Build/px4io-v1_default.build/nuttx-export/libs\libnuttx.a(sched-sched_addblocked.o) (sched_addprioritized)
c:/px4/workspace/PX4Firmware/Build/px4io-v1_default.build/nuttx-export/libs\libnuttx.a(sched-sched_addreadytorun.o)
                              c:/px4/workspace/PX4Firmware/Build/px4io-v1_default.build/nuttx-export/libs\libnuttx.a(arch-up_unblocktask.o) (sched_addreadytorun)
c:/px4/workspace/PX4Firmware/Build/px4io-v1_default.build/nuttx-export/libs\libnuttx.a(sched-sched_free.o)
                              c:/px4/workspace/PX4Firmware/Build/px4io-v1_default.build/nuttx-export/libs\libnuttx.a(sched-group_leave.o) (sched_ufree)
c:/px4/workspace/PX4Firmware/Build/px4io-v1_default.build/nuttx-export/libs\libnuttx.a(sched-sched_mergepending.o)
                              c:/px4/workspace/PX4Firmware/Build/px4io-v1_default.build/nuttx-export/libs\libnuttx.a(arch-up_blocktask.o) (sched_mergepending)
c:/px4/workspace/PX4Firmware/Build/px4io-v1_default.build/nuttx-export/libs\libnuttx.a(sched-sched_removeblocked.o)
                              c:/px4/workspace/PX4Firmware/Build/px4io-v1_default.build/nuttx-export/libs\libnuttx.a(arch-up_unblocktask.o) (sched_removeblocked)
c:/px4/workspace/PX4Firmware/Build/px4io-v1_default.build/nuttx-export/libs\libnuttx.a(sched-sched_removereadytorun.o)
                              c:/px4/workspace/PX4Firmware/Build/px4io-v1_default.build/nuttx-export/libs\libnuttx.a(arch-up_blocktask.o) (sched_removereadytorun)
c:/px4/workspace/PX4Firmware/Build/px4io-v1_default.build/nuttx-export/libs\libnuttx.a(sched-sem_destroy.o)
                              c:/px4/workspace/PX4Firmware/Build/px4io-v1_default.build/nuttx-export/libs\libnuttx.a(fs-fs_files.o) (sem_destroy)
c:/px4/workspace/PX4Firmware/Build/px4io-v1_default.build/nuttx-export/libs\libnuttx.a(sched-task_create.o)
                              c:/px4/workspace/PX4Firmware/Build/px4io-v1_default.build/nuttx-export/libs\libnuttx.a(sched-os_bringup.o) (task_create)
c:/px4/workspace/PX4Firmware/Build/px4io-v1_default.build/nuttx-export/libs\libnuttx.a(sched-task_exit.o)
                              c:/px4/workspace/PX4Firmware/Build/px4io-v1_default.build/nuttx-export/libs\libnuttx.a(arch-up_exit.o) (task_exit)
c:/px4/workspace/PX4Firmware/Build/px4io-v1_default.build/nuttx-export/libs\libnuttx.a(sched-task_setup.o)
                              c:/px4/workspace/PX4Firmware/Build/px4io-v1_default.build/nuttx-export/libs\libnuttx.a(sched-task_create.o) (task_schedsetup)
c:/px4/workspace/PX4Firmware/Build/px4io-v1_default.build/nuttx-export/libs\libnuttx.a(sched-task_start.o)
                              c:/px4/workspace/PX4Firmware/Build/px4io-v1_default.build/nuttx-export/libs\libnuttx.a(sched-task_create.o) (task_start)
c:/px4/workspace/PX4Firmware/Build/px4io-v1_default.build/nuttx-export/libs\libnuttx.a(sched-task_terminate.o)
                              c:/px4/workspace/PX4Firmware/Build/px4io-v1_default.build/nuttx-export/libs\libnuttx.a(sched-task_exit.o) (task_terminate)
c:/px4/workspace/PX4Firmware/Build/px4io-v1_default.build/nuttx-export/libs\libnuttx.a(c-dq_addlast.o)
                              c:/px4/workspace/PX4Firmware/Build/px4io-v1_default.build/nuttx-export/libs\libnuttx.a(sched-sched_addblocked.o) (dq_addlast)
c:/px4/workspace/PX4Firmware/Build/px4io-v1_default.build/nuttx-export/libs\libnuttx.a(c-dq_rem.o)
                              c:/px4/workspace/PX4Firmware/Build/px4io-v1_default.build/nuttx-export/libs\libnuttx.a(sched-sched_removeblocked.o) (dq_rem)
c:/px4/workspace/PX4Firmware/Build/px4io-v1_default.build/nuttx-export/libs\libnuttx.a(c-lib_strdup.o)
                              c:/px4/workspace/PX4Firmware/Build/px4io-v1_default.build/nuttx-export/libs\libnuttx.a(sched-task_setup.o) (strdup)
c:/px4/workspace/PX4Firmware/Build/px4io-v1_default.build/nuttx-export/libs\libnuttx.a(arch-stm32_timerisr.o)
                              c:/px4/workspace/PX4Firmware/Build/px4io-v1_default.build/nuttx-export/libs\libnuttx.a(arch-up_initialize.o) (up_timerinit)
c:/px4/workspace/PX4Firmware/Build/px4io-v1_default.build/nuttx-export/libs\libnuttx.a(arch-up_createstack.o)
                              c:/px4/workspace/PX4Firmware/Build/px4io-v1_default.build/nuttx-export/libs\libnuttx.a(sched-task_create.o) (up_create_stack)
c:/px4/workspace/PX4Firmware/Build/px4io-v1_default.build/nuttx-export/libs\libnuttx.a(arch-up_doirq.o)
                              c:/px4/workspace/PX4Firmware/Build/px4io-v1_default.build/nuttx-export/libs\libnuttx.a(arch-up_exception.o) (up_doirq)
c:/px4/workspace/PX4Firmware/Build/px4io-v1_default.build/nuttx-export/libs\libnuttx.a(arch-up_releasestack.o)
                              c:/px4/workspace/PX4Firmware/Build/px4io-v1_default.build/nuttx-export/libs\libnuttx.a(arch-up_createstack.o) (up_release_stack)
c:/px4/workspace/PX4Firmware/Build/px4io-v1_default.build/nuttx-export/libs\libnuttx.a(fs-fs_close.o)
                              c:/px4/workspace/PX4Firmware/Build/px4io-v1_default.build/nuttx-export/libs\libnuttx.a(sched-group_setupidlefiles.o) (close)
c:/px4/workspace/PX4Firmware/Build/px4io-v1_default.build/nuttx-export/libs\libnuttx.a(fs-fs_filedup2.o)
                              c:/px4/workspace/PX4Firmware/Build/px4io-v1_default.build/nuttx-export/libs\libnuttx.a(sched-group_setupidlefiles.o) (dup2)
c:/px4/workspace/PX4Firmware/Build/px4io-v1_default.build/nuttx-export/libs\libnuttx.a(fs-fs_inode.o)
                              c:/px4/workspace/PX4Firmware/Build/px4io-v1_default.build/nuttx-export/libs\libnuttx.a(fs-fs_inodeaddref.o) (inode_semtake)
c:/px4/workspace/PX4Firmware/Build/px4io-v1_default.build/nuttx-export/libs\libnuttx.a(fs-fs_inodereserve.o)
                              c:/px4/workspace/PX4Firmware/Build/px4io-v1_default.build/nuttx-export/libs\libnuttx.a(fs-fs_registerdriver.o) (inode_reserve)
c:/px4/workspace/PX4Firmware/Build/px4io-v1_default.build/nuttx-export/libs\libnuttx.a(sched-group_setuptaskfiles.o)
                              c:/px4/workspace/PX4Firmware/Build/px4io-v1_default.build/nuttx-export/libs\libnuttx.a(sched-task_create.o) (group_setuptaskfiles)
c:/px4/workspace/PX4Firmware/Build/px4io-v1_default.build/nuttx-export/libs\libnuttx.a(sched-irq_dispatch.o)
                              c:/px4/workspace/PX4Firmware/Build/px4io-v1_default.build/nuttx-export/libs\libnuttx.a(arch-up_doirq.o) (irq_dispatch)
c:/px4/workspace/PX4Firmware/Build/px4io-v1_default.build/nuttx-export/libs\libnuttx.a(sched-sched_gettcb.o)
                              c:/px4/workspace/PX4Firmware/Build/px4io-v1_default.build/nuttx-export/libs\libnuttx.a(sched-task_terminate.o) (sched_gettcb)
c:/px4/workspace/PX4Firmware/Build/px4io-v1_default.build/nuttx-export/libs\libnuttx.a(sched-sched_lock.o)
                              c:/px4/workspace/PX4Firmware/Build/px4io-v1_default.build/nuttx-export/libs\libnuttx.a(sched-task_setup.o) (sched_lock)
c:/px4/workspace/PX4Firmware/Build/px4io-v1_default.build/nuttx-export/libs\libnuttx.a(sched-sched_processtimer.o)
                              c:/px4/workspace/PX4Firmware/Build/px4io-v1_default.build/nuttx-export/libs\libnuttx.a(arch-stm32_timerisr.o) (sched_process_timer)
c:/px4/workspace/PX4Firmware/Build/px4io-v1_default.build/nuttx-export/libs\libnuttx.a(sched-sched_releasetcb.o)
                              c:/px4/workspace/PX4Firmware/Build/px4io-v1_default.build/nuttx-export/libs\libnuttx.a(sched-task_create.o) (sched_releasetcb)
c:/px4/workspace/PX4Firmware/Build/px4io-v1_default.build/nuttx-export/libs\libnuttx.a(sched-sched_unlock.o)
                              c:/px4/workspace/PX4Firmware/Build/px4io-v1_default.build/nuttx-export/libs\libnuttx.a(sched-task_setup.o) (sched_unlock)
c:/px4/workspace/PX4Firmware/Build/px4io-v1_default.build/nuttx-export/libs\libnuttx.a(sched-task_activate.o)
                              c:/px4/workspace/PX4Firmware/Build/px4io-v1_default.build/nuttx-export/libs\libnuttx.a(sched-task_create.o) (task_activate)
c:/px4/workspace/PX4Firmware/Build/px4io-v1_default.build/nuttx-export/libs\libnuttx.a(arch-up_releasepending.o)
                              c:/px4/workspace/PX4Firmware/Build/px4io-v1_default.build/nuttx-export/libs\libnuttx.a(sched-sched_unlock.o) (up_release_pending)
c:/px4/toolchain/bin/../lib/gcc/arm-none-eabi/4.6.2/armv7-m/libgcc.a(_lshrdi3.o)
                              c:/px4/workspace/PX4Firmware/Build/px4io-v1_default.build/nuttx-export/libs\libnuttx.a(c-lib_libvsprintf.o) (__aeabi_llsr)
c:/px4/toolchain/bin/../lib/gcc/arm-none-eabi/4.6.2/armv7-m/libgcc.a(_arm_addsubsf3.o)
                              c:/px4/workspace/PX4Firmware/Build/px4io-v1_default.build/c/px4/workspace/PX4Firmware/src/modules/px4iofirmware/module.pre.o (__aeabi_fsub)
c:/px4/toolchain/bin/../lib/gcc/arm-none-eabi/4.6.2/armv7-m/libgcc.a(_arm_muldivsf3.o)
                              c:/px4/workspace/PX4Firmware/Build/px4io-v1_default.build/c/px4/workspace/PX4Firmware/src/modules/px4iofirmware/module.pre.o (__aeabi_fmul)
c:/px4/toolchain/bin/../lib/gcc/arm-none-eabi/4.6.2/armv7-m/libgcc.a(_arm_cmpsf2.o)
                              c:/px4/workspace/PX4Firmware/Build/px4io-v1_default.build/c/px4/workspace/PX4Firmware/src/modules/px4iofirmware/module.pre.o (__aeabi_fcmplt)
c:/px4/toolchain/bin/../lib/gcc/arm-none-eabi/4.6.2/armv7-m/libgcc.a(_arm_fixsfsi.o)
                              c:/px4/workspace/PX4Firmware/Build/px4io-v1_default.build/c/px4/workspace/PX4Firmware/src/modules/px4iofirmware/module.pre.o (__aeabi_f2iz)
c:/px4/toolchain/bin/../lib/gcc/arm-none-eabi/4.6.2/armv7-m/libgcc.a(_arm_fixunssfsi.o)
                              c:/px4/workspace/PX4Firmware/Build/px4io-v1_default.build/c/px4/workspace/PX4Firmware/src/modules/px4iofirmware/module.pre.o (__aeabi_f2uiz)
c:/px4/toolchain/bin/../lib/gcc/arm-none-eabi/4.6.2/armv7-m/libgcc.a(_aeabi_uldivmod.o)
                              c:/px4/workspace/PX4Firmware/Build/px4io-v1_default.build/c/px4/workspace/PX4Firmware/src/drivers/stm32/module.pre.o (__aeabi_uldivmod)
c:/px4/toolchain/bin/../lib/gcc/arm-none-eabi/4.6.2/armv7-m/libgcc.a(bpabi.o)
                              c:/px4/toolchain/bin/../lib/gcc/arm-none-eabi/4.6.2/armv7-m/libgcc.a(_aeabi_uldivmod.o) (__gnu_uldivmod_helper)
c:/px4/toolchain/bin/../lib/gcc/arm-none-eabi/4.6.2/armv7-m/libgcc.a(_dvmd_tls.o)
                              c:/px4/toolchain/bin/../lib/gcc/arm-none-eabi/4.6.2/armv7-m/libgcc.a(_aeabi_uldivmod.o) (__aeabi_ldiv0)
c:/px4/toolchain/bin/../lib/gcc/arm-none-eabi/4.6.2/armv7-m/libgcc.a(_divdi3.o)
                              c:/px4/toolchain/bin/../lib/gcc/arm-none-eabi/4.6.2/armv7-m/libgcc.a(bpabi.o) (__divdi3)
c:/px4/toolchain/bin/../lib/gcc/arm-none-eabi/4.6.2/armv7-m/libgcc.a(_udivdi3.o)
                              c:/px4/toolchain/bin/../lib/gcc/arm-none-eabi/4.6.2/armv7-m/libgcc.a(bpabi.o) (__udivdi3)

Discarded input sections

 .text          0x00000000        0x0 c:/px4/workspace/PX4Firmware/Build/px4io-v1_default.build/c/px4/workspace/PX4Firmware/Build/px4io-v1_default.build/empty.c.o
 .data          0x00000000        0x0 c:/px4/workspace/PX4Firmware/Build/px4io-v1_default.build/c/px4/workspace/PX4Firmware/Build/px4io-v1_default.build/empty.c.o
 .bss           0x00000000        0x0 c:/px4/workspace/PX4Firmware/Build/px4io-v1_default.build/c/px4/workspace/PX4Firmware/Build/px4io-v1_default.build/empty.c.o
 .text          0x00000000        0x0 c:/px4/workspace/PX4Firmware/Build/px4io-v1_default.build/c/px4/workspace/PX4Firmware/src/drivers/boards/px4io-v1/module.pre.o
 .data          0x00000000        0x0 c:/px4/workspace/PX4Firmware/Build/px4io-v1_default.build/c/px4/workspace/PX4Firmware/src/drivers/boards/px4io-v1/module.pre.o
 .bss           0x00000000        0x0 c:/px4/workspace/PX4Firmware/Build/px4io-v1_default.build/c/px4/workspace/PX4Firmware/src/drivers/boards/px4io-v1/module.pre.o
 .text          0x00000000        0x0 c:/px4/workspace/PX4Firmware/Build/px4io-v1_default.build/c/px4/workspace/PX4Firmware/src/drivers/stm32/module.pre.o
 .text.ts_to_abstime
                0x00000000       0x30 c:/px4/workspace/PX4Firmware/Build/px4io-v1_default.build/c/px4/workspace/PX4Firmware/src/drivers/stm32/module.pre.o
 .text.abstime_to_ts
                0x00000000       0x3c c:/px4/workspace/PX4Firmware/Build/px4io-v1_default.build/c/px4/workspace/PX4Firmware/src/drivers/stm32/module.pre.o
 .text.hrt_store_absolute_time
                0x00000000       0x60 c:/px4/workspace/PX4Firmware/Build/px4io-v1_default.build/c/px4/workspace/PX4Firmware/src/drivers/stm32/module.pre.o
 .text.hrt_call_after
                0x00000000       0xa0 c:/px4/workspace/PX4Firmware/Build/px4io-v1_default.build/c/px4/workspace/PX4Firmware/src/drivers/stm32/module.pre.o
 .text.hrt_call_at
                0x00000000       0x48 c:/px4/workspace/PX4Firmware/Build/px4io-v1_default.build/c/px4/workspace/PX4Firmware/src/drivers/stm32/module.pre.o
 .text.hrt_called
                0x00000000       0x10 c:/px4/workspace/PX4Firmware/Build/px4io-v1_default.build/c/px4/workspace/PX4Firmware/src/drivers/stm32/module.pre.o
 .text.hrt_cancel
                0x00000000       0x2c c:/px4/workspace/PX4Firmware/Build/px4io-v1_default.build/c/px4/workspace/PX4Firmware/src/drivers/stm32/module.pre.o
 .text.hrt_call_init
                0x00000000        0x8 c:/px4/workspace/PX4Firmware/Build/px4io-v1_default.build/c/px4/workspace/PX4Firmware/src/drivers/stm32/module.pre.o
 .text.hrt_call_delay
                0x00000000       0x68 c:/px4/workspace/PX4Firmware/Build/px4io-v1_default.build/c/px4/workspace/PX4Firmware/src/drivers/stm32/module.pre.o
 .text.up_pwm_servo_get
                0x00000000       0x5c c:/px4/workspace/PX4Firmware/Build/px4io-v1_default.build/c/px4/workspace/PX4Firmware/src/drivers/stm32/module.pre.o
 .text.up_pwm_servo_deinit
                0x00000000       0x28 c:/px4/workspace/PX4Firmware/Build/px4io-v1_default.build/c/px4/workspace/PX4Firmware/src/drivers/stm32/module.pre.o
 .text.up_pwm_servo_set_rate
                0x00000000       0x6c c:/px4/workspace/PX4Firmware/Build/px4io-v1_default.build/c/px4/workspace/PX4Firmware/src/drivers/stm32/module.pre.o
 .data          0x00000000        0x0 c:/px4/workspace/PX4Firmware/Build/px4io-v1_default.build/c/px4/workspace/PX4Firmware/src/drivers/stm32/module.pre.o
 .bss           0x00000000        0x0 c:/px4/workspace/PX4Firmware/Build/px4io-v1_default.build/c/px4/workspace/PX4Firmware/src/drivers/stm32/module.pre.o
 .group         0x00000000        0xc c:/px4/workspace/PX4Firmware/Build/px4io-v1_default.build/c/px4/workspace/PX4Firmware/src/modules/px4iofirmware/module.pre.o
 .group         0x00000000        0xc c:/px4/workspace/PX4Firmware/Build/px4io-v1_default.build/c/px4/workspace/PX4Firmware/src/modules/px4iofirmware/module.pre.o
 .group         0x00000000        0x8 c:/px4/workspace/PX4Firmware/Build/px4io-v1_default.build/c/px4/workspace/PX4Firmware/src/modules/px4iofirmware/module.pre.o
 .text          0x00000000        0x0 c:/px4/workspace/PX4Firmware/Build/px4io-v1_default.build/c/px4/workspace/PX4Firmware/src/modules/px4iofirmware/module.pre.o
 .text.perf_free
                0x00000000       0x1c c:/px4/workspace/PX4Firmware/Build/px4io-v1_default.build/c/px4/workspace/PX4Firmware/src/modules/px4iofirmware/module.pre.o
 .text.perf_cancel
                0x00000000       0x14 c:/px4/workspace/PX4Firmware/Build/px4io-v1_default.build/c/px4/workspace/PX4Firmware/src/modules/px4iofirmware/module.pre.o
 .text.perf_reset
                0x00000000       0x50 c:/px4/workspace/PX4Firmware/Build/px4io-v1_default.build/c/px4/workspace/PX4Firmware/src/modules/px4iofirmware/module.pre.o
 .text.perf_print_counter
                0x00000000       0xb8 c:/px4/workspace/PX4Firmware/Build/px4io-v1_default.build/c/px4/workspace/PX4Firmware/src/modules/px4iofirmware/module.pre.o
 .text.perf_event_count
                0x00000000       0x24 c:/px4/workspace/PX4Firmware/Build/px4io-v1_default.build/c/px4/workspace/PX4Firmware/src/modules/px4iofirmware/module.pre.o
 .text.perf_print_all
                0x00000000       0x1c c:/px4/workspace/PX4Firmware/Build/px4io-v1_default.build/c/px4/workspace/PX4Firmware/src/modules/px4iofirmware/module.pre.o
 .text.perf_reset_all
                0x00000000       0x5c c:/px4/workspace/PX4Firmware/Build/px4io-v1_default.build/c/px4/workspace/PX4Firmware/src/modules/px4iofirmware/module.pre.o
 .text._ZN5Mixer11scale_checkER14mixer_scaler_s
                0x00000000       0x6c c:/px4/workspace/PX4Firmware/Build/px4io-v1_default.build/c/px4/workspace/PX4Firmware/src/modules/px4iofirmware/module.pre.o
 .text._ZN9NullMixerC2Ev
                0x00000000       0x14 c:/px4/workspace/PX4Firmware/Build/px4io-v1_default.build/c/px4/workspace/PX4Firmware/src/modules/px4iofirmware/module.pre.o
 .text._ZN10MixerGroup9add_mixerEP5Mixer
                0x00000000       0x18 c:/px4/workspace/PX4Firmware/Build/px4io-v1_default.build/c/px4/workspace/PX4Firmware/src/modules/px4iofirmware/module.pre.o
 .text._ZN10MixerGroup5countEv
                0x00000000       0x14 c:/px4/workspace/PX4Firmware/Build/px4io-v1_default.build/c/px4/workspace/PX4Firmware/src/modules/px4iofirmware/module.pre.o
 .text._ZN15MultirotorMixerC2EPFijhhRfEjNS_8GeometryEffff
                0x00000000       0x4c c:/px4/workspace/PX4Firmware/Build/px4io-v1_default.build/c/px4/workspace/PX4Firmware/src/modules/px4iofirmware/module.pre.o
 .text._ZN11SimpleMixerC2EPFijhhRfEjP14mixer_simple_s
                0x00000000       0x18 c:/px4/workspace/PX4Firmware/Build/px4io-v1_default.build/c/px4/workspace/PX4Firmware/src/modules/px4iofirmware/module.pre.o
 .text._ZN11SimpleMixer9pwm_inputEPFijhhRfEjjttt
                0x00000000       0xb8 c:/px4/workspace/PX4Firmware/Build/px4io-v1_default.build/c/px4/workspace/PX4Firmware/src/modules/px4iofirmware/module.pre.o
 .text._ZN11SimpleMixer5checkEv
                0x00000000       0x78 c:/px4/workspace/PX4Firmware/Build/px4io-v1_default.build/c/px4/workspace/PX4Firmware/src/modules/px4iofirmware/module.pre.o
 .text.i2c_reset
                0x00000000       0x8c c:/px4/workspace/PX4Firmware/Build/px4io-v1_default.build/c/px4/workspace/PX4Firmware/src/modules/px4iofirmware/module.pre.o
 .data          0x00000000        0x0 c:/px4/workspace/PX4Firmware/Build/px4io-v1_default.build/c/px4/workspace/PX4Firmware/src/modules/px4iofirmware/module.pre.o
 .bss           0x00000000        0x0 c:/px4/workspace/PX4Firmware/Build/px4io-v1_default.build/c/px4/workspace/PX4Firmware/src/modules/px4iofirmware/module.pre.o
 .text          0x00000000        0x0 c:/px4/workspace/PX4Firmware/Build/px4io-v1_default.build/nuttx-export/libs\libnuttx.a(sched-irq_attach.o)
 .data          0x00000000        0x0 c:/px4/workspace/PX4Firmware/Build/px4io-v1_default.build/nuttx-export/libs\libnuttx.a(sched-irq_attach.o)
 .bss           0x00000000        0x0 c:/px4/workspace/PX4Firmware/Build/px4io-v1_default.build/nuttx-export/libs\libnuttx.a(sched-irq_attach.o)
 .text          0x00000000        0x0 c:/px4/workspace/PX4Firmware/Build/px4io-v1_default.build/nuttx-export/libs\libnuttx.a(sched-irq_initialize.o)
 .data          0x00000000        0x0 c:/px4/workspace/PX4Firmware/Build/px4io-v1_default.build/nuttx-export/libs\libnuttx.a(sched-irq_initialize.o)
 .bss           0x00000000        0x0 c:/px4/workspace/PX4Firmware/Build/px4io-v1_default.build/nuttx-export/libs\libnuttx.a(sched-irq_initialize.o)
 .text          0x00000000        0x0 c:/px4/workspace/PX4Firmware/Build/px4io-v1_default.build/nuttx-export/libs\libnuttx.a(sched-irq_unexpectedisr.o)
 .data          0x00000000        0x0 c:/px4/workspace/PX4Firmware/Build/px4io-v1_default.build/nuttx-export/libs\libnuttx.a(sched-irq_unexpectedisr.o)
 .bss           0x00000000        0x0 c:/px4/workspace/PX4Firmware/Build/px4io-v1_default.build/nuttx-export/libs\libnuttx.a(sched-irq_unexpectedisr.o)
 .text          0x00000000        0x0 c:/px4/workspace/PX4Firmware/Build/px4io-v1_default.build/nuttx-export/libs\libnuttx.a(c-lib_abort.o)
 .data          0x00000000        0x0 c:/px4/workspace/PX4Firmware/Build/px4io-v1_default.build/nuttx-export/libs\libnuttx.a(c-lib_abort.o)
 .bss           0x00000000        0x0 c:/px4/workspace/PX4Firmware/Build/px4io-v1_default.build/nuttx-export/libs\libnuttx.a(c-lib_abort.o)
 .text          0x00000000        0x0 c:/px4/workspace/PX4Firmware/Build/px4io-v1_default.build/nuttx-export/libs\libnuttx.a(c-lib_cfsetspeed.o)
 .data          0x00000000        0x0 c:/px4/workspace/PX4Firmware/Build/px4io-v1_default.build/nuttx-export/libs\libnuttx.a(c-lib_cfsetspeed.o)
 .bss           0x00000000        0x0 c:/px4/workspace/PX4Firmware/Build/px4io-v1_default.build/nuttx-export/libs\libnuttx.a(c-lib_cfsetspeed.o)
 .text          0x00000000        0x0 c:/px4/workspace/PX4Firmware/Build/px4io-v1_default.build/nuttx-export/libs\libnuttx.a(c-lib_crc32.o)
 .data          0x00000000        0x0 c:/px4/workspace/PX4Firmware/Build/px4io-v1_default.build/nuttx-export/libs\libnuttx.a(c-lib_crc32.o)
 .bss           0x00000000        0x0 c:/px4/workspace/PX4Firmware/Build/px4io-v1_default.build/nuttx-export/libs\libnuttx.a(c-lib_crc32.o)
 .text.crc32    0x00000000        0x6 c:/px4/workspace/PX4Firmware/Build/px4io-v1_default.build/nuttx-export/libs\libnuttx.a(c-lib_crc32.o)
 .text          0x00000000        0x0 c:/px4/workspace/PX4Firmware/Build/px4io-v1_default.build/nuttx-export/libs\libnuttx.a(c-lib_lowsyslog.o)
 .data          0x00000000        0x0 c:/px4/workspace/PX4Firmware/Build/px4io-v1_default.build/nuttx-export/libs\libnuttx.a(c-lib_lowsyslog.o)
 .bss           0x00000000        0x0 c:/px4/workspace/PX4Firmware/Build/px4io-v1_default.build/nuttx-export/libs\libnuttx.a(c-lib_lowsyslog.o)
 .text          0x00000000        0x0 c:/px4/workspace/PX4Firmware/Build/px4io-v1_default.build/nuttx-export/libs\libnuttx.a(c-lib_memchr.o)
 .data          0x00000000        0x0 c:/px4/workspace/PX4Firmware/Build/px4io-v1_default.build/nuttx-export/libs\libnuttx.a(c-lib_memchr.o)
 .bss           0x00000000        0x0 c:/px4/workspace/PX4Firmware/Build/px4io-v1_default.build/nuttx-export/libs\libnuttx.a(c-lib_memchr.o)
 .text          0x00000000        0x0 c:/px4/workspace/PX4Firmware/Build/px4io-v1_default.build/nuttx-export/libs\libnuttx.a(c-lib_memcpy.o)
 .data          0x00000000        0x0 c:/px4/workspace/PX4Firmware/Build/px4io-v1_default.build/nuttx-export/libs\libnuttx.a(c-lib_memcpy.o)
 .bss           0x00000000        0x0 c:/px4/workspace/PX4Firmware/Build/px4io-v1_default.build/nuttx-export/libs\libnuttx.a(c-lib_memcpy.o)
 .text          0x00000000        0x0 c:/px4/workspace/PX4Firmware/Build/px4io-v1_default.build/nuttx-export/libs\libnuttx.a(c-lib_memset.o)
 .data          0x00000000        0x0 c:/px4/workspace/PX4Firmware/Build/px4io-v1_default.build/nuttx-export/libs\libnuttx.a(c-lib_memset.o)
 .bss           0x00000000        0x0 c:/px4/workspace/PX4Firmware/Build/px4io-v1_default.build/nuttx-export/libs\libnuttx.a(c-lib_memset.o)
 .text          0x00000000        0x0 c:/px4/workspace/PX4Firmware/Build/px4io-v1_default.build/nuttx-export/libs\libnuttx.a(c-lib_printf.o)
 .data          0x00000000        0x0 c:/px4/workspace/PX4Firmware/Build/px4io-v1_default.build/nuttx-export/libs\libnuttx.a(c-lib_printf.o)
 .bss           0x00000000        0x0 c:/px4/workspace/PX4Firmware/Build/px4io-v1_default.build/nuttx-export/libs\libnuttx.a(c-lib_printf.o)
 .text.printf   0x00000000       0x18 c:/px4/workspace/PX4Firmware/Build/px4io-v1_default.build/nuttx-export/libs\libnuttx.a(c-lib_printf.o)
 .text          0x00000000        0x0 c:/px4/workspace/PX4Firmware/Build/px4io-v1_default.build/nuttx-export/libs\libnuttx.a(c-lib_sscanf.o)
 .data          0x00000000        0x0 c:/px4/workspace/PX4Firmware/Build/px4io-v1_default.build/nuttx-export/libs\libnuttx.a(c-lib_sscanf.o)
 .bss           0x00000000        0x0 c:/px4/workspace/PX4Firmware/Build/px4io-v1_default.build/nuttx-export/libs\libnuttx.a(c-lib_sscanf.o)
 .text          0x00000000        0x0 c:/px4/workspace/PX4Firmware/Build/px4io-v1_default.build/nuttx-export/libs\libnuttx.a(c-lib_strchr.o)
 .data          0x00000000        0x0 c:/px4/workspace/PX4Firmware/Build/px4io-v1_default.build/nuttx-export/libs\libnuttx.a(c-lib_strchr.o)
 .bss           0x00000000        0x0 c:/px4/workspace/PX4Firmware/Build/px4io-v1_default.build/nuttx-export/libs\libnuttx.a(c-lib_strchr.o)
 .text          0x00000000        0x0 c:/px4/workspace/PX4Firmware/Build/px4io-v1_default.build/nuttx-export/libs\libnuttx.a(c-lib_strcmp.o)
 .data          0x00000000        0x0 c:/px4/workspace/PX4Firmware/Build/px4io-v1_default.build/nuttx-export/libs\libnuttx.a(c-lib_strcmp.o)
 .bss           0x00000000        0x0 c:/px4/workspace/PX4Firmware/Build/px4io-v1_default.build/nuttx-export/libs\libnuttx.a(c-lib_strcmp.o)
 .text          0x00000000        0x0 c:/px4/workspace/PX4Firmware/Build/px4io-v1_default.build/nuttx-export/libs\libnuttx.a(c-lib_strcspn.o)
 .data          0x00000000        0x0 c:/px4/workspace/PX4Firmware/Build/px4io-v1_default.build/nuttx-export/libs\libnuttx.a(c-lib_strcspn.o)
 .bss           0x00000000        0x0 c:/px4/workspace/PX4Firmware/Build/px4io-v1_default.build/nuttx-export/libs\libnuttx.a(c-lib_strcspn.o)
 .text          0x00000000        0x0 c:/px4/workspace/PX4Firmware/Build/px4io-v1_default.build/nuttx-export/libs\libnuttx.a(c-lib_strncpy.o)
 .data          0x00000000        0x0 c:/px4/workspace/PX4Firmware/Build/px4io-v1_default.build/nuttx-export/libs\libnuttx.a(c-lib_strncpy.o)
 .bss           0x00000000        0x0 c:/px4/workspace/PX4Firmware/Build/px4io-v1_default.build/nuttx-export/libs\libnuttx.a(c-lib_strncpy.o)
 .text          0x00000000        0x0 c:/px4/workspace/PX4Firmware/Build/px4io-v1_default.build/nuttx-export/libs\libnuttx.a(c-lib_strtol.o)
 .data          0x00000000        0x0 c:/px4/workspace/PX4Firmware/Build/px4io-v1_default.build/nuttx-export/libs\libnuttx.a(c-lib_strtol.o)
 .bss           0x00000000        0x0 c:/px4/workspace/PX4Firmware/Build/px4io-v1_default.build/nuttx-export/libs\libnuttx.a(c-lib_strtol.o)
 .text          0x00000000        0x0 c:/px4/workspace/PX4Firmware/Build/px4io-v1_default.build/nuttx-export/libs\libnuttx.a(c-lib_strtoul.o)
 .data          0x00000000        0x0 c:/px4/workspace/PX4Firmware/Build/px4io-v1_default.build/nuttx-export/libs\libnuttx.a(c-lib_strtoul.o)
 .bss           0x00000000        0x0 c:/px4/workspace/PX4Firmware/Build/px4io-v1_default.build/nuttx-export/libs\libnuttx.a(c-lib_strtoul.o)
 .text          0x00000000        0x0 c:/px4/workspace/PX4Firmware/Build/px4io-v1_default.build/nuttx-export/libs\libnuttx.a(c-lib_syslog.o)
 .data          0x00000000        0x0 c:/px4/workspace/PX4Firmware/Build/px4io-v1_default.build/nuttx-export/libs\libnuttx.a(c-lib_syslog.o)
 .bss           0x00000000        0x0 c:/px4/workspace/PX4Firmware/Build/px4io-v1_default.build/nuttx-export/libs\libnuttx.a(c-lib_syslog.o)
 .text.vsyslog  0x00000000       0x1e c:/px4/workspace/PX4Firmware/Build/px4io-v1_default.build/nuttx-export/libs\libnuttx.a(c-lib_syslog.o)
 .text.syslog   0x00000000       0x18 c:/px4/workspace/PX4Firmware/Build/px4io-v1_default.build/nuttx-export/libs\libnuttx.a(c-lib_syslog.o)
 .text          0x00000000        0x0 c:/px4/workspace/PX4Firmware/Build/px4io-v1_default.build/nuttx-export/libs\libnuttx.a(c-lib_tcgetattr.o)
 .data          0x00000000        0x0 c:/px4/workspace/PX4Firmware/Build/px4io-v1_default.build/nuttx-export/libs\libnuttx.a(c-lib_tcgetattr.o)
 .bss           0x00000000        0x0 c:/px4/workspace/PX4Firmware/Build/px4io-v1_default.build/nuttx-export/libs\libnuttx.a(c-lib_tcgetattr.o)
 .text          0x00000000        0x0 c:/px4/workspace/PX4Firmware/Build/px4io-v1_default.build/nuttx-export/libs\libnuttx.a(c-lib_tcsetattr.o)
 .data          0x00000000        0x0 c:/px4/workspace/PX4Firmware/Build/px4io-v1_default.build/nuttx-export/libs\libnuttx.a(c-lib_tcsetattr.o)
 .bss           0x00000000        0x0 c:/px4/workspace/PX4Firmware/Build/px4io-v1_default.build/nuttx-export/libs\libnuttx.a(c-lib_tcsetattr.o)
 .text          0x00000000        0x0 c:/px4/workspace/PX4Firmware/Build/px4io-v1_default.build/nuttx-export/libs\libnuttx.a(c-lib_vsnprintf.o)
 .data          0x00000000        0x0 c:/px4/workspace/PX4Firmware/Build/px4io-v1_default.build/nuttx-export/libs\libnuttx.a(c-lib_vsnprintf.o)
 .bss           0x00000000        0x0 c:/px4/workspace/PX4Firmware/Build/px4io-v1_default.build/nuttx-export/libs\libnuttx.a(c-lib_vsnprintf.o)
 .text          0x00000000        0x0 c:/px4/workspace/PX4Firmware/Build/px4io-v1_default.build/nuttx-export/libs\libnuttx.a(c-sq_addafter.o)
 .data          0x00000000        0x0 c:/px4/workspace/PX4Firmware/Build/px4io-v1_default.build/nuttx-export/libs\libnuttx.a(c-sq_addafter.o)
 .bss           0x00000000        0x0 c:/px4/workspace/PX4Firmware/Build/px4io-v1_default.build/nuttx-export/libs\libnuttx.a(c-sq_addafter.o)
 .text          0x00000000        0x0 c:/px4/workspace/PX4Firmware/Build/px4io-v1_default.build/nuttx-export/libs\libnuttx.a(c-sq_addfirst.o)
 .data          0x00000000        0x0 c:/px4/workspace/PX4Firmware/Build/px4io-v1_default.build/nuttx-export/libs\libnuttx.a(c-sq_addfirst.o)
 .bss           0x00000000        0x0 c:/px4/workspace/PX4Firmware/Build/px4io-v1_default.build/nuttx-export/libs\libnuttx.a(c-sq_addfirst.o)
 .text          0x00000000        0x0 c:/px4/workspace/PX4Firmware/Build/px4io-v1_default.build/nuttx-export/libs\libnuttx.a(c-sq_addlast.o)
 .data          0x00000000        0x0 c:/px4/workspace/PX4Firmware/Build/px4io-v1_default.build/nuttx-export/libs\libnuttx.a(c-sq_addlast.o)
 .bss           0x00000000        0x0 c:/px4/workspace/PX4Firmware/Build/px4io-v1_default.build/nuttx-export/libs\libnuttx.a(c-sq_addlast.o)
 .text          0x00000000        0x0 c:/px4/workspace/PX4Firmware/Build/px4io-v1_default.build/nuttx-export/libs\libnuttx.a(c-sq_rem.o)
 .data          0x00000000        0x0 c:/px4/workspace/PX4Firmware/Build/px4io-v1_default.build/nuttx-export/libs\libnuttx.a(c-sq_rem.o)
 .bss           0x00000000        0x0 c:/px4/workspace/PX4Firmware/Build/px4io-v1_default.build/nuttx-export/libs\libnuttx.a(c-sq_rem.o)
 .text          0x00000000        0x0 c:/px4/workspace/PX4Firmware/Build/px4io-v1_default.build/nuttx-export/libs\libnuttx.a(c-sq_remafter.o)
 .data          0x00000000        0x0 c:/px4/workspace/PX4Firmware/Build/px4io-v1_default.build/nuttx-export/libs\libnuttx.a(c-sq_remafter.o)
 .bss           0x00000000        0x0 c:/px4/workspace/PX4Firmware/Build/px4io-v1_default.build/nuttx-export/libs\libnuttx.a(c-sq_remafter.o)
 .text          0x00000000        0x0 c:/px4/workspace/PX4Firmware/Build/px4io-v1_default.build/nuttx-export/libs\libnuttx.a(mm-mm_calloc.o)
 .data          0x00000000        0x0 c:/px4/workspace/PX4Firmware/Build/px4io-v1_default.build/nuttx-export/libs\libnuttx.a(mm-mm_calloc.o)
 .bss           0x00000000        0x0 c:/px4/workspace/PX4Firmware/Build/px4io-v1_default.build/nuttx-export/libs\libnuttx.a(mm-mm_calloc.o)
 .text          0x00000000        0x0 c:/px4/workspace/PX4Firmware/Build/px4io-v1_default.build/nuttx-export/libs\libnuttx.a(mm-mm_free.o)
 .data          0x00000000        0x0 c:/px4/workspace/PX4Firmware/Build/px4io-v1_default.build/nuttx-export/libs\libnuttx.a(mm-mm_free.o)
 .bss           0x00000000        0x0 c:/px4/workspace/PX4Firmware/Build/px4io-v1_default.build/nuttx-export/libs\libnuttx.a(mm-mm_free.o)
 .text          0x00000000        0x0 c:/px4/workspace/PX4Firmware/Build/px4io-v1_default.build/nuttx-export/libs\libnuttx.a(mm-mm_mallinfo.o)
 .data          0x00000000        0x0 c:/px4/workspace/PX4Firmware/Build/px4io-v1_default.build/nuttx-export/libs\libnuttx.a(mm-mm_mallinfo.o)
 .bss           0x00000000        0x0 c:/px4/workspace/PX4Firmware/Build/px4io-v1_default.build/nuttx-export/libs\libnuttx.a(mm-mm_mallinfo.o)
 .text          0x00000000        0x0 c:/px4/workspace/PX4Firmware/Build/px4io-v1_default.build/nuttx-export/libs\libnuttx.a(mm-mm_malloc.o)
 .data          0x00000000        0x0 c:/px4/workspace/PX4Firmware/Build/px4io-v1_default.build/nuttx-export/libs\libnuttx.a(mm-mm_malloc.o)
 .bss           0x00000000        0x0 c:/px4/workspace/PX4Firmware/Build/px4io-v1_default.build/nuttx-export/libs\libnuttx.a(mm-mm_malloc.o)
 .text          0x00000000        0x0 c:/px4/workspace/PX4Firmware/Build/px4io-v1_default.build/nuttx-export/libs\libnuttx.a(mm-mm_sem.o)
 .data          0x00000000        0x0 c:/px4/workspace/PX4Firmware/Build/px4io-v1_default.build/nuttx-export/libs\libnuttx.a(mm-mm_sem.o)
 .bss           0x00000000        0x0 c:/px4/workspace/PX4Firmware/Build/px4io-v1_default.build/nuttx-export/libs\libnuttx.a(mm-mm_sem.o)
 .text          0x00000000        0x0 c:/px4/workspace/PX4Firmware/Build/px4io-v1_default.build/nuttx-export/libs\libnuttx.a(mm-mm_size2ndx.o)
 .data          0x00000000        0x0 c:/px4/workspace/PX4Firmware/Build/px4io-v1_default.build/nuttx-export/libs\libnuttx.a(mm-mm_size2ndx.o)
 .bss           0x00000000        0x0 c:/px4/workspace/PX4Firmware/Build/px4io-v1_default.build/nuttx-export/libs\libnuttx.a(mm-mm_size2ndx.o)
 .text          0x00000000        0x0 c:/px4/workspace/PX4Firmware/Build/px4io-v1_default.build/nuttx-export/libs\libnuttx.a(mm-mm_user.o)
 .data          0x00000000        0x0 c:/px4/workspace/PX4Firmware/Build/px4io-v1_default.build/nuttx-export/libs\libnuttx.a(mm-mm_user.o)
 .bss           0x00000000        0x0 c:/px4/workspace/PX4Firmware/Build/px4io-v1_default.build/nuttx-export/libs\libnuttx.a(mm-mm_user.o)
 .text.umm_addregion
                0x00000000       0x10 c:/px4/workspace/PX4Firmware/Build/px4io-v1_default.build/nuttx-export/libs\libnuttx.a(mm-mm_user.o)
 .text          0x00000000        0x0 c:/px4/workspace/PX4Firmware/Build/px4io-v1_default.build/nuttx-export/libs\libnuttx.a(mm-mm_zalloc.o)
 .data          0x00000000        0x0 c:/px4/workspace/PX4Firmware/Build/px4io-v1_default.build/nuttx-export/libs\libnuttx.a(mm-mm_zalloc.o)
 .bss           0x00000000        0x0 c:/px4/workspace/PX4Firmware/Build/px4io-v1_default.build/nuttx-export/libs\libnuttx.a(mm-mm_zalloc.o)
 .text          0x00000000        0x0 c:/px4/workspace/PX4Firmware/Build/px4io-v1_default.build/nuttx-export/libs\libnuttx.a(arch-stm32_dma.o)
 .data          0x00000000        0x0 c:/px4/workspace/PX4Firmware/Build/px4io-v1_default.build/nuttx-export/libs\libnuttx.a(arch-stm32_dma.o)
 .bss           0x00000000        0x0 c:/px4/workspace/PX4Firmware/Build/px4io-v1_default.build/nuttx-export/libs\libnuttx.a(arch-stm32_dma.o)
 .text          0x00000000        0x0 c:/px4/workspace/PX4Firmware/Build/px4io-v1_default.build/nuttx-export/libs\libnuttx.a(arch-stm32_gpio.o)
 .data          0x00000000        0x0 c:/px4/workspace/PX4Firmware/Build/px4io-v1_default.build/nuttx-export/libs\libnuttx.a(arch-stm32_gpio.o)
 .bss           0x00000000        0x0 c:/px4/workspace/PX4Firmware/Build/px4io-v1_default.build/nuttx-export/libs\libnuttx.a(arch-stm32_gpio.o)
 .text.stm32_unconfiggpio
                0x00000000        0xc c:/px4/workspace/PX4Firmware/Build/px4io-v1_default.build/nuttx-export/libs\libnuttx.a(arch-stm32_gpio.o)
 .text          0x00000000        0x0 c:/px4/workspace/PX4Firmware/Build/px4io-v1_default.build/nuttx-export/libs\libnuttx.a(arch-stm32_irq.o)
 .data          0x00000000        0x0 c:/px4/workspace/PX4Firmware/Build/px4io-v1_default.build/nuttx-export/libs\libnuttx.a(arch-stm32_irq.o)
 .bss           0x00000000        0x0 c:/px4/workspace/PX4Firmware/Build/px4io-v1_default.build/nuttx-export/libs\libnuttx.a(arch-stm32_irq.o)
 .text          0x00000000        0x0 c:/px4/workspace/PX4Firmware/Build/px4io-v1_default.build/nuttx-export/libs\libnuttx.a(arch-stm32_serial.o)
 .data          0x00000000        0x0 c:/px4/workspace/PX4Firmware/Build/px4io-v1_default.build/nuttx-export/libs\libnuttx.a(arch-stm32_serial.o)
 .bss           0x00000000        0x0 c:/px4/workspace/PX4Firmware/Build/px4io-v1_default.build/nuttx-export/libs\libnuttx.a(arch-stm32_serial.o)
 .text          0x00000000        0x0 c:/px4/workspace/PX4Firmware/Build/px4io-v1_default.build/nuttx-export/libs\libnuttx.a(arch-stm32_start.o)
 .data          0x00000000        0x0 c:/px4/workspace/PX4Firmware/Build/px4io-v1_default.build/nuttx-export/libs\libnuttx.a(arch-stm32_start.o)
 .bss           0x00000000        0x0 c:/px4/workspace/PX4Firmware/Build/px4io-v1_default.build/nuttx-export/libs\libnuttx.a(arch-stm32_start.o)
 .text          0x00000000        0x0 c:/px4/workspace/PX4Firmware/Build/px4io-v1_default.build/nuttx-export/libs\libnuttx.a(arch-up_assert.o)
 .data          0x00000000        0x0 c:/px4/workspace/PX4Firmware/Build/px4io-v1_default.build/nuttx-export/libs\libnuttx.a(arch-up_assert.o)
 .bss           0x00000000        0x0 c:/px4/workspace/PX4Firmware/Build/px4io-v1_default.build/nuttx-export/libs\libnuttx.a(arch-up_assert.o)
 .text          0x00000000        0x0 c:/px4/workspace/PX4Firmware/Build/px4io-v1_default.build/nuttx-export/libs\libnuttx.a(arch-up_hardfault.o)
 .data          0x00000000        0x0 c:/px4/workspace/PX4Firmware/Build/px4io-v1_default.build/nuttx-export/libs\libnuttx.a(arch-up_hardfault.o)
 .bss           0x00000000        0x0 c:/px4/workspace/PX4Firmware/Build/px4io-v1_default.build/nuttx-export/libs\libnuttx.a(arch-up_hardfault.o)
 .text          0x00000000        0x0 c:/px4/workspace/PX4Firmware/Build/px4io-v1_default.build/nuttx-export/libs\libnuttx.a(arch-up_modifyreg32.o)
 .data          0x00000000        0x0 c:/px4/workspace/PX4Firmware/Build/px4io-v1_default.build/nuttx-export/libs\libnuttx.a(arch-up_modifyreg32.o)
 .bss           0x00000000        0x0 c:/px4/workspace/PX4Firmware/Build/px4io-v1_default.build/nuttx-export/libs\libnuttx.a(arch-up_modifyreg32.o)
 .text          0x00000000        0x0 c:/px4/workspace/PX4Firmware/Build/px4io-v1_default.build/nuttx-export/libs\libnuttx.a(arch-up_svcall.o)
 .data          0x00000000        0x0 c:/px4/workspace/PX4Firmware/Build/px4io-v1_default.build/nuttx-export/libs\libnuttx.a(arch-up_svcall.o)
 .bss           0x00000000        0x0 c:/px4/workspace/PX4Firmware/Build/px4io-v1_default.build/nuttx-export/libs\libnuttx.a(arch-up_svcall.o)
 .text          0x00000000        0x0 c:/px4/workspace/PX4Firmware/Build/px4io-v1_default.build/nuttx-export/libs\libnuttx.a(arch-up_systemreset.o)
 .data          0x00000000        0x0 c:/px4/workspace/PX4Firmware/Build/px4io-v1_default.build/nuttx-export/libs\libnuttx.a(arch-up_systemreset.o)
 .bss           0x00000000        0x0 c:/px4/workspace/PX4Firmware/Build/px4io-v1_default.build/nuttx-export/libs\libnuttx.a(arch-up_systemreset.o)
 .text          0x00000000        0x0 c:/px4/workspace/PX4Firmware/Build/px4io-v1_default.build/nuttx-export/libs\libnuttx.a(arch-up_udelay.o)
 .data          0x00000000        0x0 c:/px4/workspace/PX4Firmware/Build/px4io-v1_default.build/nuttx-export/libs\libnuttx.a(arch-up_udelay.o)
 .bss           0x00000000        0x0 c:/px4/workspace/PX4Firmware/Build/px4io-v1_default.build/nuttx-export/libs\libnuttx.a(arch-up_udelay.o)
 .text          0x00000000        0x0 c:/px4/workspace/PX4Firmware/Build/px4io-v1_default.build/nuttx-export/libs\libnuttx.a(arch-up_vectors.o)
 .data          0x00000000        0x0 c:/px4/workspace/PX4Firmware/Build/px4io-v1_default.build/nuttx-export/libs\libnuttx.a(arch-up_vectors.o)
 .bss           0x00000000        0x0 c:/px4/workspace/PX4Firmware/Build/px4io-v1_default.build/nuttx-export/libs\libnuttx.a(arch-up_vectors.o)
 .text          0x00000000        0x0 c:/px4/workspace/PX4Firmware/Build/px4io-v1_default.build/nuttx-export/libs\libnuttx.a(cxx-libxx_cxa_atexit.o)
 .data          0x00000000        0x0 c:/px4/workspace/PX4Firmware/Build/px4io-v1_default.build/nuttx-export/libs\libnuttx.a(cxx-libxx_cxa_atexit.o)
 .bss           0x00000000        0x0 c:/px4/workspace/PX4Firmware/Build/px4io-v1_default.build/nuttx-export/libs\libnuttx.a(cxx-libxx_cxa_atexit.o)
 .text          0x00000000        0x0 c:/px4/workspace/PX4Firmware/Build/px4io-v1_default.build/nuttx-export/libs\libnuttx.a(cxx-libxx_cxapurevirtual.o)
 .data          0x00000000        0x0 c:/px4/workspace/PX4Firmware/Build/px4io-v1_default.build/nuttx-export/libs\libnuttx.a(cxx-libxx_cxapurevirtual.o)
 .bss           0x00000000        0x0 c:/px4/workspace/PX4Firmware/Build/px4io-v1_default.build/nuttx-export/libs\libnuttx.a(cxx-libxx_cxapurevirtual.o)
 .text          0x00000000        0x0 c:/px4/workspace/PX4Firmware/Build/px4io-v1_default.build/nuttx-export/libs\libnuttx.a(cxx-libxx_delete.o)
 .data          0x00000000        0x0 c:/px4/workspace/PX4Firmware/Build/px4io-v1_default.build/nuttx-export/libs\libnuttx.a(cxx-libxx_delete.o)
 .bss           0x00000000        0x0 c:/px4/workspace/PX4Firmware/Build/px4io-v1_default.build/nuttx-export/libs\libnuttx.a(cxx-libxx_delete.o)
 .text          0x00000000        0x0 c:/px4/workspace/PX4Firmware/Build/px4io-v1_default.build/nuttx-export/libs\libnuttx.a(cxx-libxx_eabi_atexit.o)
 .data          0x00000000        0x0 c:/px4/workspace/PX4Firmware/Build/px4io-v1_default.build/nuttx-export/libs\libnuttx.a(cxx-libxx_eabi_atexit.o)
 .bss           0x00000000        0x0 c:/px4/workspace/PX4Firmware/Build/px4io-v1_default.build/nuttx-export/libs\libnuttx.a(cxx-libxx_eabi_atexit.o)
 .text          0x00000000        0x0 c:/px4/workspace/PX4Firmware/Build/px4io-v1_default.build/nuttx-export/libs\libnuttx.a(cxx-libxx_new.o)
 .data          0x00000000        0x0 c:/px4/workspace/PX4Firmware/Build/px4io-v1_default.build/nuttx-export/libs\libnuttx.a(cxx-libxx_new.o)
 .bss           0x00000000        0x0 c:/px4/workspace/PX4Firmware/Build/px4io-v1_default.build/nuttx-export/libs\libnuttx.a(cxx-libxx_new.o)
 .text          0x00000000        0x0 c:/px4/workspace/PX4Firmware/Build/px4io-v1_default.build/nuttx-export/libs\libnuttx.a(fs-fs_ioctl.o)
 .data          0x00000000        0x0 c:/px4/workspace/PX4Firmware/Build/px4io-v1_default.build/nuttx-export/libs\libnuttx.a(fs-fs_ioctl.o)
 .bss           0x00000000        0x0 c:/px4/workspace/PX4Firmware/Build/px4io-v1_default.build/nuttx-export/libs\libnuttx.a(fs-fs_ioctl.o)
 .text          0x00000000        0x0 c:/px4/workspace/PX4Firmware/Build/px4io-v1_default.build/nuttx-export/libs\libnuttx.a(fs-fs_open.o)
 .data          0x00000000        0x0 c:/px4/workspace/PX4Firmware/Build/px4io-v1_default.build/nuttx-export/libs\libnuttx.a(fs-fs_open.o)
 .bss           0x00000000        0x0 c:/px4/workspace/PX4Firmware/Build/px4io-v1_default.build/nuttx-export/libs\libnuttx.a(fs-fs_open.o)
 .text          0x00000000        0x0 c:/px4/workspace/PX4Firmware/Build/px4io-v1_default.build/nuttx-export/libs\libnuttx.a(fs-fs_read.o)
 .data          0x00000000        0x0 c:/px4/workspace/PX4Firmware/Build/px4io-v1_default.build/nuttx-export/libs\libnuttx.a(fs-fs_read.o)
 .bss           0x00000000        0x0 c:/px4/workspace/PX4Firmware/Build/px4io-v1_default.build/nuttx-export/libs\libnuttx.a(fs-fs_read.o)
 .text          0x00000000        0x0 c:/px4/workspace/PX4Firmware/Build/px4io-v1_default.build/nuttx-export/libs\libnuttx.a(drivers-serial.o)
 .data          0x00000000        0x0 c:/px4/workspace/PX4Firmware/Build/px4io-v1_default.build/nuttx-export/libs\libnuttx.a(drivers-serial.o)
 .bss           0x00000000        0x0 c:/px4/workspace/PX4Firmware/Build/px4io-v1_default.build/nuttx-export/libs\libnuttx.a(drivers-serial.o)
 .text          0x00000000        0x0 c:/px4/workspace/PX4Firmware/Build/px4io-v1_default.build/nuttx-export/libs\libnuttx.a(drivers-serialirq.o)
 .data          0x00000000        0x0 c:/px4/workspace/PX4Firmware/Build/px4io-v1_default.build/nuttx-export/libs\libnuttx.a(drivers-serialirq.o)
 .bss           0x00000000        0x0 c:/px4/workspace/PX4Firmware/Build/px4io-v1_default.build/nuttx-export/libs\libnuttx.a(drivers-serialirq.o)
 .text          0x00000000        0x0 c:/px4/workspace/PX4Firmware/Build/px4io-v1_default.build/nuttx-export/libs\libnuttx.a(sched-errno_getptr.o)
 .data          0x00000000        0x0 c:/px4/workspace/PX4Firmware/Build/px4io-v1_default.build/nuttx-export/libs\libnuttx.a(sched-errno_getptr.o)
 .bss           0x00000000        0x0 c:/px4/workspace/PX4Firmware/Build/px4io-v1_default.build/nuttx-export/libs\libnuttx.a(sched-errno_getptr.o)
 .text          0x00000000        0x0 c:/px4/workspace/PX4Firmware/Build/px4io-v1_default.build/nuttx-export/libs\libnuttx.a(sched-exit.o)
 .data          0x00000000        0x0 c:/px4/workspace/PX4Firmware/Build/px4io-v1_default.build/nuttx-export/libs\libnuttx.a(sched-exit.o)
 .bss           0x00000000        0x0 c:/px4/workspace/PX4Firmware/Build/px4io-v1_default.build/nuttx-export/libs\libnuttx.a(sched-exit.o)
 .text          0x00000000        0x0 c:/px4/workspace/PX4Firmware/Build/px4io-v1_default.build/nuttx-export/libs\libnuttx.a(sched-getpid.o)
 .data          0x00000000        0x0 c:/px4/workspace/PX4Firmware/Build/px4io-v1_default.build/nuttx-export/libs\libnuttx.a(sched-getpid.o)
 .bss           0x00000000        0x0 c:/px4/workspace/PX4Firmware/Build/px4io-v1_default.build/nuttx-export/libs\libnuttx.a(sched-getpid.o)
 .text          0x00000000        0x0 c:/px4/workspace/PX4Firmware/Build/px4io-v1_default.build/nuttx-export/libs\libnuttx.a(sched-os_start.o)
 .data          0x00000000        0x0 c:/px4/workspace/PX4Firmware/Build/px4io-v1_default.build/nuttx-export/libs\libnuttx.a(sched-os_start.o)
 .bss           0x00000000        0x0 c:/px4/workspace/PX4Firmware/Build/px4io-v1_default.build/nuttx-export/libs\libnuttx.a(sched-os_start.o)
 .text          0x00000000        0x0 c:/px4/workspace/PX4Firmware/Build/px4io-v1_default.build/nuttx-export/libs\libnuttx.a(sched-sched_garbage.o)
 .data          0x00000000        0x0 c:/px4/workspace/PX4Firmware/Build/px4io-v1_default.build/nuttx-export/libs\libnuttx.a(sched-sched_garbage.o)
 .bss           0x00000000        0x0 c:/px4/workspace/PX4Firmware/Build/px4io-v1_default.build/nuttx-export/libs\libnuttx.a(sched-sched_garbage.o)
 .text          0x00000000        0x0 c:/px4/workspace/PX4Firmware/Build/px4io-v1_default.build/nuttx-export/libs\libnuttx.a(sched-sched_getfiles.o)
 .data          0x00000000        0x0 c:/px4/workspace/PX4Firmware/Build/px4io-v1_default.build/nuttx-export/libs\libnuttx.a(sched-sched_getfiles.o)
 .bss           0x00000000        0x0 c:/px4/workspace/PX4Firmware/Build/px4io-v1_default.build/nuttx-export/libs\libnuttx.a(sched-sched_getfiles.o)
 .text          0x00000000        0x0 c:/px4/workspace/PX4Firmware/Build/px4io-v1_default.build/nuttx-export/libs\libnuttx.a(sched-sem_post.o)
 .data          0x00000000        0x0 c:/px4/workspace/PX4Firmware/Build/px4io-v1_default.build/nuttx-export/libs\libnuttx.a(sched-sem_post.o)
 .bss           0x00000000        0x0 c:/px4/workspace/PX4Firmware/Build/px4io-v1_default.build/nuttx-export/libs\libnuttx.a(sched-sem_post.o)
 .text          0x00000000        0x0 c:/px4/workspace/PX4Firmware/Build/px4io-v1_default.build/nuttx-export/libs\libnuttx.a(sched-sem_trywait.o)
 .data          0x00000000        0x0 c:/px4/workspace/PX4Firmware/Build/px4io-v1_default.build/nuttx-export/libs\libnuttx.a(sched-sem_trywait.o)
 .bss           0x00000000        0x0 c:/px4/workspace/PX4Firmware/Build/px4io-v1_default.build/nuttx-export/libs\libnuttx.a(sched-sem_trywait.o)
 .text          0x00000000        0x0 c:/px4/workspace/PX4Firmware/Build/px4io-v1_default.build/nuttx-export/libs\libnuttx.a(sched-sem_wait.o)
 .data          0x00000000        0x0 c:/px4/workspace/PX4Firmware/Build/px4io-v1_default.build/nuttx-export/libs\libnuttx.a(sched-sem_wait.o)
 .bss           0x00000000        0x0 c:/px4/workspace/PX4Firmware/Build/px4io-v1_default.build/nuttx-export/libs\libnuttx.a(sched-sem_wait.o)
 .text          0x00000000        0x0 c:/px4/workspace/PX4Firmware/Build/px4io-v1_default.build/nuttx-export/libs\libnuttx.a(sched-task_exithook.o)
 .data          0x00000000        0x0 c:/px4/workspace/PX4Firmware/Build/px4io-v1_default.build/nuttx-export/libs\libnuttx.a(sched-task_exithook.o)
 .bss           0x00000000        0x0 c:/px4/workspace/PX4Firmware/Build/px4io-v1_default.build/nuttx-export/libs\libnuttx.a(sched-task_exithook.o)
 .text          0x00000000        0x0 c:/px4/workspace/PX4Firmware/Build/px4io-v1_default.build/nuttx-export/libs\libnuttx.a(sched-task_recover.o)
 .data          0x00000000        0x0 c:/px4/workspace/PX4Firmware/Build/px4io-v1_default.build/nuttx-export/libs\libnuttx.a(sched-task_recover.o)
 .bss           0x00000000        0x0 c:/px4/workspace/PX4Firmware/Build/px4io-v1_default.build/nuttx-export/libs\libnuttx.a(sched-task_recover.o)
 .text          0x00000000        0x0 c:/px4/workspace/PX4Firmware/Build/px4io-v1_default.build/nuttx-export/libs\libnuttx.a(sched-wd_cancel.o)
 .data          0x00000000        0x0 c:/px4/workspace/PX4Firmware/Build/px4io-v1_default.build/nuttx-export/libs\libnuttx.a(sched-wd_cancel.o)
 .bss           0x00000000        0x0 c:/px4/workspace/PX4Firmware/Build/px4io-v1_default.build/nuttx-export/libs\libnuttx.a(sched-wd_cancel.o)
 .text          0x00000000        0x0 c:/px4/workspace/PX4Firmware/Build/px4io-v1_default.build/nuttx-export/libs\libnuttx.a(sched-wd_delete.o)
 .data          0x00000000        0x0 c:/px4/workspace/PX4Firmware/Build/px4io-v1_default.build/nuttx-export/libs\libnuttx.a(sched-wd_delete.o)
 .bss           0x00000000        0x0 c:/px4/workspace/PX4Firmware/Build/px4io-v1_default.build/nuttx-export/libs\libnuttx.a(sched-wd_delete.o)
 .text          0x00000000        0x0 c:/px4/workspace/PX4Firmware/Build/px4io-v1_default.build/nuttx-export/libs\libnuttx.a(sched-wd_initialize.o)
 .data          0x00000000        0x0 c:/px4/workspace/PX4Firmware/Build/px4io-v1_default.build/nuttx-export/libs\libnuttx.a(sched-wd_initialize.o)
 .bss           0x00000000        0x0 c:/px4/workspace/PX4Firmware/Build/px4io-v1_default.build/nuttx-export/libs\libnuttx.a(sched-wd_initialize.o)
 .text          0x00000000        0x0 c:/px4/workspace/PX4Firmware/Build/px4io-v1_default.build/nuttx-export/libs\libnuttx.a(c-dq_addfirst.o)
 .data          0x00000000        0x0 c:/px4/workspace/PX4Firmware/Build/px4io-v1_default.build/nuttx-export/libs\libnuttx.a(c-dq_addfirst.o)
 .bss           0x00000000        0x0 c:/px4/workspace/PX4Firmware/Build/px4io-v1_default.build/nuttx-export/libs\libnuttx.a(c-dq_addfirst.o)
 .text          0x00000000        0x0 c:/px4/workspace/PX4Firmware/Build/px4io-v1_default.build/nuttx-export/libs\libnuttx.a(c-lib_cfgetspeed.o)
 .data          0x00000000        0x0 c:/px4/workspace/PX4Firmware/Build/px4io-v1_default.build/nuttx-export/libs\libnuttx.a(c-lib_cfgetspeed.o)
 .bss           0x00000000        0x0 c:/px4/workspace/PX4Firmware/Build/px4io-v1_default.build/nuttx-export/libs\libnuttx.a(c-lib_cfgetspeed.o)
 .text          0x00000000        0x0 c:/px4/workspace/PX4Firmware/Build/px4io-v1_default.build/nuttx-export/libs\libnuttx.a(c-lib_checkbase.o)
 .data          0x00000000        0x0 c:/px4/workspace/PX4Firmware/Build/px4io-v1_default.build/nuttx-export/libs\libnuttx.a(c-lib_checkbase.o)
 .bss           0x00000000        0x0 c:/px4/workspace/PX4Firmware/Build/px4io-v1_default.build/nuttx-export/libs\libnuttx.a(c-lib_checkbase.o)
 .text          0x00000000        0x0 c:/px4/workspace/PX4Firmware/Build/px4io-v1_default.build/nuttx-export/libs\libnuttx.a(c-lib_isbasedigit.o)
 .data          0x00000000        0x0 c:/px4/workspace/PX4Firmware/Build/px4io-v1_default.build/nuttx-export/libs\libnuttx.a(c-lib_isbasedigit.o)
 .bss           0x00000000        0x0 c:/px4/workspace/PX4Firmware/Build/px4io-v1_default.build/nuttx-export/libs\libnuttx.a(c-lib_isbasedigit.o)
 .text          0x00000000        0x0 c:/px4/workspace/PX4Firmware/Build/px4io-v1_default.build/nuttx-export/libs\libnuttx.a(c-lib_libvsprintf.o)
 .data          0x00000000        0x0 c:/px4/workspace/PX4Firmware/Build/px4io-v1_default.build/nuttx-export/libs\libnuttx.a(c-lib_libvsprintf.o)
 .bss           0x00000000        0x0 c:/px4/workspace/PX4Firmware/Build/px4io-v1_default.build/nuttx-export/libs\libnuttx.a(c-lib_libvsprintf.o)
 .text          0x00000000        0x0 c:/px4/workspace/PX4Firmware/Build/px4io-v1_default.build/nuttx-export/libs\libnuttx.a(c-lib_lowoutstream.o)
 .data          0x00000000        0x0 c:/px4/workspace/PX4Firmware/Build/px4io-v1_default.build/nuttx-export/libs\libnuttx.a(c-lib_lowoutstream.o)
 .bss           0x00000000        0x0 c:/px4/workspace/PX4Firmware/Build/px4io-v1_default.build/nuttx-export/libs\libnuttx.a(c-lib_lowoutstream.o)
 .text          0x00000000        0x0 c:/px4/workspace/PX4Firmware/Build/px4io-v1_default.build/nuttx-export/libs\libnuttx.a(c-lib_memoutstream.o)
 .data          0x00000000        0x0 c:/px4/workspace/PX4Firmware/Build/px4io-v1_default.build/nuttx-export/libs\libnuttx.a(c-lib_memoutstream.o)
 .bss           0x00000000        0x0 c:/px4/workspace/PX4Firmware/Build/px4io-v1_default.build/nuttx-export/libs\libnuttx.a(c-lib_memoutstream.o)
 .text          0x00000000        0x0 c:/px4/workspace/PX4Firmware/Build/px4io-v1_default.build/nuttx-export/libs\libnuttx.a(c-lib_nulloutstream.o)
 .data          0x00000000        0x0 c:/px4/workspace/PX4Firmware/Build/px4io-v1_default.build/nuttx-export/libs\libnuttx.a(c-lib_nulloutstream.o)
 .bss           0x00000000        0x0 c:/px4/workspace/PX4Firmware/Build/px4io-v1_default.build/nuttx-export/libs\libnuttx.a(c-lib_nulloutstream.o)
 .text          0x00000000        0x0 c:/px4/workspace/PX4Firmware/Build/px4io-v1_default.build/nuttx-export/libs\libnuttx.a(c-lib_rawoutstream.o)
 .data          0x00000000        0x0 c:/px4/workspace/PX4Firmware/Build/px4io-v1_default.build/nuttx-export/libs\libnuttx.a(c-lib_rawoutstream.o)
 .bss           0x00000000        0x0 c:/px4/workspace/PX4Firmware/Build/px4io-v1_default.build/nuttx-export/libs\libnuttx.a(c-lib_rawoutstream.o)
 .text.rawoutstream_putc
                0x00000000       0x2c c:/px4/workspace/PX4Firmware/Build/px4io-v1_default.build/nuttx-export/libs\libnuttx.a(c-lib_rawoutstream.o)
 .text.lib_rawoutstream
                0x00000000       0x10 c:/px4/workspace/PX4Firmware/Build/px4io-v1_default.build/nuttx-export/libs\libnuttx.a(c-lib_rawoutstream.o)
 .text          0x00000000        0x0 c:/px4/workspace/PX4Firmware/Build/px4io-v1_default.build/nuttx-export/libs\libnuttx.a(c-lib_skipspace.o)
 .data          0x00000000        0x0 c:/px4/workspace/PX4Firmware/Build/px4io-v1_default.build/nuttx-export/libs\libnuttx.a(c-lib_skipspace.o)
 .bss           0x00000000        0x0 c:/px4/workspace/PX4Firmware/Build/px4io-v1_default.build/nuttx-export/libs\libnuttx.a(c-lib_skipspace.o)
 .text          0x00000000        0x0 c:/px4/workspace/PX4Firmware/Build/px4io-v1_default.build/nuttx-export/libs\libnuttx.a(c-lib_strcpy.o)
 .data          0x00000000        0x0 c:/px4/workspace/PX4Firmware/Build/px4io-v1_default.build/nuttx-export/libs\libnuttx.a(c-lib_strcpy.o)
 .bss           0x00000000        0x0 c:/px4/workspace/PX4Firmware/Build/px4io-v1_default.build/nuttx-export/libs\libnuttx.a(c-lib_strcpy.o)
 .text          0x00000000        0x0 c:/px4/workspace/PX4Firmware/Build/px4io-v1_default.build/nuttx-export/libs\libnuttx.a(c-lib_strlen.o)
 .data          0x00000000        0x0 c:/px4/workspace/PX4Firmware/Build/px4io-v1_default.build/nuttx-export/libs\libnuttx.a(c-lib_strlen.o)
 .bss           0x00000000        0x0 c:/px4/workspace/PX4Firmware/Build/px4io-v1_default.build/nuttx-export/libs\libnuttx.a(c-lib_strlen.o)
 .text          0x00000000        0x0 c:/px4/workspace/PX4Firmware/Build/px4io-v1_default.build/nuttx-export/libs\libnuttx.a(c-sem_init.o)
 .data          0x00000000        0x0 c:/px4/workspace/PX4Firmware/Build/px4io-v1_default.build/nuttx-export/libs\libnuttx.a(c-sem_init.o)
 .bss           0x00000000        0x0 c:/px4/workspace/PX4Firmware/Build/px4io-v1_default.build/nuttx-export/libs\libnuttx.a(c-sem_init.o)
 .text          0x00000000        0x0 c:/px4/workspace/PX4Firmware/Build/px4io-v1_default.build/nuttx-export/libs\libnuttx.a(c-sq_remfirst.o)
 .data          0x00000000        0x0 c:/px4/workspace/PX4Firmware/Build/px4io-v1_default.build/nuttx-export/libs\libnuttx.a(c-sq_remfirst.o)
 .bss           0x00000000        0x0 c:/px4/workspace/PX4Firmware/Build/px4io-v1_default.build/nuttx-export/libs\libnuttx.a(c-sq_remfirst.o)
 .text          0x00000000        0x0 c:/px4/workspace/PX4Firmware/Build/px4io-v1_default.build/nuttx-export/libs\libnuttx.a(mm-mm_addfreechunk.o)
 .data          0x00000000        0x0 c:/px4/workspace/PX4Firmware/Build/px4io-v1_default.build/nuttx-export/libs\libnuttx.a(mm-mm_addfreechunk.o)
 .bss           0x00000000        0x0 c:/px4/workspace/PX4Firmware/Build/px4io-v1_default.build/nuttx-export/libs\libnuttx.a(mm-mm_addfreechunk.o)
 .text          0x00000000        0x0 c:/px4/workspace/PX4Firmware/Build/px4io-v1_default.build/nuttx-export/libs\libnuttx.a(mm-mm_initialize.o)
 .data          0x00000000        0x0 c:/px4/workspace/PX4Firmware/Build/px4io-v1_default.build/nuttx-export/libs\libnuttx.a(mm-mm_initialize.o)
 .bss           0x00000000        0x0 c:/px4/workspace/PX4Firmware/Build/px4io-v1_default.build/nuttx-export/libs\libnuttx.a(mm-mm_initialize.o)
 .text          0x00000000        0x0 c:/px4/workspace/PX4Firmware/Build/px4io-v1_default.build/nuttx-export/libs\libnuttx.a(arch-stm32_allocateheap.o)
 .data          0x00000000        0x0 c:/px4/workspace/PX4Firmware/Build/px4io-v1_default.build/nuttx-export/libs\libnuttx.a(arch-stm32_allocateheap.o)
 .bss           0x00000000        0x0 c:/px4/workspace/PX4Firmware/Build/px4io-v1_default.build/nuttx-export/libs\libnuttx.a(arch-stm32_allocateheap.o)
 .text          0x00000000        0x0 c:/px4/workspace/PX4Firmware/Build/px4io-v1_default.build/nuttx-export/libs\libnuttx.a(arch-stm32_idle.o)
 .data          0x00000000        0x0 c:/px4/workspace/PX4Firmware/Build/px4io-v1_default.build/nuttx-export/libs\libnuttx.a(arch-stm32_idle.o)
 .bss           0x00000000        0x0 c:/px4/workspace/PX4Firmware/Build/px4io-v1_default.build/nuttx-export/libs\libnuttx.a(arch-stm32_idle.o)
 .text          0x00000000        0x0 c:/px4/workspace/PX4Firmware/Build/px4io-v1_default.build/nuttx-export/libs\libnuttx.a(arch-stm32_lowputc.o)
 .data          0x00000000        0x0 c:/px4/workspace/PX4Firmware/Build/px4io-v1_default.build/nuttx-export/libs\libnuttx.a(arch-stm32_lowputc.o)
 .bss           0x00000000        0x0 c:/px4/workspace/PX4Firmware/Build/px4io-v1_default.build/nuttx-export/libs\libnuttx.a(arch-stm32_lowputc.o)
 .text          0x00000000        0x0 c:/px4/workspace/PX4Firmware/Build/px4io-v1_default.build/nuttx-export/libs\libnuttx.a(arch-stm32_rcc.o)
 .data          0x00000000        0x0 c:/px4/workspace/PX4Firmware/Build/px4io-v1_default.build/nuttx-export/libs\libnuttx.a(arch-stm32_rcc.o)
 .bss           0x00000000        0x0 c:/px4/workspace/PX4Firmware/Build/px4io-v1_default.build/nuttx-export/libs\libnuttx.a(arch-stm32_rcc.o)
 .text          0x00000000        0x0 c:/px4/workspace/PX4Firmware/Build/px4io-v1_default.build/nuttx-export/libs\libnuttx.a(arch-stm32_vectors.o)
 .data          0x00000000        0x0 c:/px4/workspace/PX4Firmware/Build/px4io-v1_default.build/nuttx-export/libs\libnuttx.a(arch-stm32_vectors.o)
 .bss           0x00000000        0x0 c:/px4/workspace/PX4Firmware/Build/px4io-v1_default.build/nuttx-export/libs\libnuttx.a(arch-stm32_vectors.o)
 .text          0x00000000        0x0 c:/px4/workspace/PX4Firmware/Build/px4io-v1_default.build/nuttx-export/libs\libnuttx.a(arch-up_blocktask.o)
 .data          0x00000000        0x0 c:/px4/workspace/PX4Firmware/Build/px4io-v1_default.build/nuttx-export/libs\libnuttx.a(arch-up_blocktask.o)
 .bss           0x00000000        0x0 c:/px4/workspace/PX4Firmware/Build/px4io-v1_default.build/nuttx-export/libs\libnuttx.a(arch-up_blocktask.o)
 .text          0x00000000        0x0 c:/px4/workspace/PX4Firmware/Build/px4io-v1_default.build/nuttx-export/libs\libnuttx.a(arch-up_copystate.o)
 .data          0x00000000        0x0 c:/px4/workspace/PX4Firmware/Build/px4io-v1_default.build/nuttx-export/libs\libnuttx.a(arch-up_copystate.o)
 .bss           0x00000000        0x0 c:/px4/workspace/PX4Firmware/Build/px4io-v1_default.build/nuttx-export/libs\libnuttx.a(arch-up_copystate.o)
 .data          0x00000000        0x0 c:/px4/workspace/PX4Firmware/Build/px4io-v1_default.build/nuttx-export/libs\libnuttx.a(arch-up_exception.o)
 .bss           0x00000000        0x0 c:/px4/workspace/PX4Firmware/Build/px4io-v1_default.build/nuttx-export/libs\libnuttx.a(arch-up_exception.o)
 .text          0x00000000        0x0 c:/px4/workspace/PX4Firmware/Build/px4io-v1_default.build/nuttx-export/libs\libnuttx.a(arch-up_exit.o)
 .data          0x00000000        0x0 c:/px4/workspace/PX4Firmware/Build/px4io-v1_default.build/nuttx-export/libs\libnuttx.a(arch-up_exit.o)
 .bss           0x00000000        0x0 c:/px4/workspace/PX4Firmware/Build/px4io-v1_default.build/nuttx-export/libs\libnuttx.a(arch-up_exit.o)
 .data          0x00000000        0x0 c:/px4/workspace/PX4Firmware/Build/px4io-v1_default.build/nuttx-export/libs\libnuttx.a(arch-up_fullcontextrestore.o)
 .bss           0x00000000        0x0 c:/px4/workspace/PX4Firmware/Build/px4io-v1_default.build/nuttx-export/libs\libnuttx.a(arch-up_fullcontextrestore.o)
 .text          0x00000000        0x0 c:/px4/workspace/PX4Firmware/Build/px4io-v1_default.build/nuttx-export/libs\libnuttx.a(arch-up_initialize.o)
 .data          0x00000000        0x0 c:/px4/workspace/PX4Firmware/Build/px4io-v1_default.build/nuttx-export/libs\libnuttx.a(arch-up_initialize.o)
 .bss           0x00000000        0x0 c:/px4/workspace/PX4Firmware/Build/px4io-v1_default.build/nuttx-export/libs\libnuttx.a(arch-up_initialize.o)
 .text          0x00000000        0x0 c:/px4/workspace/PX4Firmware/Build/px4io-v1_default.build/nuttx-export/libs\libnuttx.a(arch-up_initialstate.o)
 .data          0x00000000        0x0 c:/px4/workspace/PX4Firmware/Build/px4io-v1_default.build/nuttx-export/libs\libnuttx.a(arch-up_initialstate.o)
 .bss           0x00000000        0x0 c:/px4/workspace/PX4Firmware/Build/px4io-v1_default.build/nuttx-export/libs\libnuttx.a(arch-up_initialstate.o)
 .text          0x00000000        0x0 c:/px4/workspace/PX4Firmware/Build/px4io-v1_default.build/nuttx-export/libs\libnuttx.a(arch-up_interruptcontext.o)
 .data          0x00000000        0x0 c:/px4/workspace/PX4Firmware/Build/px4io-v1_default.build/nuttx-export/libs\libnuttx.a(arch-up_interruptcontext.o)
 .bss           0x00000000        0x0 c:/px4/workspace/PX4Firmware/Build/px4io-v1_default.build/nuttx-export/libs\libnuttx.a(arch-up_interruptcontext.o)
 .text          0x00000000        0x0 c:/px4/workspace/PX4Firmware/Build/px4io-v1_default.build/nuttx-export/libs\libnuttx.a(arch-up_mdelay.o)
 .data          0x00000000        0x0 c:/px4/workspace/PX4Firmware/Build/px4io-v1_default.build/nuttx-export/libs\libnuttx.a(arch-up_mdelay.o)
 .bss           0x00000000        0x0 c:/px4/workspace/PX4Firmware/Build/px4io-v1_default.build/nuttx-export/libs\libnuttx.a(arch-up_mdelay.o)
 .data          0x00000000        0x0 c:/px4/workspace/PX4Firmware/Build/px4io-v1_default.build/nuttx-export/libs\libnuttx.a(arch-up_switchcontext.o)
 .bss           0x00000000        0x0 c:/px4/workspace/PX4Firmware/Build/px4io-v1_default.build/nuttx-export/libs\libnuttx.a(arch-up_switchcontext.o)
 .text          0x00000000        0x0 c:/px4/workspace/PX4Firmware/Build/px4io-v1_default.build/nuttx-export/libs\libnuttx.a(arch-up_unblocktask.o)
 .data          0x00000000        0x0 c:/px4/workspace/PX4Firmware/Build/px4io-v1_default.build/nuttx-export/libs\libnuttx.a(arch-up_unblocktask.o)
 .bss           0x00000000        0x0 c:/px4/workspace/PX4Firmware/Build/px4io-v1_default.build/nuttx-export/libs\libnuttx.a(arch-up_unblocktask.o)
 .text          0x00000000        0x0 c:/px4/workspace/PX4Firmware/Build/px4io-v1_default.build/nuttx-export/libs\libnuttx.a(fs-fs_files.o)
 .data          0x00000000        0x0 c:/px4/workspace/PX4Firmware/Build/px4io-v1_default.build/nuttx-export/libs\libnuttx.a(fs-fs_files.o)
 .bss           0x00000000        0x0 c:/px4/workspace/PX4Firmware/Build/px4io-v1_default.build/nuttx-export/libs\libnuttx.a(fs-fs_files.o)
 .text          0x00000000        0x0 c:/px4/workspace/PX4Firmware/Build/px4io-v1_default.build/nuttx-export/libs\libnuttx.a(fs-fs_inodeaddref.o)
 .data          0x00000000        0x0 c:/px4/workspace/PX4Firmware/Build/px4io-v1_default.build/nuttx-export/libs\libnuttx.a(fs-fs_inodeaddref.o)
 .bss           0x00000000        0x0 c:/px4/workspace/PX4Firmware/Build/px4io-v1_default.build/nuttx-export/libs\libnuttx.a(fs-fs_inodeaddref.o)
 .text          0x00000000        0x0 c:/px4/workspace/PX4Firmware/Build/px4io-v1_default.build/nuttx-export/libs\libnuttx.a(fs-fs_inodefind.o)
 .data          0x00000000        0x0 c:/px4/workspace/PX4Firmware/Build/px4io-v1_default.build/nuttx-export/libs\libnuttx.a(fs-fs_inodefind.o)
 .bss           0x00000000        0x0 c:/px4/workspace/PX4Firmware/Build/px4io-v1_default.build/nuttx-export/libs\libnuttx.a(fs-fs_inodefind.o)
 .text          0x00000000        0x0 c:/px4/workspace/PX4Firmware/Build/px4io-v1_default.build/nuttx-export/libs\libnuttx.a(fs-fs_inoderelease.o)
 .data          0x00000000        0x0 c:/px4/workspace/PX4Firmware/Build/px4io-v1_default.build/nuttx-export/libs\libnuttx.a(fs-fs_inoderelease.o)
 .bss           0x00000000        0x0 c:/px4/workspace/PX4Firmware/Build/px4io-v1_default.build/nuttx-export/libs\libnuttx.a(fs-fs_inoderelease.o)
 .text          0x00000000        0x0 c:/px4/workspace/PX4Firmware/Build/px4io-v1_default.build/nuttx-export/libs\libnuttx.a(fs-fs_registerdriver.o)
 .data          0x00000000        0x0 c:/px4/workspace/PX4Firmware/Build/px4io-v1_default.build/nuttx-export/libs\libnuttx.a(fs-fs_registerdriver.o)
 .bss           0x00000000        0x0 c:/px4/workspace/PX4Firmware/Build/px4io-v1_default.build/nuttx-export/libs\libnuttx.a(fs-fs_registerdriver.o)
 .text          0x00000000        0x0 c:/px4/workspace/PX4Firmware/Build/px4io-v1_default.build/nuttx-export/libs\libnuttx.a(fs-fs_write.o)
 .data          0x00000000        0x0 c:/px4/workspace/PX4Firmware/Build/px4io-v1_default.build/nuttx-export/libs\libnuttx.a(fs-fs_write.o)
 .bss           0x00000000        0x0 c:/px4/workspace/PX4Firmware/Build/px4io-v1_default.build/nuttx-export/libs\libnuttx.a(fs-fs_write.o)
 .text.write    0x00000000       0x58 c:/px4/workspace/PX4Firmware/Build/px4io-v1_default.build/nuttx-export/libs\libnuttx.a(fs-fs_write.o)
 .text          0x00000000        0x0 c:/px4/workspace/PX4Firmware/Build/px4io-v1_default.build/nuttx-export/libs\libnuttx.a(sched-group_create.o)
 .data          0x00000000        0x0 c:/px4/workspace/PX4Firmware/Build/px4io-v1_default.build/nuttx-export/libs\libnuttx.a(sched-group_create.o)
 .bss           0x00000000        0x0 c:/px4/workspace/PX4Firmware/Build/px4io-v1_default.build/nuttx-export/libs\libnuttx.a(sched-group_create.o)
 .text          0x00000000        0x0 c:/px4/workspace/PX4Firmware/Build/px4io-v1_default.build/nuttx-export/libs\libnuttx.a(sched-group_leave.o)
 .data          0x00000000        0x0 c:/px4/workspace/PX4Firmware/Build/px4io-v1_default.build/nuttx-export/libs\libnuttx.a(sched-group_leave.o)
 .bss           0x00000000        0x0 c:/px4/workspace/PX4Firmware/Build/px4io-v1_default.build/nuttx-export/libs\libnuttx.a(sched-group_leave.o)
 .text          0x00000000        0x0 c:/px4/workspace/PX4Firmware/Build/px4io-v1_default.build/nuttx-export/libs\libnuttx.a(sched-group_setupidlefiles.o)
 .data          0x00000000        0x0 c:/px4/workspace/PX4Firmware/Build/px4io-v1_default.build/nuttx-export/libs\libnuttx.a(sched-group_setupidlefiles.o)
 .bss           0x00000000        0x0 c:/px4/workspace/PX4Firmware/Build/px4io-v1_default.build/nuttx-export/libs\libnuttx.a(sched-group_setupidlefiles.o)
 .text          0x00000000        0x0 c:/px4/workspace/PX4Firmware/Build/px4io-v1_default.build/nuttx-export/libs\libnuttx.a(sched-os_bringup.o)
 .data          0x00000000        0x0 c:/px4/workspace/PX4Firmware/Build/px4io-v1_default.build/nuttx-export/libs\libnuttx.a(sched-os_bringup.o)
 .bss           0x00000000        0x0 c:/px4/workspace/PX4Firmware/Build/px4io-v1_default.build/nuttx-export/libs\libnuttx.a(sched-os_bringup.o)
 .text          0x00000000        0x0 c:/px4/workspace/PX4Firmware/Build/px4io-v1_default.build/nuttx-export/libs\libnuttx.a(sched-sched_addblocked.o)
 .data          0x00000000        0x0 c:/px4/workspace/PX4Firmware/Build/px4io-v1_default.build/nuttx-export/libs\libnuttx.a(sched-sched_addblocked.o)
 .bss           0x00000000        0x0 c:/px4/workspace/PX4Firmware/Build/px4io-v1_default.build/nuttx-export/libs\libnuttx.a(sched-sched_addblocked.o)
 .text          0x00000000        0x0 c:/px4/workspace/PX4Firmware/Build/px4io-v1_default.build/nuttx-export/libs\libnuttx.a(sched-sched_addprioritized.o)
 .data          0x00000000        0x0 c:/px4/workspace/PX4Firmware/Build/px4io-v1_default.build/nuttx-export/libs\libnuttx.a(sched-sched_addprioritized.o)
 .bss           0x00000000        0x0 c:/px4/workspace/PX4Firmware/Build/px4io-v1_default.build/nuttx-export/libs\libnuttx.a(sched-sched_addprioritized.o)
 .text          0x00000000        0x0 c:/px4/workspace/PX4Firmware/Build/px4io-v1_default.build/nuttx-export/libs\libnuttx.a(sched-sched_addreadytorun.o)
 .data          0x00000000        0x0 c:/px4/workspace/PX4Firmware/Build/px4io-v1_default.build/nuttx-export/libs\libnuttx.a(sched-sched_addreadytorun.o)
 .bss           0x00000000        0x0 c:/px4/workspace/PX4Firmware/Build/px4io-v1_default.build/nuttx-export/libs\libnuttx.a(sched-sched_addreadytorun.o)
 .text          0x00000000        0x0 c:/px4/workspace/PX4Firmware/Build/px4io-v1_default.build/nuttx-export/libs\libnuttx.a(sched-sched_free.o)
 .data          0x00000000        0x0 c:/px4/workspace/PX4Firmware/Build/px4io-v1_default.build/nuttx-export/libs\libnuttx.a(sched-sched_free.o)
 .bss           0x00000000        0x0 c:/px4/workspace/PX4Firmware/Build/px4io-v1_default.build/nuttx-export/libs\libnuttx.a(sched-sched_free.o)
 .text          0x00000000        0x0 c:/px4/workspace/PX4Firmware/Build/px4io-v1_default.build/nuttx-export/libs\libnuttx.a(sched-sched_mergepending.o)
 .data          0x00000000        0x0 c:/px4/workspace/PX4Firmware/Build/px4io-v1_default.build/nuttx-export/libs\libnuttx.a(sched-sched_mergepending.o)
 .bss           0x00000000        0x0 c:/px4/workspace/PX4Firmware/Build/px4io-v1_default.build/nuttx-export/libs\libnuttx.a(sched-sched_mergepending.o)
 .text          0x00000000        0x0 c:/px4/workspace/PX4Firmware/Build/px4io-v1_default.build/nuttx-export/libs\libnuttx.a(sched-sched_removeblocked.o)
 .data          0x00000000        0x0 c:/px4/workspace/PX4Firmware/Build/px4io-v1_default.build/nuttx-export/libs\libnuttx.a(sched-sched_removeblocked.o)
 .bss           0x00000000        0x0 c:/px4/workspace/PX4Firmware/Build/px4io-v1_default.build/nuttx-export/libs\libnuttx.a(sched-sched_removeblocked.o)
 .text          0x00000000        0x0 c:/px4/workspace/PX4Firmware/Build/px4io-v1_default.build/nuttx-export/libs\libnuttx.a(sched-sched_removereadytorun.o)
 .data          0x00000000        0x0 c:/px4/workspace/PX4Firmware/Build/px4io-v1_default.build/nuttx-export/libs\libnuttx.a(sched-sched_removereadytorun.o)
 .bss           0x00000000        0x0 c:/px4/workspace/PX4Firmware/Build/px4io-v1_default.build/nuttx-export/libs\libnuttx.a(sched-sched_removereadytorun.o)
 .text          0x00000000        0x0 c:/px4/workspace/PX4Firmware/Build/px4io-v1_default.build/nuttx-export/libs\libnuttx.a(sched-sem_destroy.o)
 .data          0x00000000        0x0 c:/px4/workspace/PX4Firmware/Build/px4io-v1_default.build/nuttx-export/libs\libnuttx.a(sched-sem_destroy.o)
 .bss           0x00000000        0x0 c:/px4/workspace/PX4Firmware/Build/px4io-v1_default.build/nuttx-export/libs\libnuttx.a(sched-sem_destroy.o)
 .text          0x00000000        0x0 c:/px4/workspace/PX4Firmware/Build/px4io-v1_default.build/nuttx-export/libs\libnuttx.a(sched-task_create.o)
 .data          0x00000000        0x0 c:/px4/workspace/PX4Firmware/Build/px4io-v1_default.build/nuttx-export/libs\libnuttx.a(sched-task_create.o)
 .bss           0x00000000        0x0 c:/px4/workspace/PX4Firmware/Build/px4io-v1_default.build/nuttx-export/libs\libnuttx.a(sched-task_create.o)
 .text.kernel_thread
                0x00000000       0x18 c:/px4/workspace/PX4Firmware/Build/px4io-v1_default.build/nuttx-export/libs\libnuttx.a(sched-task_create.o)
 .text          0x00000000        0x0 c:/px4/workspace/PX4Firmware/Build/px4io-v1_default.build/nuttx-export/libs\libnuttx.a(sched-task_exit.o)
 .data          0x00000000        0x0 c:/px4/workspace/PX4Firmware/Build/px4io-v1_default.build/nuttx-export/libs\libnuttx.a(sched-task_exit.o)
 .bss           0x00000000        0x0 c:/px4/workspace/PX4Firmware/Build/px4io-v1_default.build/nuttx-export/libs\libnuttx.a(sched-task_exit.o)
 .text          0x00000000        0x0 c:/px4/workspace/PX4Firmware/Build/px4io-v1_default.build/nuttx-export/libs\libnuttx.a(sched-task_setup.o)
 .data          0x00000000        0x0 c:/px4/workspace/PX4Firmware/Build/px4io-v1_default.build/nuttx-export/libs\libnuttx.a(sched-task_setup.o)
 .bss           0x00000000        0x0 c:/px4/workspace/PX4Firmware/Build/px4io-v1_default.build/nuttx-export/libs\libnuttx.a(sched-task_setup.o)
 .text          0x00000000        0x0 c:/px4/workspace/PX4Firmware/Build/px4io-v1_default.build/nuttx-export/libs\libnuttx.a(sched-task_start.o)
 .data          0x00000000        0x0 c:/px4/workspace/PX4Firmware/Build/px4io-v1_default.build/nuttx-export/libs\libnuttx.a(sched-task_start.o)
 .bss           0x00000000        0x0 c:/px4/workspace/PX4Firmware/Build/px4io-v1_default.build/nuttx-export/libs\libnuttx.a(sched-task_start.o)
 .text          0x00000000        0x0 c:/px4/workspace/PX4Firmware/Build/px4io-v1_default.build/nuttx-export/libs\libnuttx.a(sched-task_terminate.o)
 .data          0x00000000        0x0 c:/px4/workspace/PX4Firmware/Build/px4io-v1_default.build/nuttx-export/libs\libnuttx.a(sched-task_terminate.o)
 .bss           0x00000000        0x0 c:/px4/workspace/PX4Firmware/Build/px4io-v1_default.build/nuttx-export/libs\libnuttx.a(sched-task_terminate.o)
 .text          0x00000000        0x0 c:/px4/workspace/PX4Firmware/Build/px4io-v1_default.build/nuttx-export/libs\libnuttx.a(c-dq_addlast.o)
 .data          0x00000000        0x0 c:/px4/workspace/PX4Firmware/Build/px4io-v1_default.build/nuttx-export/libs\libnuttx.a(c-dq_addlast.o)
 .bss           0x00000000        0x0 c:/px4/workspace/PX4Firmware/Build/px4io-v1_default.build/nuttx-export/libs\libnuttx.a(c-dq_addlast.o)
 .text          0x00000000        0x0 c:/px4/workspace/PX4Firmware/Build/px4io-v1_default.build/nuttx-export/libs\libnuttx.a(c-dq_rem.o)
 .data          0x00000000        0x0 c:/px4/workspace/PX4Firmware/Build/px4io-v1_default.build/nuttx-export/libs\libnuttx.a(c-dq_rem.o)
 .bss           0x00000000        0x0 c:/px4/workspace/PX4Firmware/Build/px4io-v1_default.build/nuttx-export/libs\libnuttx.a(c-dq_rem.o)
 .text          0x00000000        0x0 c:/px4/workspace/PX4Firmware/Build/px4io-v1_default.build/nuttx-export/libs\libnuttx.a(c-lib_strdup.o)
 .data          0x00000000        0x0 c:/px4/workspace/PX4Firmware/Build/px4io-v1_default.build/nuttx-export/libs\libnuttx.a(c-lib_strdup.o)
 .bss           0x00000000        0x0 c:/px4/workspace/PX4Firmware/Build/px4io-v1_default.build/nuttx-export/libs\libnuttx.a(c-lib_strdup.o)
 .text          0x00000000        0x0 c:/px4/workspace/PX4Firmware/Build/px4io-v1_default.build/nuttx-export/libs\libnuttx.a(arch-stm32_timerisr.o)
 .data          0x00000000        0x0 c:/px4/workspace/PX4Firmware/Build/px4io-v1_default.build/nuttx-export/libs\libnuttx.a(arch-stm32_timerisr.o)
 .bss           0x00000000        0x0 c:/px4/workspace/PX4Firmware/Build/px4io-v1_default.build/nuttx-export/libs\libnuttx.a(arch-stm32_timerisr.o)
 .text          0x00000000        0x0 c:/px4/workspace/PX4Firmware/Build/px4io-v1_default.build/nuttx-export/libs\libnuttx.a(arch-up_createstack.o)
 .data          0x00000000        0x0 c:/px4/workspace/PX4Firmware/Build/px4io-v1_default.build/nuttx-export/libs\libnuttx.a(arch-up_createstack.o)
 .bss           0x00000000        0x0 c:/px4/workspace/PX4Firmware/Build/px4io-v1_default.build/nuttx-export/libs\libnuttx.a(arch-up_createstack.o)
 .text          0x00000000        0x0 c:/px4/workspace/PX4Firmware/Build/px4io-v1_default.build/nuttx-export/libs\libnuttx.a(arch-up_doirq.o)
 .data          0x00000000        0x0 c:/px4/workspace/PX4Firmware/Build/px4io-v1_default.build/nuttx-export/libs\libnuttx.a(arch-up_doirq.o)
 .bss           0x00000000        0x0 c:/px4/workspace/PX4Firmware/Build/px4io-v1_default.build/nuttx-export/libs\libnuttx.a(arch-up_doirq.o)
 .text          0x00000000        0x0 c:/px4/workspace/PX4Firmware/Build/px4io-v1_default.build/nuttx-export/libs\libnuttx.a(arch-up_releasestack.o)
 .data          0x00000000        0x0 c:/px4/workspace/PX4Firmware/Build/px4io-v1_default.build/nuttx-export/libs\libnuttx.a(arch-up_releasestack.o)
 .bss           0x00000000        0x0 c:/px4/workspace/PX4Firmware/Build/px4io-v1_default.build/nuttx-export/libs\libnuttx.a(arch-up_releasestack.o)
 .text          0x00000000        0x0 c:/px4/workspace/PX4Firmware/Build/px4io-v1_default.build/nuttx-export/libs\libnuttx.a(fs-fs_close.o)
 .data          0x00000000        0x0 c:/px4/workspace/PX4Firmware/Build/px4io-v1_default.build/nuttx-export/libs\libnuttx.a(fs-fs_close.o)
 .bss           0x00000000        0x0 c:/px4/workspace/PX4Firmware/Build/px4io-v1_default.build/nuttx-export/libs\libnuttx.a(fs-fs_close.o)
 .text          0x00000000        0x0 c:/px4/workspace/PX4Firmware/Build/px4io-v1_default.build/nuttx-export/libs\libnuttx.a(fs-fs_filedup2.o)
 .data          0x00000000        0x0 c:/px4/workspace/PX4Firmware/Build/px4io-v1_default.build/nuttx-export/libs\libnuttx.a(fs-fs_filedup2.o)
 .bss           0x00000000        0x0 c:/px4/workspace/PX4Firmware/Build/px4io-v1_default.build/nuttx-export/libs\libnuttx.a(fs-fs_filedup2.o)
 .text          0x00000000        0x0 c:/px4/workspace/PX4Firmware/Build/px4io-v1_default.build/nuttx-export/libs\libnuttx.a(fs-fs_inode.o)
 .data          0x00000000        0x0 c:/px4/workspace/PX4Firmware/Build/px4io-v1_default.build/nuttx-export/libs\libnuttx.a(fs-fs_inode.o)
 .bss           0x00000000        0x0 c:/px4/workspace/PX4Firmware/Build/px4io-v1_default.build/nuttx-export/libs\libnuttx.a(fs-fs_inode.o)
 .text          0x00000000        0x0 c:/px4/workspace/PX4Firmware/Build/px4io-v1_default.build/nuttx-export/libs\libnuttx.a(fs-fs_inodereserve.o)
 .data          0x00000000        0x0 c:/px4/workspace/PX4Firmware/Build/px4io-v1_default.build/nuttx-export/libs\libnuttx.a(fs-fs_inodereserve.o)
 .bss           0x00000000        0x0 c:/px4/workspace/PX4Firmware/Build/px4io-v1_default.build/nuttx-export/libs\libnuttx.a(fs-fs_inodereserve.o)
 .text          0x00000000        0x0 c:/px4/workspace/PX4Firmware/Build/px4io-v1_default.build/nuttx-export/libs\libnuttx.a(sched-group_setuptaskfiles.o)
 .data          0x00000000        0x0 c:/px4/workspace/PX4Firmware/Build/px4io-v1_default.build/nuttx-export/libs\libnuttx.a(sched-group_setuptaskfiles.o)
 .bss           0x00000000        0x0 c:/px4/workspace/PX4Firmware/Build/px4io-v1_default.build/nuttx-export/libs\libnuttx.a(sched-group_setuptaskfiles.o)
 .text          0x00000000        0x0 c:/px4/workspace/PX4Firmware/Build/px4io-v1_default.build/nuttx-export/libs\libnuttx.a(sched-irq_dispatch.o)
 .data          0x00000000        0x0 c:/px4/workspace/PX4Firmware/Build/px4io-v1_default.build/nuttx-export/libs\libnuttx.a(sched-irq_dispatch.o)
 .bss           0x00000000        0x0 c:/px4/workspace/PX4Firmware/Build/px4io-v1_default.build/nuttx-export/libs\libnuttx.a(sched-irq_dispatch.o)
 .text          0x00000000        0x0 c:/px4/workspace/PX4Firmware/Build/px4io-v1_default.build/nuttx-export/libs\libnuttx.a(sched-sched_gettcb.o)
 .data          0x00000000        0x0 c:/px4/workspace/PX4Firmware/Build/px4io-v1_default.build/nuttx-export/libs\libnuttx.a(sched-sched_gettcb.o)
 .bss           0x00000000        0x0 c:/px4/workspace/PX4Firmware/Build/px4io-v1_default.build/nuttx-export/libs\libnuttx.a(sched-sched_gettcb.o)
 .text          0x00000000        0x0 c:/px4/workspace/PX4Firmware/Build/px4io-v1_default.build/nuttx-export/libs\libnuttx.a(sched-sched_lock.o)
 .data          0x00000000        0x0 c:/px4/workspace/PX4Firmware/Build/px4io-v1_default.build/nuttx-export/libs\libnuttx.a(sched-sched_lock.o)
 .bss           0x00000000        0x0 c:/px4/workspace/PX4Firmware/Build/px4io-v1_default.build/nuttx-export/libs\libnuttx.a(sched-sched_lock.o)
 .text          0x00000000        0x0 c:/px4/workspace/PX4Firmware/Build/px4io-v1_default.build/nuttx-export/libs\libnuttx.a(sched-sched_processtimer.o)
 .data          0x00000000        0x0 c:/px4/workspace/PX4Firmware/Build/px4io-v1_default.build/nuttx-export/libs\libnuttx.a(sched-sched_processtimer.o)
 .bss           0x00000000        0x0 c:/px4/workspace/PX4Firmware/Build/px4io-v1_default.build/nuttx-export/libs\libnuttx.a(sched-sched_processtimer.o)
 .text          0x00000000        0x0 c:/px4/workspace/PX4Firmware/Build/px4io-v1_default.build/nuttx-export/libs\libnuttx.a(sched-sched_releasetcb.o)
 .data          0x00000000        0x0 c:/px4/workspace/PX4Firmware/Build/px4io-v1_default.build/nuttx-export/libs\libnuttx.a(sched-sched_releasetcb.o)
 .bss           0x00000000        0x0 c:/px4/workspace/PX4Firmware/Build/px4io-v1_default.build/nuttx-export/libs\libnuttx.a(sched-sched_releasetcb.o)
 .text          0x00000000        0x0 c:/px4/workspace/PX4Firmware/Build/px4io-v1_default.build/nuttx-export/libs\libnuttx.a(sched-sched_unlock.o)
 .data          0x00000000        0x0 c:/px4/workspace/PX4Firmware/Build/px4io-v1_default.build/nuttx-export/libs\libnuttx.a(sched-sched_unlock.o)
 .bss           0x00000000        0x0 c:/px4/workspace/PX4Firmware/Build/px4io-v1_default.build/nuttx-export/libs\libnuttx.a(sched-sched_unlock.o)
 .text          0x00000000        0x0 c:/px4/workspace/PX4Firmware/Build/px4io-v1_default.build/nuttx-export/libs\libnuttx.a(sched-task_activate.o)
 .data          0x00000000        0x0 c:/px4/workspace/PX4Firmware/Build/px4io-v1_default.build/nuttx-export/libs\libnuttx.a(sched-task_activate.o)
 .bss           0x00000000        0x0 c:/px4/workspace/PX4Firmware/Build/px4io-v1_default.build/nuttx-export/libs\libnuttx.a(sched-task_activate.o)
 .text          0x00000000        0x0 c:/px4/workspace/PX4Firmware/Build/px4io-v1_default.build/nuttx-export/libs\libnuttx.a(arch-up_releasepending.o)
 .data          0x00000000        0x0 c:/px4/workspace/PX4Firmware/Build/px4io-v1_default.build/nuttx-export/libs\libnuttx.a(arch-up_releasepending.o)
 .bss           0x00000000        0x0 c:/px4/workspace/PX4Firmware/Build/px4io-v1_default.build/nuttx-export/libs\libnuttx.a(arch-up_releasepending.o)
 .data          0x00000000        0x0 c:/px4/toolchain/bin/../lib/gcc/arm-none-eabi/4.6.2/armv7-m/libgcc.a(_lshrdi3.o)
 .bss           0x00000000        0x0 c:/px4/toolchain/bin/../lib/gcc/arm-none-eabi/4.6.2/armv7-m/libgcc.a(_lshrdi3.o)
 .data          0x00000000        0x0 c:/px4/toolchain/bin/../lib/gcc/arm-none-eabi/4.6.2/armv7-m/libgcc.a(_arm_addsubsf3.o)
 .bss           0x00000000        0x0 c:/px4/toolchain/bin/../lib/gcc/arm-none-eabi/4.6.2/armv7-m/libgcc.a(_arm_addsubsf3.o)
 .data          0x00000000        0x0 c:/px4/toolchain/bin/../lib/gcc/arm-none-eabi/4.6.2/armv7-m/libgcc.a(_arm_muldivsf3.o)
 .bss           0x00000000        0x0 c:/px4/toolchain/bin/../lib/gcc/arm-none-eabi/4.6.2/armv7-m/libgcc.a(_arm_muldivsf3.o)
 .data          0x00000000        0x0 c:/px4/toolchain/bin/../lib/gcc/arm-none-eabi/4.6.2/armv7-m/libgcc.a(_arm_cmpsf2.o)
 .bss           0x00000000        0x0 c:/px4/toolchain/bin/../lib/gcc/arm-none-eabi/4.6.2/armv7-m/libgcc.a(_arm_cmpsf2.o)
 .data          0x00000000        0x0 c:/px4/toolchain/bin/../lib/gcc/arm-none-eabi/4.6.2/armv7-m/libgcc.a(_arm_fixsfsi.o)
 .bss           0x00000000        0x0 c:/px4/toolchain/bin/../lib/gcc/arm-none-eabi/4.6.2/armv7-m/libgcc.a(_arm_fixsfsi.o)
 .data          0x00000000        0x0 c:/px4/toolchain/bin/../lib/gcc/arm-none-eabi/4.6.2/armv7-m/libgcc.a(_arm_fixunssfsi.o)
 .bss           0x00000000        0x0 c:/px4/toolchain/bin/../lib/gcc/arm-none-eabi/4.6.2/armv7-m/libgcc.a(_arm_fixunssfsi.o)
 .data          0x00000000        0x0 c:/px4/toolchain/bin/../lib/gcc/arm-none-eabi/4.6.2/armv7-m/libgcc.a(_aeabi_uldivmod.o)
 .bss           0x00000000        0x0 c:/px4/toolchain/bin/../lib/gcc/arm-none-eabi/4.6.2/armv7-m/libgcc.a(_aeabi_uldivmod.o)
 .data          0x00000000        0x0 c:/px4/toolchain/bin/../lib/gcc/arm-none-eabi/4.6.2/armv7-m/libgcc.a(bpabi.o)
 .bss           0x00000000        0x0 c:/px4/toolchain/bin/../lib/gcc/arm-none-eabi/4.6.2/armv7-m/libgcc.a(bpabi.o)
 .data          0x00000000        0x0 c:/px4/toolchain/bin/../lib/gcc/arm-none-eabi/4.6.2/armv7-m/libgcc.a(_dvmd_tls.o)
 .bss           0x00000000        0x0 c:/px4/toolchain/bin/../lib/gcc/arm-none-eabi/4.6.2/armv7-m/libgcc.a(_dvmd_tls.o)
 .data          0x00000000        0x0 c:/px4/toolchain/bin/../lib/gcc/arm-none-eabi/4.6.2/armv7-m/libgcc.a(_divdi3.o)
 .bss           0x00000000        0x0 c:/px4/toolchain/bin/../lib/gcc/arm-none-eabi/4.6.2/armv7-m/libgcc.a(_divdi3.o)
 .ARM.extab     0x00000000        0x0 c:/px4/toolchain/bin/../lib/gcc/arm-none-eabi/4.6.2/armv7-m/libgcc.a(_divdi3.o)
 .data          0x00000000        0x0 c:/px4/toolchain/bin/../lib/gcc/arm-none-eabi/4.6.2/armv7-m/libgcc.a(_udivdi3.o)
 .bss           0x00000000        0x0 c:/px4/toolchain/bin/../lib/gcc/arm-none-eabi/4.6.2/armv7-m/libgcc.a(_udivdi3.o)
 .ARM.extab     0x00000000        0x0 c:/px4/toolchain/bin/../lib/gcc/arm-none-eabi/4.6.2/armv7-m/libgcc.a(_udivdi3.o)

Memory Configuration

Name             Origin             Length             Attributes
flash            0x08001000         0x0000f000         xr
sram             0x20000000         0x00002000         xrw
*default*        0x00000000         0xffffffff

Linker script and memory map


.text           0x08001000     0xafd4
                0x08001000                _stext = ABSOLUTE (.)
 *(.vectors)
 .vectors       0x08001000      0x134 c:/px4/workspace/PX4Firmware/Build/px4io-v1_default.build/nuttx-export/libs\libnuttx.a(arch-up_vectors.o)
                0x08001000                _vectors
 *(.text .text.*)
 .text.stm32_boardinitialize
                0x08001134       0x8c c:/px4/workspace/PX4Firmware/Build/px4io-v1_default.build/c/px4/workspace/PX4Firmware/src/drivers/boards/px4io-v1/module.pre.o
                0x08001134                stm32_boardinitialize
 .text.hrt_call_enter
                0x080011c0       0xf0 c:/px4/workspace/PX4Firmware/Build/px4io-v1_default.build/c/px4/workspace/PX4Firmware/src/drivers/stm32/module.pre.o
 .text.hrt_tim_isr
                0x080012b0      0x4d8 c:/px4/workspace/PX4Firmware/Build/px4io-v1_default.build/c/px4/workspace/PX4Firmware/src/drivers/stm32/module.pre.o
 .text.hrt_absolute_time
                0x08001788       0x50 c:/px4/workspace/PX4Firmware/Build/px4io-v1_default.build/c/px4/workspace/PX4Firmware/src/drivers/stm32/module.pre.o
                0x08001788                hrt_absolute_time
 .text.hrt_elapsed_time
                0x080017d8       0x6c c:/px4/workspace/PX4Firmware/Build/px4io-v1_default.build/c/px4/workspace/PX4Firmware/src/drivers/stm32/module.pre.o
                0x080017d8                hrt_elapsed_time
 .text.hrt_init
                0x08001844       0xe4 c:/px4/workspace/PX4Firmware/Build/px4io-v1_default.build/c/px4/workspace/PX4Firmware/src/drivers/stm32/module.pre.o
                0x08001844                hrt_init
 .text.hrt_call_every
                0x08001928       0xa0 c:/px4/workspace/PX4Firmware/Build/px4io-v1_default.build/c/px4/workspace/PX4Firmware/src/drivers/stm32/module.pre.o
                0x08001928                hrt_call_every
 .text.up_pwm_servo_set
                0x080019c8       0x64 c:/px4/workspace/PX4Firmware/Build/px4io-v1_default.build/c/px4/workspace/PX4Firmware/src/drivers/stm32/module.pre.o
                0x080019c8                up_pwm_servo_set
 .text.up_pwm_servo_init
                0x08001a2c      0x6d4 c:/px4/workspace/PX4Firmware/Build/px4io-v1_default.build/c/px4/workspace/PX4Firmware/src/drivers/stm32/module.pre.o
                0x08001a2c                up_pwm_servo_init
 .text.up_pwm_servo_set_rate_group_update
                0x08002100       0x44 c:/px4/workspace/PX4Firmware/Build/px4io-v1_default.build/c/px4/workspace/PX4Firmware/src/drivers/stm32/module.pre.o
                0x08002100                up_pwm_servo_set_rate_group_update
 .text.up_pwm_servo_get_rate_group
                0x08002144       0x9c c:/px4/workspace/PX4Firmware/Build/px4io-v1_default.build/c/px4/workspace/PX4Firmware/src/drivers/stm32/module.pre.o
                0x08002144                up_pwm_servo_get_rate_group
 .text.up_pwm_servo_arm
                0x080021e0       0x68 c:/px4/workspace/PX4Firmware/Build/px4io-v1_default.build/c/px4/workspace/PX4Firmware/src/drivers/stm32/module.pre.o
                0x080021e0                up_pwm_servo_arm
 .text.adc_init
                0x08002248       0xc4 c:/px4/workspace/PX4Firmware/Build/px4io-v1_default.build/c/px4/workspace/PX4Firmware/src/modules/px4iofirmware/module.pre.o
 .text.adc_measure
                0x0800230c       0xa0 c:/px4/workspace/PX4Firmware/Build/px4io-v1_default.build/c/px4/workspace/PX4Firmware/src/modules/px4iofirmware/module.pre.o
 .text.controls_init
                0x080023ac       0xb0 c:/px4/workspace/PX4Firmware/Build/px4io-v1_default.build/c/px4/workspace/PX4Firmware/src/modules/px4iofirmware/module.pre.o
 *fill*         0x0800245c        0x4 00
 .text.controls_tick
                0x08002460      0x6e8 c:/px4/workspace/PX4Firmware/Build/px4io-v1_default.build/c/px4/workspace/PX4Firmware/src/modules/px4iofirmware/module.pre.o
 .text.dsm_guess_format
                0x08002b48      0x254 c:/px4/workspace/PX4Firmware/Build/px4io-v1_default.build/c/px4/workspace/PX4Firmware/src/modules/px4iofirmware/module.pre.o
 .text.dsm_init
                0x08002d9c       0x70 c:/px4/workspace/PX4Firmware/Build/px4io-v1_default.build/c/px4/workspace/PX4Firmware/src/modules/px4iofirmware/module.pre.o
 .text.dsm_bind
                0x08002e0c      0x100 c:/px4/workspace/PX4Firmware/Build/px4io-v1_default.build/c/px4/workspace/PX4Firmware/src/modules/px4iofirmware/module.pre.o
 .text.dsm_input
                0x08002f0c      0x738 c:/px4/workspace/PX4Firmware/Build/px4io-v1_default.build/c/px4/workspace/PX4Firmware/src/modules/px4iofirmware/module.pre.o
 .text.isr_debug
                0x08003644       0x5c c:/px4/workspace/PX4Firmware/Build/px4io-v1_default.build/c/px4/workspace/PX4Firmware/src/modules/px4iofirmware/module.pre.o
 .text.schedule_reboot
                0x080036a0       0x1c c:/px4/workspace/PX4Firmware/Build/px4io-v1_default.build/c/px4/workspace/PX4Firmware/src/modules/px4iofirmware/module.pre.o
 .text.user_start
                0x080036bc      0x33c c:/px4/workspace/PX4Firmware/Build/px4io-v1_default.build/c/px4/workspace/PX4Firmware/src/modules/px4iofirmware/module.pre.o
                0x080036bc                user_start
 .text.pwm_configure_rates
                0x080039f8      0x2fc c:/px4/workspace/PX4Firmware/Build/px4io-v1_default.build/c/px4/workspace/PX4Firmware/src/modules/px4iofirmware/module.pre.o
 .text.registers_set
                0x08003cf4      0x878 c:/px4/workspace/PX4Firmware/Build/px4io-v1_default.build/c/px4/workspace/PX4Firmware/src/modules/px4iofirmware/module.pre.o
 .text.registers_get
                0x0800456c      0x2b4 c:/px4/workspace/PX4Firmware/Build/px4io-v1_default.build/c/px4/workspace/PX4Firmware/src/modules/px4iofirmware/module.pre.o
 .text.safety_check_button
                0x08004820      0x104 c:/px4/workspace/PX4Firmware/Build/px4io-v1_default.build/c/px4/workspace/PX4Firmware/src/modules/px4iofirmware/module.pre.o
 .text.failsafe_blink
                0x08004924       0x3c c:/px4/workspace/PX4Firmware/Build/px4io-v1_default.build/c/px4/workspace/PX4Firmware/src/modules/px4iofirmware/module.pre.o
 .text.safety_init
                0x08004960       0x38 c:/px4/workspace/PX4Firmware/Build/px4io-v1_default.build/c/px4/workspace/PX4Firmware/src/modules/px4iofirmware/module.pre.o
 .text.failsafe_led_init
                0x08004998       0x38 c:/px4/workspace/PX4Firmware/Build/px4io-v1_default.build/c/px4/workspace/PX4Firmware/src/modules/px4iofirmware/module.pre.o
 .text.sbus_init
                0x080049d0       0x80 c:/px4/workspace/PX4Firmware/Build/px4io-v1_default.build/c/px4/workspace/PX4Firmware/src/modules/px4iofirmware/module.pre.o
 .text.sbus_input
                0x08004a50      0x1e0 c:/px4/workspace/PX4Firmware/Build/px4io-v1_default.build/c/px4/workspace/PX4Firmware/src/modules/px4iofirmware/module.pre.o
 .text.up_cxxinitialize
                0x08004c30       0x94 c:/px4/workspace/PX4Firmware/Build/px4io-v1_default.build/c/px4/workspace/PX4Firmware/src/modules/px4iofirmware/module.pre.o
                0x08004c30                up_cxxinitialize
 .text.perf_alloc
                0x08004cc4       0x50 c:/px4/workspace/PX4Firmware/Build/px4io-v1_default.build/c/px4/workspace/PX4Firmware/src/modules/px4iofirmware/module.pre.o
                0x08004cc4                perf_alloc
 .text.perf_count
                0x08004d14       0xa8 c:/px4/workspace/PX4Firmware/Build/px4io-v1_default.build/c/px4/workspace/PX4Firmware/src/modules/px4iofirmware/module.pre.o
                0x08004d14                perf_count
 .text.perf_begin
                0x08004dbc       0x1c c:/px4/workspace/PX4Firmware/Build/px4io-v1_default.build/c/px4/workspace/PX4Firmware/src/modules/px4iofirmware/module.pre.o
                0x08004dbc                perf_begin
 .text.perf_end
                0x08004dd8       0x84 c:/px4/workspace/PX4Firmware/Build/px4io-v1_default.build/c/px4/workspace/PX4Firmware/src/modules/px4iofirmware/module.pre.o
                0x08004dd8                perf_end
 .text._ZL14mixer_callbackjhhRf
                0x08004e5c       0xcc c:/px4/workspace/PX4Firmware/Build/px4io-v1_default.build/c/px4/workspace/PX4Firmware/src/modules/px4iofirmware/module.pre.o
 .text.mixer_tick
                0x08004f28      0x5ac c:/px4/workspace/PX4Firmware/Build/px4io-v1_default.build/c/px4/workspace/PX4Firmware/src/modules/px4iofirmware/module.pre.o
 .text.mixer_handle_text
                0x080054d4      0x2e0 c:/px4/workspace/PX4Firmware/Build/px4io-v1_default.build/c/px4/workspace/PX4Firmware/src/modules/px4iofirmware/module.pre.o
 .text.startup._GLOBAL__sub_I_mixer_tick
                0x080057b4       0x34 c:/px4/workspace/PX4Firmware/Build/px4io-v1_default.build/c/px4/workspace/PX4Firmware/src/modules/px4iofirmware/module.pre.o
 .text._ZN5MixerD2Ev
                0x080057e8        0xc c:/px4/workspace/PX4Firmware/Build/px4io-v1_default.build/c/px4/workspace/PX4Firmware/src/modules/px4iofirmware/module.pre.o
                0x080057e8                Mixer::~Mixer()
                0x080057e8                Mixer::~Mixer()
 .text._ZN9NullMixerD2Ev
                0x080057f4        0xc c:/px4/workspace/PX4Firmware/Build/px4io-v1_default.build/c/px4/workspace/PX4Firmware/src/modules/px4iofirmware/module.pre.o
                0x080057f4                NullMixer::~NullMixer()
                0x080057f4                NullMixer::~NullMixer()
 .text._ZN9NullMixer3mixEPfj
                0x08005800       0x10 c:/px4/workspace/PX4Firmware/Build/px4io-v1_default.build/c/px4/workspace/PX4Firmware/src/modules/px4iofirmware/module.pre.o
                0x08005800                NullMixer::mix(float*, unsigned int)
 .text._ZN9NullMixer15groups_requiredERj
                0x08005810        0x4 c:/px4/workspace/PX4Firmware/Build/px4io-v1_default.build/c/px4/workspace/PX4Firmware/src/modules/px4iofirmware/module.pre.o
                0x08005810                NullMixer::groups_required(unsigned int&)
 .text._ZN9NullMixerD0Ev
                0x08005814       0x14 c:/px4/workspace/PX4Firmware/Build/px4io-v1_default.build/c/px4/workspace/PX4Firmware/src/modules/px4iofirmware/module.pre.o
                0x08005814                NullMixer::~NullMixer()
 .text._ZN5MixerD0Ev
                0x08005828       0x14 c:/px4/workspace/PX4Firmware/Build/px4io-v1_default.build/c/px4/workspace/PX4Firmware/src/modules/px4iofirmware/module.pre.o
                0x08005828                Mixer::~Mixer()
 .text._ZN5MixerC2EPFijhhRfEj
                0x0800583c       0x14 c:/px4/workspace/PX4Firmware/Build/px4io-v1_default.build/c/px4/workspace/PX4Firmware/src/modules/px4iofirmware/module.pre.o
                0x0800583c                Mixer::Mixer(int (*)(unsigned int, unsigned char, unsigned char, float&), unsigned int)
                0x0800583c                Mixer::Mixer(int (*)(unsigned int, unsigned char, unsigned char, float&), unsigned int)
 .text._ZN5Mixer11get_controlEhh
                0x08005850       0x14 c:/px4/workspace/PX4Firmware/Build/px4io-v1_default.build/c/px4/workspace/PX4Firmware/src/modules/px4iofirmware/module.pre.o
                0x08005850                Mixer::get_control(unsigned char, unsigned char)
 .text._ZN5Mixer5scaleERK14mixer_scaler_sf
                0x08005864       0x44 c:/px4/workspace/PX4Firmware/Build/px4io-v1_default.build/c/px4/workspace/PX4Firmware/src/modules/px4iofirmware/module.pre.o
                0x08005864                Mixer::scale(mixer_scaler_s const&, float)
 .text._ZN5Mixer7findtagEPKcRjc
                0x080058a8       0x70 c:/px4/workspace/PX4Firmware/Build/px4io-v1_default.build/c/px4/workspace/PX4Firmware/src/modules/px4iofirmware/module.pre.o
                0x080058a8                Mixer::findtag(char const*, unsigned int&, char)
 .text._ZN5Mixer8skiplineEPKcRj
                0x08005918       0x30 c:/px4/workspace/PX4Firmware/Build/px4io-v1_default.build/c/px4/workspace/PX4Firmware/src/modules/px4iofirmware/module.pre.o
                0x08005918                Mixer::skipline(char const*, unsigned int&)
 .text._ZN9NullMixer9from_textEPKcRj
                0x08005948       0x78 c:/px4/workspace/PX4Firmware/Build/px4io-v1_default.build/c/px4/workspace/PX4Firmware/src/modules/px4iofirmware/module.pre.o
                0x08005948                NullMixer::from_text(char const*, unsigned int&)
 .text._ZN10MixerGroupD2Ev
                0x080059c0       0x30 c:/px4/workspace/PX4Firmware/Build/px4io-v1_default.build/c/px4/workspace/PX4Firmware/src/modules/px4iofirmware/module.pre.o
                0x080059c0                MixerGroup::~MixerGroup()
                0x080059c0                MixerGroup::~MixerGroup()
 .text._ZN10MixerGroup3mixEPfj
                0x080059f0       0x34 c:/px4/workspace/PX4Firmware/Build/px4io-v1_default.build/c/px4/workspace/PX4Firmware/src/modules/px4iofirmware/module.pre.o
                0x080059f0                MixerGroup::mix(float*, unsigned int)
 .text._ZN10MixerGroup15groups_requiredERj
                0x08005a24       0x1c c:/px4/workspace/PX4Firmware/Build/px4io-v1_default.build/c/px4/workspace/PX4Firmware/src/modules/px4iofirmware/module.pre.o
                0x08005a24                MixerGroup::groups_required(unsigned int&)
 .text._ZN10MixerGroupD0Ev
                0x08005a40       0x34 c:/px4/workspace/PX4Firmware/Build/px4io-v1_default.build/c/px4/workspace/PX4Firmware/src/modules/px4iofirmware/module.pre.o
                0x08005a40                MixerGroup::~MixerGroup()
 .text._ZN10MixerGroupC2EPFijhhRfEj
                0x08005a74       0x18 c:/px4/workspace/PX4Firmware/Build/px4io-v1_default.build/c/px4/workspace/PX4Firmware/src/modules/px4iofirmware/module.pre.o
                0x08005a74                MixerGroup::MixerGroup(int (*)(unsigned int, unsigned char, unsigned char, float&), unsigned int)
                0x08005a74                MixerGroup::MixerGroup(int (*)(unsigned int, unsigned char, unsigned char, float&), unsigned int)
 .text._ZN10MixerGroup5resetEv
                0x08005a8c       0x1c c:/px4/workspace/PX4Firmware/Build/px4io-v1_default.build/c/px4/workspace/PX4Firmware/src/modules/px4iofirmware/module.pre.o
                0x08005a8c                MixerGroup::reset()
 .text._ZN10MixerGroup13load_from_bufEPKcRj
                0x08005aa8       0x8c c:/px4/workspace/PX4Firmware/Build/px4io-v1_default.build/c/px4/workspace/PX4Firmware/src/modules/px4iofirmware/module.pre.o
                0x08005aa8                MixerGroup::load_from_buf(char const*, unsigned int&)
 .text._ZN15MultirotorMixerD2Ev
                0x08005b34        0xc c:/px4/workspace/PX4Firmware/Build/px4io-v1_default.build/c/px4/workspace/PX4Firmware/src/modules/px4iofirmware/module.pre.o
                0x08005b34                MultirotorMixer::~MultirotorMixer()
                0x08005b34                MultirotorMixer::~MultirotorMixer()
 .text._ZN15MultirotorMixer15groups_requiredERj
                0x08005b40        0xc c:/px4/workspace/PX4Firmware/Build/px4io-v1_default.build/c/px4/workspace/PX4Firmware/src/modules/px4iofirmware/module.pre.o
                0x08005b40                MultirotorMixer::groups_required(unsigned int&)
 .text._ZN15MultirotorMixer3mixEPfj
                0x08005b4c      0x190 c:/px4/workspace/PX4Firmware/Build/px4io-v1_default.build/c/px4/workspace/PX4Firmware/src/modules/px4iofirmware/module.pre.o
                0x08005b4c                MultirotorMixer::mix(float*, unsigned int)
 .text._ZN15MultirotorMixerD0Ev
                0x08005cdc       0x14 c:/px4/workspace/PX4Firmware/Build/px4io-v1_default.build/c/px4/workspace/PX4Firmware/src/modules/px4iofirmware/module.pre.o
                0x08005cdc                MultirotorMixer::~MultirotorMixer()
 .text._ZN15MultirotorMixer9from_textEPFijhhRfEjPKcRj
                0x08005cf0      0x1e0 c:/px4/workspace/PX4Firmware/Build/px4io-v1_default.build/c/px4/workspace/PX4Firmware/src/modules/px4iofirmware/module.pre.o
                0x08005cf0                MultirotorMixer::from_text(int (*)(unsigned int, unsigned char, unsigned char, float&), unsigned int, char const*, unsigned int&)
 .text._ZN11SimpleMixer15groups_requiredERj
                0x08005ed0       0x2c c:/px4/workspace/PX4Firmware/Build/px4io-v1_default.build/c/px4/workspace/PX4Firmware/src/modules/px4iofirmware/module.pre.o
                0x08005ed0                SimpleMixer::groups_required(unsigned int&)
 .text._ZN11SimpleMixerD2Ev
                0x08005efc       0x20 c:/px4/workspace/PX4Firmware/Build/px4io-v1_default.build/c/px4/workspace/PX4Firmware/src/modules/px4iofirmware/module.pre.o
                0x08005efc                SimpleMixer::~SimpleMixer()
                0x08005efc                SimpleMixer::~SimpleMixer()
 .text._ZN11SimpleMixer3mixEPfj
                0x08005f1c       0x70 c:/px4/workspace/PX4Firmware/Build/px4io-v1_default.build/c/px4/workspace/PX4Firmware/src/modules/px4iofirmware/module.pre.o
                0x08005f1c                SimpleMixer::mix(float*, unsigned int)
 .text._ZN11SimpleMixerD0Ev
                0x08005f8c       0x28 c:/px4/workspace/PX4Firmware/Build/px4io-v1_default.build/c/px4/workspace/PX4Firmware/src/modules/px4iofirmware/module.pre.o
                0x08005f8c                SimpleMixer::~SimpleMixer()
 .text._ZN11SimpleMixer19parse_output_scalerEPKcRjR14mixer_scaler_s
                0x08005fb4       0xcc c:/px4/workspace/PX4Firmware/Build/px4io-v1_default.build/c/px4/workspace/PX4Firmware/src/modules/px4iofirmware/module.pre.o
                0x08005fb4                SimpleMixer::parse_output_scaler(char const*, unsigned int&, mixer_scaler_s&)
 .text._ZN11SimpleMixer20parse_control_scalerEPKcRjR14mixer_scaler_sRhS5_
                0x08006080       0xdc c:/px4/workspace/PX4Firmware/Build/px4io-v1_default.build/c/px4/workspace/PX4Firmware/src/modules/px4iofirmware/module.pre.o
                0x08006080                SimpleMixer::parse_control_scaler(char const*, unsigned int&, mixer_scaler_s&, unsigned char&, unsigned char&)
 .text._ZN11SimpleMixer9from_textEPFijhhRfEjPKcRj
                0x0800615c       0xc0 c:/px4/workspace/PX4Firmware/Build/px4io-v1_default.build/c/px4/workspace/PX4Firmware/src/modules/px4iofirmware/module.pre.o
                0x0800615c                SimpleMixer::from_text(int (*)(unsigned int, unsigned char, unsigned char, float&), unsigned int, char const*, unsigned int&)
 .text.pwm_limit_init
                0x0800621c       0x10 c:/px4/workspace/PX4Firmware/Build/px4io-v1_default.build/c/px4/workspace/PX4Firmware/src/modules/px4iofirmware/module.pre.o
                0x0800621c                pwm_limit_init
 *fill*         0x0800622c        0x4 00
 .text.pwm_limit_calc
                0x08006230      0x568 c:/px4/workspace/PX4Firmware/Build/px4io-v1_default.build/c/px4/workspace/PX4Firmware/src/modules/px4iofirmware/module.pre.o
                0x08006230                pwm_limit_calc
 .text.i2c_interrupt
                0x08006798      0x1ec c:/px4/workspace/PX4Firmware/Build/px4io-v1_default.build/c/px4/workspace/PX4Firmware/src/modules/px4iofirmware/module.pre.o
 .text.interface_init
                0x08006984      0x180 c:/px4/workspace/PX4Firmware/Build/px4io-v1_default.build/c/px4/workspace/PX4Firmware/src/modules/px4iofirmware/module.pre.o
 .text.irq_attach
                0x08006b04       0x38 c:/px4/workspace/PX4Firmware/Build/px4io-v1_default.build/nuttx-export/libs\libnuttx.a(sched-irq_attach.o)
                0x08006b04                irq_attach
 .text.irq_initialize
                0x08006b3c       0x1c c:/px4/workspace/PX4Firmware/Build/px4io-v1_default.build/nuttx-export/libs\libnuttx.a(sched-irq_initialize.o)
                0x08006b3c                irq_initialize
 .text.irq_unexpected_isr
                0x08006b58       0x14 c:/px4/workspace/PX4Firmware/Build/px4io-v1_default.build/nuttx-export/libs\libnuttx.a(sched-irq_unexpectedisr.o)
                0x08006b58                irq_unexpected_isr
 .text.abort    0x08006b6c        0x8 c:/px4/workspace/PX4Firmware/Build/px4io-v1_default.build/nuttx-export/libs\libnuttx.a(c-lib_abort.o)
                0x08006b6c                abort
 .text.cfsetspeed
                0x08006b74        0x6 c:/px4/workspace/PX4Firmware/Build/px4io-v1_default.build/nuttx-export/libs\libnuttx.a(c-lib_cfsetspeed.o)
                0x08006b74                cfsetspeed
 *fill*         0x08006b7a        0x2 00
 .text.crc32part
                0x08006b7c       0x28 c:/px4/workspace/PX4Firmware/Build/px4io-v1_default.build/nuttx-export/libs\libnuttx.a(c-lib_crc32.o)
                0x08006b7c                crc32part
 .text.lowvsyslog
                0x08006ba4       0x18 c:/px4/workspace/PX4Firmware/Build/px4io-v1_default.build/nuttx-export/libs\libnuttx.a(c-lib_lowsyslog.o)
                0x08006ba4                lowvsyslog
 .text.lowsyslog
                0x08006bbc       0x18 c:/px4/workspace/PX4Firmware/Build/px4io-v1_default.build/nuttx-export/libs\libnuttx.a(c-lib_lowsyslog.o)
                0x08006bbc                lowsyslog
 .text.memchr   0x08006bd4       0x1c c:/px4/workspace/PX4Firmware/Build/px4io-v1_default.build/nuttx-export/libs\libnuttx.a(c-lib_memchr.o)
                0x08006bd4                memchr
 .text.memcpy   0x08006bf0       0x12 c:/px4/workspace/PX4Firmware/Build/px4io-v1_default.build/nuttx-export/libs\libnuttx.a(c-lib_memcpy.o)
                0x08006bf0                memcpy
 .text.memset   0x08006c02        0xe c:/px4/workspace/PX4Firmware/Build/px4io-v1_default.build/nuttx-export/libs\libnuttx.a(c-lib_memset.o)
                0x08006c02                memset
 .text.findwidth
                0x08006c10       0x40 c:/px4/workspace/PX4Firmware/Build/px4io-v1_default.build/nuttx-export/libs\libnuttx.a(c-lib_sscanf.o)
 .text.vsscanf  0x08006c50      0x370 c:/px4/workspace/PX4Firmware/Build/px4io-v1_default.build/nuttx-export/libs\libnuttx.a(c-lib_sscanf.o)
                0x08006c50                vsscanf
 .text.sscanf   0x08006fc0       0x18 c:/px4/workspace/PX4Firmware/Build/px4io-v1_default.build/nuttx-export/libs\libnuttx.a(c-lib_sscanf.o)
                0x08006fc0                sscanf
 .text.strchr   0x08006fd8       0x14 c:/px4/workspace/PX4Firmware/Build/px4io-v1_default.build/nuttx-export/libs\libnuttx.a(c-lib_strchr.o)
                0x08006fd8                strchr
 .text.strcmp   0x08006fec       0x16 c:/px4/workspace/PX4Firmware/Build/px4io-v1_default.build/nuttx-export/libs\libnuttx.a(c-lib_strcmp.o)
                0x08006fec                strcmp
 .text.strcspn  0x08007002       0x1e c:/px4/workspace/PX4Firmware/Build/px4io-v1_default.build/nuttx-export/libs\libnuttx.a(c-lib_strcspn.o)
                0x08007002                strcspn
 .text.strncpy  0x08007020       0x24 c:/px4/workspace/PX4Firmware/Build/px4io-v1_default.build/nuttx-export/libs\libnuttx.a(c-lib_strncpy.o)
                0x08007020                strncpy
 .text.strtol   0x08007044       0x3a c:/px4/workspace/PX4Firmware/Build/px4io-v1_default.build/nuttx-export/libs\libnuttx.a(c-lib_strtol.o)
                0x08007044                strtol
 .text.strtoul  0x0800707e       0x48 c:/px4/workspace/PX4Firmware/Build/px4io-v1_default.build/nuttx-export/libs\libnuttx.a(c-lib_strtoul.o)
                0x0800707e                strtoul
 .text.tcgetattr
                0x080070c6        0xa c:/px4/workspace/PX4Firmware/Build/px4io-v1_default.build/nuttx-export/libs\libnuttx.a(c-lib_tcgetattr.o)
                0x080070c6                tcgetattr
 .text.tcsetattr
                0x080070d0       0x10 c:/px4/workspace/PX4Firmware/Build/px4io-v1_default.build/nuttx-export/libs\libnuttx.a(c-lib_tcsetattr.o)
                0x080070d0                tcsetattr
 .text.vsnprintf
                0x080070e0       0x24 c:/px4/workspace/PX4Firmware/Build/px4io-v1_default.build/nuttx-export/libs\libnuttx.a(c-lib_vsnprintf.o)
                0x080070e0                vsnprintf
 .text.sq_addafter
                0x08007104       0x1c c:/px4/workspace/PX4Firmware/Build/px4io-v1_default.build/nuttx-export/libs\libnuttx.a(c-sq_addafter.o)
                0x08007104                sq_addafter
 .text.sq_addfirst
                0x08007120        0xe c:/px4/workspace/PX4Firmware/Build/px4io-v1_default.build/nuttx-export/libs\libnuttx.a(c-sq_addfirst.o)
                0x08007120                sq_addfirst
 .text.sq_addlast
                0x0800712e       0x14 c:/px4/workspace/PX4Firmware/Build/px4io-v1_default.build/nuttx-export/libs\libnuttx.a(c-sq_addlast.o)
                0x0800712e                sq_addlast
 .text.sq_rem   0x08007142       0x2c c:/px4/workspace/PX4Firmware/Build/px4io-v1_default.build/nuttx-export/libs\libnuttx.a(c-sq_rem.o)
                0x08007142                sq_rem
 .text.sq_remafter
                0x0800716e       0x22 c:/px4/workspace/PX4Firmware/Build/px4io-v1_default.build/nuttx-export/libs\libnuttx.a(c-sq_remafter.o)
                0x0800716e                sq_remafter
 .text.calloc   0x08007190        0xe c:/px4/workspace/PX4Firmware/Build/px4io-v1_default.build/nuttx-export/libs\libnuttx.a(mm-mm_calloc.o)
                0x08007190                calloc
 *fill*         0x0800719e        0x2 00
 .text.free     0x080071a0       0xa8 c:/px4/workspace/PX4Firmware/Build/px4io-v1_default.build/nuttx-export/libs\libnuttx.a(mm-mm_free.o)
                0x080071a0                free
 .text.mallinfo
                0x08007248       0x64 c:/px4/workspace/PX4Firmware/Build/px4io-v1_default.build/nuttx-export/libs\libnuttx.a(mm-mm_mallinfo.o)
                0x08007248                mallinfo
 .text.malloc   0x080072ac       0x98 c:/px4/workspace/PX4Firmware/Build/px4io-v1_default.build/nuttx-export/libs\libnuttx.a(mm-mm_malloc.o)
                0x080072ac                malloc
 .text.mm_seminitialize
                0x08007344       0x18 c:/px4/workspace/PX4Firmware/Build/px4io-v1_default.build/nuttx-export/libs\libnuttx.a(mm-mm_sem.o)
                0x08007344                mm_seminitialize
 .text.mm_trysemaphore
                0x0800735c       0x32 c:/px4/workspace/PX4Firmware/Build/px4io-v1_default.build/nuttx-export/libs\libnuttx.a(mm-mm_sem.o)
                0x0800735c                mm_trysemaphore
 *fill*         0x0800738e        0x2 00
 .text.mm_takesemaphore
                0x08007390       0x40 c:/px4/workspace/PX4Firmware/Build/px4io-v1_default.build/nuttx-export/libs\libnuttx.a(mm-mm_sem.o)
                0x08007390                mm_takesemaphore
 .text.mm_givesemaphore
                0x080073d0       0x2c c:/px4/workspace/PX4Firmware/Build/px4io-v1_default.build/nuttx-export/libs\libnuttx.a(mm-mm_sem.o)
                0x080073d0                mm_givesemaphore
 .text.mm_size2ndx
                0x080073fc       0x1a c:/px4/workspace/PX4Firmware/Build/px4io-v1_default.build/nuttx-export/libs\libnuttx.a(mm-mm_size2ndx.o)
                0x080073fc                mm_size2ndx
 *fill*         0x08007416        0x2 00
 .text.umm_initialize
                0x08007418       0x10 c:/px4/workspace/PX4Firmware/Build/px4io-v1_default.build/nuttx-export/libs\libnuttx.a(mm-mm_user.o)
                0x08007418                umm_initialize
 .text.umm_trysemaphore
                0x08007428        0xc c:/px4/workspace/PX4Firmware/Build/px4io-v1_default.build/nuttx-export/libs\libnuttx.a(mm-mm_user.o)
                0x08007428                umm_trysemaphore
 .text.umm_givesemaphore
                0x08007434        0xc c:/px4/workspace/PX4Firmware/Build/px4io-v1_default.build/nuttx-export/libs\libnuttx.a(mm-mm_user.o)
                0x08007434                umm_givesemaphore
 .text.zalloc   0x08007440       0x18 c:/px4/workspace/PX4Firmware/Build/px4io-v1_default.build/nuttx-export/libs\libnuttx.a(mm-mm_zalloc.o)
                0x08007440                zalloc
 .text.stm32_dmachandisable
                0x08007458       0x22 c:/px4/workspace/PX4Firmware/Build/px4io-v1_default.build/nuttx-export/libs\libnuttx.a(arch-stm32_dma.o)
 *fill*         0x0800747a        0x2 00
 .text.stm32_dmainterrupt
                0x0800747c       0x54 c:/px4/workspace/PX4Firmware/Build/px4io-v1_default.build/nuttx-export/libs\libnuttx.a(arch-stm32_dma.o)
 .text.up_dmainitialize
                0x080074d0       0x40 c:/px4/workspace/PX4Firmware/Build/px4io-v1_default.build/nuttx-export/libs\libnuttx.a(arch-stm32_dma.o)
                0x080074d0                up_dmainitialize
 .text.stm32_dmachannel
                0x08007510       0x34 c:/px4/workspace/PX4Firmware/Build/px4io-v1_default.build/nuttx-export/libs\libnuttx.a(arch-stm32_dma.o)
                0x08007510                stm32_dmachannel
 .text.stm32_dmafree
                0x08007544        0x6 c:/px4/workspace/PX4Firmware/Build/px4io-v1_default.build/nuttx-export/libs\libnuttx.a(arch-stm32_dma.o)
                0x08007544                stm32_dmafree
 .text.stm32_dmasetup
                0x0800754a       0x28 c:/px4/workspace/PX4Firmware/Build/px4io-v1_default.build/nuttx-export/libs\libnuttx.a(arch-stm32_dma.o)
                0x0800754a                stm32_dmasetup
 .text.stm32_dmastart
                0x08007572       0x28 c:/px4/workspace/PX4Firmware/Build/px4io-v1_default.build/nuttx-export/libs\libnuttx.a(arch-stm32_dma.o)
                0x08007572                stm32_dmastart
 .text.stm32_dmastop
                0x0800759a        0x4 c:/px4/workspace/PX4Firmware/Build/px4io-v1_default.build/nuttx-export/libs\libnuttx.a(arch-stm32_dma.o)
                0x0800759a                stm32_dmastop
 .text.stm32_dmaresidual
                0x0800759e        0x6 c:/px4/workspace/PX4Firmware/Build/px4io-v1_default.build/nuttx-export/libs\libnuttx.a(arch-stm32_dma.o)
                0x0800759e                stm32_dmaresidual
 .text.stm32_gpioinit
                0x080075a4        0xc c:/px4/workspace/PX4Firmware/Build/px4io-v1_default.build/nuttx-export/libs\libnuttx.a(arch-stm32_gpio.o)
                0x080075a4                stm32_gpioinit
 .text.stm32_configgpio
                0x080075b0       0xe0 c:/px4/workspace/PX4Firmware/Build/px4io-v1_default.build/nuttx-export/libs\libnuttx.a(arch-stm32_gpio.o)
                0x080075b0                stm32_configgpio
 .text.stm32_gpiowrite
                0x08007690       0x28 c:/px4/workspace/PX4Firmware/Build/px4io-v1_default.build/nuttx-export/libs\libnuttx.a(arch-stm32_gpio.o)
                0x08007690                stm32_gpiowrite
 .text.stm32_gpioread
                0x080076b8       0x2c c:/px4/workspace/PX4Firmware/Build/px4io-v1_default.build/nuttx-export/libs\libnuttx.a(arch-stm32_gpio.o)
                0x080076b8                stm32_gpioread
 .text.stm32_irqinfo
                0x080076e4       0x74 c:/px4/workspace/PX4Firmware/Build/px4io-v1_default.build/nuttx-export/libs\libnuttx.a(arch-stm32_irq.o)
 .text.up_irqinitialize
                0x08007758       0x68 c:/px4/workspace/PX4Firmware/Build/px4io-v1_default.build/nuttx-export/libs\libnuttx.a(arch-stm32_irq.o)
                0x08007758                up_irqinitialize
 .text.up_disable_irq
                0x080077c0       0x1a c:/px4/workspace/PX4Firmware/Build/px4io-v1_default.build/nuttx-export/libs\libnuttx.a(arch-stm32_irq.o)
                0x080077c0                up_disable_irq
 .text.up_enable_irq
                0x080077da       0x18 c:/px4/workspace/PX4Firmware/Build/px4io-v1_default.build/nuttx-export/libs\libnuttx.a(arch-stm32_irq.o)
                0x080077da                up_enable_irq
 .text.up_maskack_irq
                0x080077f2        0x4 c:/px4/workspace/PX4Firmware/Build/px4io-v1_default.build/nuttx-export/libs\libnuttx.a(arch-stm32_irq.o)
                0x080077f2                up_maskack_irq
 *fill*         0x080077f6        0x2 00
 .text.up_prioritize_irq
                0x080077f8       0x44 c:/px4/workspace/PX4Firmware/Build/px4io-v1_default.build/nuttx-export/libs\libnuttx.a(arch-stm32_irq.o)
                0x080077f8                up_prioritize_irq
 .text.up_restoreusartint
                0x0800783c       0x26 c:/px4/workspace/PX4Firmware/Build/px4io-v1_default.build/nuttx-export/libs\libnuttx.a(arch-stm32_serial.o)
 .text.up_disableusartint
                0x08007862       0x20 c:/px4/workspace/PX4Firmware/Build/px4io-v1_default.build/nuttx-export/libs\libnuttx.a(arch-stm32_serial.o)
 .text.up_set_format
                0x08007882       0x5e c:/px4/workspace/PX4Firmware/Build/px4io-v1_default.build/nuttx-export/libs\libnuttx.a(arch-stm32_serial.o)
 .text.up_shutdown
                0x080078e0       0x1c c:/px4/workspace/PX4Firmware/Build/px4io-v1_default.build/nuttx-export/libs\libnuttx.a(arch-stm32_serial.o)
 .text.up_receive
                0x080078fc       0x16 c:/px4/workspace/PX4Firmware/Build/px4io-v1_default.build/nuttx-export/libs\libnuttx.a(arch-stm32_serial.o)
 .text.up_rxint
                0x08007912       0x28 c:/px4/workspace/PX4Firmware/Build/px4io-v1_default.build/nuttx-export/libs\libnuttx.a(arch-stm32_serial.o)
 .text.up_rxavailable
                0x0800793a        0xc c:/px4/workspace/PX4Firmware/Build/px4io-v1_default.build/nuttx-export/libs\libnuttx.a(arch-stm32_serial.o)
 .text.up_dma_rxint
                0x08007946        0x8 c:/px4/workspace/PX4Firmware/Build/px4io-v1_default.build/nuttx-export/libs\libnuttx.a(arch-stm32_serial.o)
 .text.up_send  0x0800794e        0x8 c:/px4/workspace/PX4Firmware/Build/px4io-v1_default.build/nuttx-export/libs\libnuttx.a(arch-stm32_serial.o)
 .text.up_txready
                0x08007956        0xc c:/px4/workspace/PX4Firmware/Build/px4io-v1_default.build/nuttx-export/libs\libnuttx.a(arch-stm32_serial.o)
 .text.up_setup
                0x08007962       0x68 c:/px4/workspace/PX4Firmware/Build/px4io-v1_default.build/nuttx-export/libs\libnuttx.a(arch-stm32_serial.o)
 .text.up_txint
                0x080079ca       0x36 c:/px4/workspace/PX4Firmware/Build/px4io-v1_default.build/nuttx-export/libs\libnuttx.a(arch-stm32_serial.o)
 .text.up_dma_rxavailable
                0x08007a00       0x18 c:/px4/workspace/PX4Firmware/Build/px4io-v1_default.build/nuttx-export/libs\libnuttx.a(arch-stm32_serial.o)
 .text.up_dma_receive
                0x08007a18       0x2a c:/px4/workspace/PX4Firmware/Build/px4io-v1_default.build/nuttx-export/libs\libnuttx.a(arch-stm32_serial.o)
 .text.up_ioctl
                0x08007a42       0xa6 c:/px4/workspace/PX4Firmware/Build/px4io-v1_default.build/nuttx-export/libs\libnuttx.a(arch-stm32_serial.o)
 .text.up_detach
                0x08007ae8       0x1a c:/px4/workspace/PX4Firmware/Build/px4io-v1_default.build/nuttx-export/libs\libnuttx.a(arch-stm32_serial.o)
 .text.up_attach
                0x08007b02       0x1e c:/px4/workspace/PX4Firmware/Build/px4io-v1_default.build/nuttx-export/libs\libnuttx.a(arch-stm32_serial.o)
 .text.up_dma_shutdown
                0x08007b20       0x1a c:/px4/workspace/PX4Firmware/Build/px4io-v1_default.build/nuttx-export/libs\libnuttx.a(arch-stm32_serial.o)
 *fill*         0x08007b3a        0x2 00
 .text.up_dma_setup
                0x08007b3c       0x4c c:/px4/workspace/PX4Firmware/Build/px4io-v1_default.build/nuttx-export/libs\libnuttx.a(arch-stm32_serial.o)
 .text.up_interrupt_common
                0x08007b88       0x4e c:/px4/workspace/PX4Firmware/Build/px4io-v1_default.build/nuttx-export/libs\libnuttx.a(arch-stm32_serial.o)
 *fill*         0x08007bd6        0x2 00
 .text.up_interrupt_usart3
                0x08007bd8        0xc c:/px4/workspace/PX4Firmware/Build/px4io-v1_default.build/nuttx-export/libs\libnuttx.a(arch-stm32_serial.o)
 .text.up_interrupt_usart2
                0x08007be4        0xc c:/px4/workspace/PX4Firmware/Build/px4io-v1_default.build/nuttx-export/libs\libnuttx.a(arch-stm32_serial.o)
 .text.up_interrupt_usart1
                0x08007bf0        0xc c:/px4/workspace/PX4Firmware/Build/px4io-v1_default.build/nuttx-export/libs\libnuttx.a(arch-stm32_serial.o)
 .text.up_dma_rxcallback.part.0
                0x08007bfc       0x16 c:/px4/workspace/PX4Firmware/Build/px4io-v1_default.build/nuttx-export/libs\libnuttx.a(arch-stm32_serial.o)
 .text.up_dma_rxcallback
                0x08007c12        0xe c:/px4/workspace/PX4Firmware/Build/px4io-v1_default.build/nuttx-export/libs\libnuttx.a(arch-stm32_serial.o)
 .text.up_earlyserialinit
                0x08007c20       0x28 c:/px4/workspace/PX4Firmware/Build/px4io-v1_default.build/nuttx-export/libs\libnuttx.a(arch-stm32_serial.o)
                0x08007c20                up_earlyserialinit
 .text.up_serialinit
                0x08007c48       0x60 c:/px4/workspace/PX4Firmware/Build/px4io-v1_default.build/nuttx-export/libs\libnuttx.a(arch-stm32_serial.o)
                0x08007c48                up_serialinit
 .text.stm32_serial_dma_poll
                0x08007ca8       0x3c c:/px4/workspace/PX4Firmware/Build/px4io-v1_default.build/nuttx-export/libs\libnuttx.a(arch-stm32_serial.o)
                0x08007ca8                stm32_serial_dma_poll
 .text.up_putc  0x08007ce4       0x30 c:/px4/workspace/PX4Firmware/Build/px4io-v1_default.build/nuttx-export/libs\libnuttx.a(arch-stm32_serial.o)
                0x08007ce4                up_putc
 .text.__start  0x08007d14       0x54 c:/px4/workspace/PX4Firmware/Build/px4io-v1_default.build/nuttx-export/libs\libnuttx.a(arch-stm32_start.o)
                0x08007d14                __start
 .text.up_assert
                0x08007d68      0x148 c:/px4/workspace/PX4Firmware/Build/px4io-v1_default.build/nuttx-export/libs\libnuttx.a(arch-up_assert.o)
                0x08007d68                up_assert
 .text.up_hardfault
                0x08007eb0       0x40 c:/px4/workspace/PX4Firmware/Build/px4io-v1_default.build/nuttx-export/libs\libnuttx.a(arch-up_hardfault.o)
                0x08007eb0                up_hardfault
 .text.modifyreg32
                0x08007ef0       0x1c c:/px4/workspace/PX4Firmware/Build/px4io-v1_default.build/nuttx-export/libs\libnuttx.a(arch-up_modifyreg32.o)
                0x08007ef0                modifyreg32
 .text.up_svcall
                0x08007f0c       0x38 c:/px4/workspace/PX4Firmware/Build/px4io-v1_default.build/nuttx-export/libs\libnuttx.a(arch-up_svcall.o)
                0x08007f0c                up_svcall
 .text.up_systemreset
                0x08007f44       0x1c c:/px4/workspace/PX4Firmware/Build/px4io-v1_default.build/nuttx-export/libs\libnuttx.a(arch-up_systemreset.o)
                0x08007f44                up_systemreset
 .text.up_udelay
                0x08007f60       0x7c c:/px4/workspace/PX4Firmware/Build/px4io-v1_default.build/nuttx-export/libs\libnuttx.a(arch-up_udelay.o)
                0x08007f60                up_udelay
 .text.__cxa_atexit
                0x08007fdc        0x4 c:/px4/workspace/PX4Firmware/Build/px4io-v1_default.build/nuttx-export/libs\libnuttx.a(cxx-libxx_cxa_atexit.o)
                0x08007fdc                __cxa_atexit
 .text.__cxa_pure_virtual
                0x08007fe0       0x10 c:/px4/workspace/PX4Firmware/Build/px4io-v1_default.build/nuttx-export/libs\libnuttx.a(cxx-libxx_cxapurevirtual.o)
                0x08007fe0                __cxa_pure_virtual
 .text._ZdlPv   0x08007ff0        0x4 c:/px4/workspace/PX4Firmware/Build/px4io-v1_default.build/nuttx-export/libs\libnuttx.a(cxx-libxx_delete.o)
                0x08007ff0                operator delete(void*)
 .text.__aeabi_atexit
                0x08007ff4        0xa c:/px4/workspace/PX4Firmware/Build/px4io-v1_default.build/nuttx-export/libs\libnuttx.a(cxx-libxx_eabi_atexit.o)
                0x08007ff4                __aeabi_atexit
 .text._Znwj    0x08007ffe        0xa c:/px4/workspace/PX4Firmware/Build/px4io-v1_default.build/nuttx-export/libs\libnuttx.a(cxx-libxx_new.o)
                0x08007ffe                operator new(unsigned int)
 .text.ioctl    0x08008008       0x4c c:/px4/workspace/PX4Firmware/Build/px4io-v1_default.build/nuttx-export/libs\libnuttx.a(fs-fs_ioctl.o)
                0x08008008                ioctl
 .text.inode_checkflags
                0x08008054       0x2a c:/px4/workspace/PX4Firmware/Build/px4io-v1_default.build/nuttx-export/libs\libnuttx.a(fs-fs_open.o)
                0x08008054                inode_checkflags
 .text.open     0x0800807e       0x94 c:/px4/workspace/PX4Firmware/Build/px4io-v1_default.build/nuttx-export/libs\libnuttx.a(fs-fs_open.o)
                0x0800807e                open
 .text.read     0x08008112       0x62 c:/px4/workspace/PX4Firmware/Build/px4io-v1_default.build/nuttx-export/libs\libnuttx.a(fs-fs_read.o)
                0x08008112                read
 .text.uart_ioctl
                0x08008174       0xd2 c:/px4/workspace/PX4Firmware/Build/px4io-v1_default.build/nuttx-export/libs\libnuttx.a(drivers-serial.o)
 *fill*         0x08008246        0x2 00
 .text.uart_takesem
                0x08008248       0x34 c:/px4/workspace/PX4Firmware/Build/px4io-v1_default.build/nuttx-export/libs\libnuttx.a(drivers-serial.o)
 .text.uart_putxmitchar
                0x0800827c       0x84 c:/px4/workspace/PX4Firmware/Build/px4io-v1_default.build/nuttx-export/libs\libnuttx.a(drivers-serial.o)
 .text.uart_write
                0x08008300       0xe4 c:/px4/workspace/PX4Firmware/Build/px4io-v1_default.build/nuttx-export/libs\libnuttx.a(drivers-serial.o)
 .text.uart_read
                0x080083e4       0xee c:/px4/workspace/PX4Firmware/Build/px4io-v1_default.build/nuttx-export/libs\libnuttx.a(drivers-serial.o)
 .text.uart_open
                0x080084d2       0x9e c:/px4/workspace/PX4Firmware/Build/px4io-v1_default.build/nuttx-export/libs\libnuttx.a(drivers-serial.o)
 .text.uart_close
                0x08008570       0x80 c:/px4/workspace/PX4Firmware/Build/px4io-v1_default.build/nuttx-export/libs\libnuttx.a(drivers-serial.o)
 .text.uart_register
                0x080085f0       0x54 c:/px4/workspace/PX4Firmware/Build/px4io-v1_default.build/nuttx-export/libs\libnuttx.a(drivers-serial.o)
                0x080085f0                uart_register
 .text.uart_datareceived
                0x08008644       0x10 c:/px4/workspace/PX4Firmware/Build/px4io-v1_default.build/nuttx-export/libs\libnuttx.a(drivers-serial.o)
                0x08008644                uart_datareceived
 .text.uart_datasent
                0x08008654       0x10 c:/px4/workspace/PX4Firmware/Build/px4io-v1_default.build/nuttx-export/libs\libnuttx.a(drivers-serial.o)
                0x08008654                uart_datasent
 .text.uart_xmitchars
                0x08008664       0x6e c:/px4/workspace/PX4Firmware/Build/px4io-v1_default.build/nuttx-export/libs\libnuttx.a(drivers-serialirq.o)
                0x08008664                uart_xmitchars
 .text.uart_recvchars
                0x080086d2       0x5e c:/px4/workspace/PX4Firmware/Build/px4io-v1_default.build/nuttx-export/libs\libnuttx.a(drivers-serialirq.o)
                0x080086d2                uart_recvchars
 .text.get_errno_ptr
                0x08008730       0x28 c:/px4/workspace/PX4Firmware/Build/px4io-v1_default.build/nuttx-export/libs\libnuttx.a(sched-errno_getptr.o)
                0x08008730                get_errno_ptr
 .text.exit     0x08008758       0x1c c:/px4/workspace/PX4Firmware/Build/px4io-v1_default.build/nuttx-export/libs\libnuttx.a(sched-exit.o)
                0x08008758                exit
 .text.getpid   0x08008774       0x10 c:/px4/workspace/PX4Firmware/Build/px4io-v1_default.build/nuttx-export/libs\libnuttx.a(sched-getpid.o)
                0x08008774                getpid
 .text.os_start
                0x08008784      0x124 c:/px4/workspace/PX4Firmware/Build/px4io-v1_default.build/nuttx-export/libs\libnuttx.a(sched-os_start.o)
                0x08008784                os_start
 .text.sched_garbagecollection
                0x080088a8       0x2c c:/px4/workspace/PX4Firmware/Build/px4io-v1_default.build/nuttx-export/libs\libnuttx.a(sched-sched_garbage.o)
                0x080088a8                sched_garbagecollection
 .text.sched_getfiles
                0x080088d4       0x10 c:/px4/workspace/PX4Firmware/Build/px4io-v1_default.build/nuttx-export/libs\libnuttx.a(sched-sched_getfiles.o)
                0x080088d4                sched_getfiles
 .text.sem_post
                0x080088e4       0x5c c:/px4/workspace/PX4Firmware/Build/px4io-v1_default.build/nuttx-export/libs\libnuttx.a(sched-sem_post.o)
                0x080088e4                sem_post
 .text.sem_trywait
                0x08008940       0x4c c:/px4/workspace/PX4Firmware/Build/px4io-v1_default.build/nuttx-export/libs\libnuttx.a(sched-sem_trywait.o)
                0x08008940                sem_trywait
 .text.sem_wait
                0x0800898c       0x84 c:/px4/workspace/PX4Firmware/Build/px4io-v1_default.build/nuttx-export/libs\libnuttx.a(sched-sem_wait.o)
                0x0800898c                sem_wait
 .text.task_exithook
                0x08008a10       0x1e c:/px4/workspace/PX4Firmware/Build/px4io-v1_default.build/nuttx-export/libs\libnuttx.a(sched-task_exithook.o)
                0x08008a10                task_exithook
 .text.task_recover
                0x08008a2e       0x26 c:/px4/workspace/PX4Firmware/Build/px4io-v1_default.build/nuttx-export/libs\libnuttx.a(sched-task_recover.o)
                0x08008a2e                task_recover
 .text.wd_cancel
                0x08008a54       0x6c c:/px4/workspace/PX4Firmware/Build/px4io-v1_default.build/nuttx-export/libs\libnuttx.a(sched-wd_cancel.o)
                0x08008a54                wd_cancel
 .text.wd_delete
                0x08008ac0       0x3c c:/px4/workspace/PX4Firmware/Build/px4io-v1_default.build/nuttx-export/libs\libnuttx.a(sched-wd_delete.o)
                0x08008ac0                wd_delete
 .text.wd_initialize
                0x08008afc       0x44 c:/px4/workspace/PX4Firmware/Build/px4io-v1_default.build/nuttx-export/libs\libnuttx.a(sched-wd_initialize.o)
                0x08008afc                wd_initialize
 .text.dq_addfirst
                0x08008b40       0x18 c:/px4/workspace/PX4Firmware/Build/px4io-v1_default.build/nuttx-export/libs\libnuttx.a(c-dq_addfirst.o)
                0x08008b40                dq_addfirst
 .text.cfgetspeed
                0x08008b58        0x4 c:/px4/workspace/PX4Firmware/Build/px4io-v1_default.build/nuttx-export/libs\libnuttx.a(c-lib_cfgetspeed.o)
                0x08008b58                cfgetspeed
 .text.lib_checkbase
                0x08008b5c       0x50 c:/px4/workspace/PX4Firmware/Build/px4io-v1_default.build/nuttx-export/libs\libnuttx.a(c-lib_checkbase.o)
                0x08008b5c                lib_checkbase
 .text.lib_isbasedigit
                0x08008bac       0x4e c:/px4/workspace/PX4Firmware/Build/px4io-v1_default.build/nuttx-export/libs\libnuttx.a(c-lib_isbasedigit.o)
                0x08008bac                lib_isbasedigit
 .text.utodec   0x08008bfa       0x22 c:/px4/workspace/PX4Firmware/Build/px4io-v1_default.build/nuttx-export/libs\libnuttx.a(c-lib_libvsprintf.o)
 .text.utooct   0x08008c1c       0x1c c:/px4/workspace/PX4Firmware/Build/px4io-v1_default.build/nuttx-export/libs\libnuttx.a(c-lib_libvsprintf.o)
 .text.utobin   0x08008c38       0x1c c:/px4/workspace/PX4Firmware/Build/px4io-v1_default.build/nuttx-export/libs\libnuttx.a(c-lib_libvsprintf.o)
 .text.llutodec
                0x08008c54       0x3e c:/px4/workspace/PX4Firmware/Build/px4io-v1_default.build/nuttx-export/libs\libnuttx.a(c-lib_libvsprintf.o)
 .text.llutooct
                0x08008c92       0x2a c:/px4/workspace/PX4Firmware/Build/px4io-v1_default.build/nuttx-export/libs\libnuttx.a(c-lib_libvsprintf.o)
 .text.llutobin
                0x08008cbc       0x24 c:/px4/workspace/PX4Firmware/Build/px4io-v1_default.build/nuttx-export/libs\libnuttx.a(c-lib_libvsprintf.o)
 .text.prejustify
                0x08008ce0       0x84 c:/px4/workspace/PX4Firmware/Build/px4io-v1_default.build/nuttx-export/libs\libnuttx.a(c-lib_libvsprintf.o)
 .text.utohex   0x08008d64       0x40 c:/px4/workspace/PX4Firmware/Build/px4io-v1_default.build/nuttx-export/libs\libnuttx.a(c-lib_libvsprintf.o)
 .text.utoascii
                0x08008da4       0x8a c:/px4/workspace/PX4Firmware/Build/px4io-v1_default.build/nuttx-export/libs\libnuttx.a(c-lib_libvsprintf.o)
 .text.llutohex
                0x08008e2e       0x4e c:/px4/workspace/PX4Firmware/Build/px4io-v1_default.build/nuttx-export/libs\libnuttx.a(c-lib_libvsprintf.o)
 .text.llutoascii
                0x08008e7c       0x92 c:/px4/workspace/PX4Firmware/Build/px4io-v1_default.build/nuttx-export/libs\libnuttx.a(c-lib_libvsprintf.o)
 .text.postjustify.part.2
                0x08008f0e       0x20 c:/px4/workspace/PX4Firmware/Build/px4io-v1_default.build/nuttx-export/libs\libnuttx.a(c-lib_libvsprintf.o)
 *fill*         0x08008f2e        0x2 00
 .text.lib_vsprintf
                0x08008f30      0x2c8 c:/px4/workspace/PX4Firmware/Build/px4io-v1_default.build/nuttx-export/libs\libnuttx.a(c-lib_libvsprintf.o)
                0x08008f30                lib_vsprintf
 .text.lowoutstream_putc
                0x080091f8       0x16 c:/px4/workspace/PX4Firmware/Build/px4io-v1_default.build/nuttx-export/libs\libnuttx.a(c-lib_lowoutstream.o)
 *fill*         0x0800920e        0x2 00
 .text.lib_lowoutstream
                0x08009210       0x10 c:/px4/workspace/PX4Firmware/Build/px4io-v1_default.build/nuttx-export/libs\libnuttx.a(c-lib_lowoutstream.o)
                0x08009210                lib_lowoutstream
 .text.memoutstream_putc
                0x08009220       0x1a c:/px4/workspace/PX4Firmware/Build/px4io-v1_default.build/nuttx-export/libs\libnuttx.a(c-lib_memoutstream.o)
 *fill*         0x0800923a        0x2 00
 .text.lib_memoutstream
                0x0800923c       0x18 c:/px4/workspace/PX4Firmware/Build/px4io-v1_default.build/nuttx-export/libs\libnuttx.a(c-lib_memoutstream.o)
                0x0800923c                lib_memoutstream
 .text.nulloutstream_putc
                0x08009254        0x8 c:/px4/workspace/PX4Firmware/Build/px4io-v1_default.build/nuttx-export/libs\libnuttx.a(c-lib_nulloutstream.o)
 .text.lib_nulloutstream
                0x0800925c       0x10 c:/px4/workspace/PX4Firmware/Build/px4io-v1_default.build/nuttx-export/libs\libnuttx.a(c-lib_nulloutstream.o)
                0x0800925c                lib_nulloutstream
 .text.lib_skipspace
                0x0800926c       0x24 c:/px4/workspace/PX4Firmware/Build/px4io-v1_default.build/nuttx-export/libs\libnuttx.a(c-lib_skipspace.o)
                0x0800926c                lib_skipspace
 .text.strcpy   0x08009290       0x10 c:/px4/workspace/PX4Firmware/Build/px4io-v1_default.build/nuttx-export/libs\libnuttx.a(c-lib_strcpy.o)
                0x08009290                strcpy
 .text.strlen   0x080092a0       0x10 c:/px4/workspace/PX4Firmware/Build/px4io-v1_default.build/nuttx-export/libs\libnuttx.a(c-lib_strlen.o)
                0x080092a0                strlen
 .text.sem_init
                0x080092b0       0x1e c:/px4/workspace/PX4Firmware/Build/px4io-v1_default.build/nuttx-export/libs\libnuttx.a(c-sem_init.o)
                0x080092b0                sem_init
 .text.sq_remfirst
                0x080092ce       0x14 c:/px4/workspace/PX4Firmware/Build/px4io-v1_default.build/nuttx-export/libs\libnuttx.a(c-sq_remfirst.o)
                0x080092ce                sq_remfirst
 .text.mm_addfreechunk
                0x080092e2       0x36 c:/px4/workspace/PX4Firmware/Build/px4io-v1_default.build/nuttx-export/libs\libnuttx.a(mm-mm_addfreechunk.o)
                0x080092e2                mm_addfreechunk
 .text.mm_addregion
                0x08009318       0x4e c:/px4/workspace/PX4Firmware/Build/px4io-v1_default.build/nuttx-export/libs\libnuttx.a(mm-mm_initialize.o)
                0x08009318                mm_addregion
 .text.mm_initialize
                0x08009366       0x4a c:/px4/workspace/PX4Firmware/Build/px4io-v1_default.build/nuttx-export/libs\libnuttx.a(mm-mm_initialize.o)
                0x08009366                mm_initialize
 .text.up_allocate_heap
                0x080093b0       0x14 c:/px4/workspace/PX4Firmware/Build/px4io-v1_default.build/nuttx-export/libs\libnuttx.a(arch-stm32_allocateheap.o)
                0x080093b0                up_allocate_heap
 .text.up_idle  0x080093c4        0x4 c:/px4/workspace/PX4Firmware/Build/px4io-v1_default.build/nuttx-export/libs\libnuttx.a(arch-stm32_idle.o)
                0x080093c4                up_idle
 .text.up_lowputc
                0x080093c8       0x18 c:/px4/workspace/PX4Firmware/Build/px4io-v1_default.build/nuttx-export/libs\libnuttx.a(arch-stm32_lowputc.o)
                0x080093c8                up_lowputc
 .text.stm32_lowsetup
                0x080093e0       0x68 c:/px4/workspace/PX4Firmware/Build/px4io-v1_default.build/nuttx-export/libs\libnuttx.a(arch-stm32_lowputc.o)
                0x080093e0                stm32_lowsetup
 .text.stm32_clockconfig
                0x08009448       0xcc c:/px4/workspace/PX4Firmware/Build/px4io-v1_default.build/nuttx-export/libs\libnuttx.a(arch-stm32_rcc.o)
                0x08009448                stm32_clockconfig
 .text.up_block_task
                0x08009514       0x70 c:/px4/workspace/PX4Firmware/Build/px4io-v1_default.build/nuttx-export/libs\libnuttx.a(arch-up_blocktask.o)
                0x08009514                up_block_task
 .text.up_copystate
                0x08009584       0x12 c:/px4/workspace/PX4Firmware/Build/px4io-v1_default.build/nuttx-export/libs\libnuttx.a(arch-up_copystate.o)
                0x08009584                up_copystate
 .text          0x08009596       0x5e c:/px4/workspace/PX4Firmware/Build/px4io-v1_default.build/nuttx-export/libs\libnuttx.a(arch-up_exception.o)
                0x08009596                exception_common
 .text._exit    0x080095f4       0x1c c:/px4/workspace/PX4Firmware/Build/px4io-v1_default.build/nuttx-export/libs\libnuttx.a(arch-up_exit.o)
                0x080095f4                _exit
 .text          0x08009610        0xa c:/px4/workspace/PX4Firmware/Build/px4io-v1_default.build/nuttx-export/libs\libnuttx.a(arch-up_fullcontextrestore.o)
                0x08009610                up_fullcontextrestore
 *fill*         0x0800961a        0x2 00
 .text.up_initialize
                0x0800961c       0x28 c:/px4/workspace/PX4Firmware/Build/px4io-v1_default.build/nuttx-export/libs\libnuttx.a(arch-up_initialize.o)
                0x0800961c                up_initialize
 .text.up_initial_state
                0x08009644       0x2c c:/px4/workspace/PX4Firmware/Build/px4io-v1_default.build/nuttx-export/libs\libnuttx.a(arch-up_initialstate.o)
                0x08009644                up_initial_state
 .text.up_interrupt_context
                0x08009670       0x10 c:/px4/workspace/PX4Firmware/Build/px4io-v1_default.build/nuttx-export/libs\libnuttx.a(arch-up_interruptcontext.o)
                0x08009670                up_interrupt_context
 .text.up_mdelay
                0x08009680       0x2c c:/px4/workspace/PX4Firmware/Build/px4io-v1_default.build/nuttx-export/libs\libnuttx.a(arch-up_mdelay.o)
                0x08009680                up_mdelay
 .text          0x080096ac        0xc c:/px4/workspace/PX4Firmware/Build/px4io-v1_default.build/nuttx-export/libs\libnuttx.a(arch-up_switchcontext.o)
                0x080096ac                up_switchcontext
 .text.up_unblock_task
                0x080096b8       0x58 c:/px4/workspace/PX4Firmware/Build/px4io-v1_default.build/nuttx-export/libs\libnuttx.a(arch-up_unblocktask.o)
                0x080096b8                up_unblock_task
 .text._files_close
                0x08009710       0x2a c:/px4/workspace/PX4Firmware/Build/px4io-v1_default.build/nuttx-export/libs\libnuttx.a(fs-fs_files.o)
 *fill*         0x0800973a        0x2 00
 .text._files_semtake
                0x0800973c       0x28 c:/px4/workspace/PX4Firmware/Build/px4io-v1_default.build/nuttx-export/libs\libnuttx.a(fs-fs_files.o)
 .text.files_initialize
                0x08009764        0x2 c:/px4/workspace/PX4Firmware/Build/px4io-v1_default.build/nuttx-export/libs\libnuttx.a(fs-fs_files.o)
                0x08009764                files_initialize
 .text.files_initlist
                0x08009766        0x8 c:/px4/workspace/PX4Firmware/Build/px4io-v1_default.build/nuttx-export/libs\libnuttx.a(fs-fs_files.o)
                0x08009766                files_initlist
 .text.files_releaselist
                0x0800976e       0x20 c:/px4/workspace/PX4Firmware/Build/px4io-v1_default.build/nuttx-export/libs\libnuttx.a(fs-fs_files.o)
                0x0800976e                files_releaselist
 .text.files_dup
                0x0800978e       0x86 c:/px4/workspace/PX4Firmware/Build/px4io-v1_default.build/nuttx-export/libs\libnuttx.a(fs-fs_files.o)
                0x0800978e                files_dup
 .text.files_allocate
                0x08009814       0x54 c:/px4/workspace/PX4Firmware/Build/px4io-v1_default.build/nuttx-export/libs\libnuttx.a(fs-fs_files.o)
                0x08009814                files_allocate
 .text.files_close
                0x08009868       0x3a c:/px4/workspace/PX4Firmware/Build/px4io-v1_default.build/nuttx-export/libs\libnuttx.a(fs-fs_files.o)
                0x08009868                files_close
 .text.files_release
                0x080098a2       0x2c c:/px4/workspace/PX4Firmware/Build/px4io-v1_default.build/nuttx-export/libs\libnuttx.a(fs-fs_files.o)
                0x080098a2                files_release
 .text.inode_addref
                0x080098ce       0x1a c:/px4/workspace/PX4Firmware/Build/px4io-v1_default.build/nuttx-export/libs\libnuttx.a(fs-fs_inodeaddref.o)
                0x080098ce                inode_addref
 .text.inode_find
                0x080098e8       0x32 c:/px4/workspace/PX4Firmware/Build/px4io-v1_default.build/nuttx-export/libs\libnuttx.a(fs-fs_inodefind.o)
                0x080098e8                inode_find
 .text.inode_release
                0x0800991a       0x40 c:/px4/workspace/PX4Firmware/Build/px4io-v1_default.build/nuttx-export/libs\libnuttx.a(fs-fs_inoderelease.o)
                0x0800991a                inode_release
 .text.register_driver
                0x0800995a       0x32 c:/px4/workspace/PX4Firmware/Build/px4io-v1_default.build/nuttx-export/libs\libnuttx.a(fs-fs_registerdriver.o)
                0x0800995a                register_driver
 .text.group_allocate
                0x0800998c       0x18 c:/px4/workspace/PX4Firmware/Build/px4io-v1_default.build/nuttx-export/libs\libnuttx.a(sched-group_create.o)
                0x0800998c                group_allocate
 .text.group_initialize
                0x080099a4        0xa c:/px4/workspace/PX4Firmware/Build/px4io-v1_default.build/nuttx-export/libs\libnuttx.a(sched-group_create.o)
                0x080099a4                group_initialize
 .text.group_leave
                0x080099ae       0x26 c:/px4/workspace/PX4Firmware/Build/px4io-v1_default.build/nuttx-export/libs\libnuttx.a(sched-group_leave.o)
                0x080099ae                group_leave
 .text.group_setupidlefiles
                0x080099d4       0x40 c:/px4/workspace/PX4Firmware/Build/px4io-v1_default.build/nuttx-export/libs\libnuttx.a(sched-group_setupidlefiles.o)
                0x080099d4                group_setupidlefiles
 .text.os_bringup
                0x08009a14       0x30 c:/px4/workspace/PX4Firmware/Build/px4io-v1_default.build/nuttx-export/libs\libnuttx.a(sched-os_bringup.o)
                0x08009a14                os_bringup
 .text.sched_addblocked
                0x08009a44       0x3c c:/px4/workspace/PX4Firmware/Build/px4io-v1_default.build/nuttx-export/libs\libnuttx.a(sched-sched_addblocked.o)
                0x08009a44                sched_addblocked
 .text.sched_addprioritized
                0x08009a80       0x5c c:/px4/workspace/PX4Firmware/Build/px4io-v1_default.build/nuttx-export/libs\libnuttx.a(sched-sched_addprioritized.o)
                0x08009a80                sched_addprioritized
 .text.sched_addreadytorun
                0x08009adc       0x5c c:/px4/workspace/PX4Firmware/Build/px4io-v1_default.build/nuttx-export/libs\libnuttx.a(sched-sched_addreadytorun.o)
                0x08009adc                sched_addreadytorun
 .text.sched_ufree
                0x08009b38       0x3c c:/px4/workspace/PX4Firmware/Build/px4io-v1_default.build/nuttx-export/libs\libnuttx.a(sched-sched_free.o)
                0x08009b38                sched_ufree
 .text.sched_mergepending
                0x08009b74       0x70 c:/px4/workspace/PX4Firmware/Build/px4io-v1_default.build/nuttx-export/libs\libnuttx.a(sched-sched_mergepending.o)
                0x08009b74                sched_mergepending
 .text.sched_removeblocked
                0x08009be4       0x30 c:/px4/workspace/PX4Firmware/Build/px4io-v1_default.build/nuttx-export/libs\libnuttx.a(sched-sched_removeblocked.o)
                0x08009be4                sched_removeblocked
 .text.sched_removereadytorun
                0x08009c14       0x38 c:/px4/workspace/PX4Firmware/Build/px4io-v1_default.build/nuttx-export/libs\libnuttx.a(sched-sched_removereadytorun.o)
                0x08009c14                sched_removereadytorun
 .text.sem_destroy
                0x08009c4c       0x28 c:/px4/workspace/PX4Firmware/Build/px4io-v1_default.build/nuttx-export/libs\libnuttx.a(sched-sem_destroy.o)
                0x08009c4c                sem_destroy
 .text.thread_create
                0x08009c74       0xa4 c:/px4/workspace/PX4Firmware/Build/px4io-v1_default.build/nuttx-export/libs\libnuttx.a(sched-task_create.o)
 .text.task_create
                0x08009d18       0x18 c:/px4/workspace/PX4Firmware/Build/px4io-v1_default.build/nuttx-export/libs\libnuttx.a(sched-task_create.o)
                0x08009d18                task_create
 .text.task_exit
                0x08009d30       0x4c c:/px4/workspace/PX4Firmware/Build/px4io-v1_default.build/nuttx-export/libs\libnuttx.a(sched-task_exit.o)
                0x08009d30                task_exit
 .text.task_schedsetup
                0x08009d7c       0xac c:/px4/workspace/PX4Firmware/Build/px4io-v1_default.build/nuttx-export/libs\libnuttx.a(sched-task_setup.o)
                0x08009d7c                task_schedsetup
 .text.task_argsetup
                0x08009e28       0x64 c:/px4/workspace/PX4Firmware/Build/px4io-v1_default.build/nuttx-export/libs\libnuttx.a(sched-task_setup.o)
                0x08009e28                task_argsetup
 .text.task_start
                0x08009e8c       0x28 c:/px4/workspace/PX4Firmware/Build/px4io-v1_default.build/nuttx-export/libs\libnuttx.a(sched-task_start.o)
                0x08009e8c                task_start
 .text.task_terminate
                0x08009eb4       0x78 c:/px4/workspace/PX4Firmware/Build/px4io-v1_default.build/nuttx-export/libs\libnuttx.a(sched-task_terminate.o)
                0x08009eb4                task_terminate
 .text.dq_addlast
                0x08009f2c       0x18 c:/px4/workspace/PX4Firmware/Build/px4io-v1_default.build/nuttx-export/libs\libnuttx.a(c-dq_addlast.o)
                0x08009f2c                dq_addlast
 .text.dq_rem   0x08009f44       0x1c c:/px4/workspace/PX4Firmware/Build/px4io-v1_default.build/nuttx-export/libs\libnuttx.a(c-dq_rem.o)
                0x08009f44                dq_rem
 .text.strdup   0x08009f60       0x1c c:/px4/workspace/PX4Firmware/Build/px4io-v1_default.build/nuttx-export/libs\libnuttx.a(c-lib_strdup.o)
                0x08009f60                strdup
 .text.up_timerisr
                0x08009f7c        0xa c:/px4/workspace/PX4Firmware/Build/px4io-v1_default.build/nuttx-export/libs\libnuttx.a(arch-stm32_timerisr.o)
                0x08009f7c                up_timerisr
 *fill*         0x08009f86        0x2 00
 .text.up_timerinit
                0x08009f88       0x40 c:/px4/workspace/PX4Firmware/Build/px4io-v1_default.build/nuttx-export/libs\libnuttx.a(arch-stm32_timerisr.o)
                0x08009f88                up_timerinit
 .text.up_create_stack
                0x08009fc8       0x42 c:/px4/workspace/PX4Firmware/Build/px4io-v1_default.build/nuttx-export/libs\libnuttx.a(arch-up_createstack.o)
                0x08009fc8                up_create_stack
 *fill*         0x0800a00a        0x2 00
 .text.up_doirq
                0x0800a00c       0x2c c:/px4/workspace/PX4Firmware/Build/px4io-v1_default.build/nuttx-export/libs\libnuttx.a(arch-up_doirq.o)
                0x0800a00c                up_doirq
 .text.up_release_stack
                0x0800a038       0x16 c:/px4/workspace/PX4Firmware/Build/px4io-v1_default.build/nuttx-export/libs\libnuttx.a(arch-up_releasestack.o)
                0x0800a038                up_release_stack
 .text.close    0x0800a04e       0x24 c:/px4/workspace/PX4Firmware/Build/px4io-v1_default.build/nuttx-export/libs\libnuttx.a(fs-fs_close.o)
                0x0800a04e                close
 .text.dup2     0x0800a072       0x4c c:/px4/workspace/PX4Firmware/Build/px4io-v1_default.build/nuttx-export/libs\libnuttx.a(fs-fs_filedup2.o)
                0x0800a072                dup2
 *fill*         0x0800a0be        0x2 00
 .text.fs_initialize
                0x0800a0c0       0x20 c:/px4/workspace/PX4Firmware/Build/px4io-v1_default.build/nuttx-export/libs\libnuttx.a(fs-fs_inode.o)
                0x0800a0c0                fs_initialize
 .text.inode_semtake
                0x0800a0e0       0x2c c:/px4/workspace/PX4Firmware/Build/px4io-v1_default.build/nuttx-export/libs\libnuttx.a(fs-fs_inode.o)
                0x0800a0e0                inode_semtake
 .text.inode_semgive
                0x0800a10c        0xc c:/px4/workspace/PX4Firmware/Build/px4io-v1_default.build/nuttx-export/libs\libnuttx.a(fs-fs_inode.o)
                0x0800a10c                inode_semgive
 .text.inode_free
                0x0800a118       0x1e c:/px4/workspace/PX4Firmware/Build/px4io-v1_default.build/nuttx-export/libs\libnuttx.a(fs-fs_inode.o)
                0x0800a118                inode_free
 .text.inode_nextname
                0x0800a136       0x12 c:/px4/workspace/PX4Firmware/Build/px4io-v1_default.build/nuttx-export/libs\libnuttx.a(fs-fs_inode.o)
                0x0800a136                inode_nextname
 .text.inode_search
                0x0800a148       0x9c c:/px4/workspace/PX4Firmware/Build/px4io-v1_default.build/nuttx-export/libs\libnuttx.a(fs-fs_inode.o)
                0x0800a148                inode_search
 .text.inode_alloc
                0x0800a1e4       0x36 c:/px4/workspace/PX4Firmware/Build/px4io-v1_default.build/nuttx-export/libs\libnuttx.a(fs-fs_inodereserve.o)
 *fill*         0x0800a21a        0x2 00
 .text.inode_reserve
                0x0800a21c       0xa4 c:/px4/workspace/PX4Firmware/Build/px4io-v1_default.build/nuttx-export/libs\libnuttx.a(fs-fs_inodereserve.o)
                0x0800a21c                inode_reserve
 .text.group_setuptaskfiles
                0x0800a2c0        0xe c:/px4/workspace/PX4Firmware/Build/px4io-v1_default.build/nuttx-export/libs\libnuttx.a(sched-group_setuptaskfiles.o)
                0x0800a2c0                group_setuptaskfiles
 *fill*         0x0800a2ce        0x2 00
 .text.irq_dispatch
                0x0800a2d0       0x24 c:/px4/workspace/PX4Firmware/Build/px4io-v1_default.build/nuttx-export/libs\libnuttx.a(sched-irq_dispatch.o)
                0x0800a2d0                irq_dispatch
 .text.sched_gettcb
                0x0800a2f4       0x28 c:/px4/workspace/PX4Firmware/Build/px4io-v1_default.build/nuttx-export/libs\libnuttx.a(sched-sched_gettcb.o)
                0x0800a2f4                sched_gettcb
 .text.sched_lock
                0x0800a31c       0x30 c:/px4/workspace/PX4Firmware/Build/px4io-v1_default.build/nuttx-export/libs\libnuttx.a(sched-sched_lock.o)
                0x0800a31c                sched_lock
 .text.sched_process_timer
                0x0800a34c       0x1c c:/px4/workspace/PX4Firmware/Build/px4io-v1_default.build/nuttx-export/libs\libnuttx.a(sched-sched_processtimer.o)
                0x0800a34c                sched_process_timer
 .text.sched_releasetcb
                0x0800a368       0x58 c:/px4/workspace/PX4Firmware/Build/px4io-v1_default.build/nuttx-export/libs\libnuttx.a(sched-sched_releasetcb.o)
                0x0800a368                sched_releasetcb
 .text.sched_unlock
                0x0800a3c0       0x48 c:/px4/workspace/PX4Firmware/Build/px4io-v1_default.build/nuttx-export/libs\libnuttx.a(sched-sched_unlock.o)
                0x0800a3c0                sched_unlock
 .text.task_activate
                0x0800a408       0x18 c:/px4/workspace/PX4Firmware/Build/px4io-v1_default.build/nuttx-export/libs\libnuttx.a(sched-task_activate.o)
                0x0800a408                task_activate
 .text.up_release_pending
                0x0800a420       0x38 c:/px4/workspace/PX4Firmware/Build/px4io-v1_default.build/nuttx-export/libs\libnuttx.a(arch-up_releasepending.o)
                0x0800a420                up_release_pending
 .text          0x0800a458       0x18 c:/px4/toolchain/bin/../lib/gcc/arm-none-eabi/4.6.2/armv7-m/libgcc.a(_lshrdi3.o)
                0x0800a458                __lshrdi3
                0x0800a458                __aeabi_llsr
 .text          0x0800a470      0x21c c:/px4/toolchain/bin/../lib/gcc/arm-none-eabi/4.6.2/armv7-m/libgcc.a(_arm_addsubsf3.o)
                0x0800a470                __aeabi_frsub
                0x0800a478                __subsf3
                0x0800a478                __aeabi_fsub
                0x0800a47c                __aeabi_fadd
                0x0800a47c                __addsf3
                0x0800a5dc                __aeabi_ui2f
                0x0800a5dc                __floatunsisf
                0x0800a5e4                __aeabi_i2f
                0x0800a5e4                __floatsisf
                0x0800a600                __aeabi_ul2f
                0x0800a600                __floatundisf
                0x0800a610                __aeabi_l2f
                0x0800a610                __floatdisf
 .text          0x0800a68c      0x2a0 c:/px4/toolchain/bin/../lib/gcc/arm-none-eabi/4.6.2/armv7-m/libgcc.a(_arm_muldivsf3.o)
                0x0800a68c                __mulsf3
                0x0800a68c                __aeabi_fmul
                0x0800a7f4                __aeabi_fdiv
                0x0800a7f4                __divsf3
 .text          0x0800a92c       0xec c:/px4/toolchain/bin/../lib/gcc/arm-none-eabi/4.6.2/armv7-m/libgcc.a(_arm_cmpsf2.o)
                0x0800a92c                __gesf2
                0x0800a92c                __gtsf2
                0x0800a934                __lesf2
                0x0800a934                __ltsf2
                0x0800a93c                __nesf2
                0x0800a93c                __eqsf2
                0x0800a93c                __cmpsf2
                0x0800a99c                __aeabi_cfrcmple
                0x0800a9a4                __aeabi_cfcmpeq
                0x0800a9a4                __aeabi_cfcmple
                0x0800a9b4                __aeabi_fcmpeq
                0x0800a9c8                __aeabi_fcmplt
                0x0800a9dc                __aeabi_fcmple
                0x0800a9f0                __aeabi_fcmpge
                0x0800aa04                __aeabi_fcmpgt
 .text          0x0800aa18       0x4c c:/px4/toolchain/bin/../lib/gcc/arm-none-eabi/4.6.2/armv7-m/libgcc.a(_arm_fixsfsi.o)
                0x0800aa18                __aeabi_f2iz
                0x0800aa18                __fixsfsi
 .text          0x0800aa64       0x40 c:/px4/toolchain/bin/../lib/gcc/arm-none-eabi/4.6.2/armv7-m/libgcc.a(_arm_fixunssfsi.o)
                0x0800aa64                __fixunssfsi
                0x0800aa64                __aeabi_f2uiz
 .text          0x0800aaa4       0x2c c:/px4/toolchain/bin/../lib/gcc/arm-none-eabi/4.6.2/armv7-m/libgcc.a(_aeabi_uldivmod.o)
                0x0800aaa4                __aeabi_uldivmod
 .text          0x0800aad0       0x5c c:/px4/toolchain/bin/../lib/gcc/arm-none-eabi/4.6.2/armv7-m/libgcc.a(bpabi.o)
                0x0800aad0                __gnu_ldivmod_helper
                0x0800ab00                __gnu_uldivmod_helper
 .text          0x0800ab2c        0x4 c:/px4/toolchain/bin/../lib/gcc/arm-none-eabi/4.6.2/armv7-m/libgcc.a(_dvmd_tls.o)
                0x0800ab2c                __aeabi_idiv0
                0x0800ab2c                __aeabi_ldiv0
 .text          0x0800ab30      0x2c8 c:/px4/toolchain/bin/../lib/gcc/arm-none-eabi/4.6.2/armv7-m/libgcc.a(_divdi3.o)
                0x0800ab30                __divdi3
 .text          0x0800adf8      0x298 c:/px4/toolchain/bin/../lib/gcc/arm-none-eabi/4.6.2/armv7-m/libgcc.a(_udivdi3.o)
                0x0800adf8                __udivdi3
 *(.fixup)
 *(.gnu.warning)
 *(.rodata .rodata.*)
 .rodata.pwm_channels
                0x0800b090       0x40 c:/px4/workspace/PX4Firmware/Build/px4io-v1_default.build/c/px4/workspace/PX4Firmware/src/drivers/boards/px4io-v1/module.pre.o
                0x0800b090                pwm_channels
 .rodata.pwm_timers
                0x0800b0d0       0x40 c:/px4/workspace/PX4Firmware/Build/px4io-v1_default.build/c/px4/workspace/PX4Firmware/src/drivers/boards/px4io-v1/module.pre.o
                0x0800b0d0                pwm_timers
 .rodata.str1.4
                0x0800b110      0x288 c:/px4/workspace/PX4Firmware/Build/px4io-v1_default.build/c/px4/workspace/PX4Firmware/src/modules/px4iofirmware/module.pre.o
 .rodata.r_page_config
                0x0800b398       0x14 c:/px4/workspace/PX4Firmware/Build/px4io-v1_default.build/c/px4/workspace/PX4Firmware/src/modules/px4iofirmware/module.pre.o
 .rodata.sbus_decoder
                0x0800b3ac       0xc0 c:/px4/workspace/PX4Firmware/Build/px4io-v1_default.build/c/px4/workspace/PX4Firmware/src/modules/px4iofirmware/module.pre.o
 *fill*         0x0800b46c        0x4 00
 .rodata._ZTV5Mixer
                0x0800b470       0x18 c:/px4/workspace/PX4Firmware/Build/px4io-v1_default.build/c/px4/workspace/PX4Firmware/src/modules/px4iofirmware/module.pre.o
                0x0800b470                vtable for Mixer
 .rodata._ZTV9NullMixer
                0x0800b488       0x18 c:/px4/workspace/PX4Firmware/Build/px4io-v1_default.build/c/px4/workspace/PX4Firmware/src/modules/px4iofirmware/module.pre.o
                0x0800b488                vtable for NullMixer
 .rodata._ZTV10MixerGroup
                0x0800b4a0       0x18 c:/px4/workspace/PX4Firmware/Build/px4io-v1_default.build/c/px4/workspace/PX4Firmware/src/modules/px4iofirmware/module.pre.o
                0x0800b4a0                vtable for MixerGroup
 .rodata._ZN12_GLOBAL__N_1L13_config_hex_xE
                0x0800b4b8       0x48 c:/px4/workspace/PX4Firmware/Build/px4io-v1_default.build/c/px4/workspace/PX4Firmware/src/modules/px4iofirmware/module.pre.o
 .rodata._ZN12_GLOBAL__N_1L14_config_octa_xE
                0x0800b500       0x60 c:/px4/workspace/PX4Firmware/Build/px4io-v1_default.build/c/px4/workspace/PX4Firmware/src/modules/px4iofirmware/module.pre.o
 .rodata._ZN12_GLOBAL__N_1L19_config_rotor_countE
                0x0800b560       0x24 c:/px4/workspace/PX4Firmware/Build/px4io-v1_default.build/c/px4/workspace/PX4Firmware/src/modules/px4iofirmware/module.pre.o
 .rodata._ZN12_GLOBAL__N_1L16_config_hex_plusE
                0x0800b584       0x48 c:/px4/workspace/PX4Firmware/Build/px4io-v1_default.build/c/px4/workspace/PX4Firmware/src/modules/px4iofirmware/module.pre.o
 .rodata._ZN12_GLOBAL__N_1L17_config_octa_plusE
                0x0800b5cc       0x60 c:/px4/workspace/PX4Firmware/Build/px4io-v1_default.build/c/px4/workspace/PX4Firmware/src/modules/px4iofirmware/module.pre.o
 .rodata._ZN12_GLOBAL__N_1L17_config_quad_plusE
                0x0800b62c       0x30 c:/px4/workspace/PX4Firmware/Build/px4io-v1_default.build/c/px4/workspace/PX4Firmware/src/modules/px4iofirmware/module.pre.o
 .rodata._ZN12_GLOBAL__N_113_config_indexE
                0x0800b65c       0x24 c:/px4/workspace/PX4Firmware/Build/px4io-v1_default.build/c/px4/workspace/PX4Firmware/src/modules/px4iofirmware/module.pre.o
 .rodata._ZN12_GLOBAL__N_1L17_config_quad_wideE
                0x0800b680       0x30 c:/px4/workspace/PX4Firmware/Build/px4io-v1_default.build/c/px4/workspace/PX4Firmware/src/modules/px4iofirmware/module.pre.o
 .rodata._ZN12_GLOBAL__N_1L16_config_octa_coxE
                0x0800b6b0       0x60 c:/px4/workspace/PX4Firmware/Build/px4io-v1_default.build/c/px4/workspace/PX4Firmware/src/modules/px4iofirmware/module.pre.o
 .rodata._ZN12_GLOBAL__N_1L14_config_quad_vE
                0x0800b710       0x30 c:/px4/workspace/PX4Firmware/Build/px4io-v1_default.build/c/px4/workspace/PX4Firmware/src/modules/px4iofirmware/module.pre.o
 .rodata._ZN12_GLOBAL__N_1L14_config_quad_xE
                0x0800b740       0x30 c:/px4/workspace/PX4Firmware/Build/px4io-v1_default.build/c/px4/workspace/PX4Firmware/src/modules/px4iofirmware/module.pre.o
 .rodata._ZTV15MultirotorMixer
                0x0800b770       0x18 c:/px4/workspace/PX4Firmware/Build/px4io-v1_default.build/c/px4/workspace/PX4Firmware/src/modules/px4iofirmware/module.pre.o
                0x0800b770                vtable for MultirotorMixer
 .rodata._ZTV11SimpleMixer
                0x0800b788       0x18 c:/px4/workspace/PX4Firmware/Build/px4io-v1_default.build/c/px4/workspace/PX4Firmware/src/modules/px4iofirmware/module.pre.o
                0x0800b788                vtable for SimpleMixer
 .rodata.junk_buf
                0x0800b7a0        0x4 c:/px4/workspace/PX4Firmware/Build/px4io-v1_default.build/c/px4/workspace/PX4Firmware/src/modules/px4iofirmware/module.pre.o
 .rodata.str1.1
                0x0800b7a4       0x14 c:/px4/workspace/PX4Firmware/Build/px4io-v1_default.build/nuttx-export/libs\libnuttx.a(sched-irq_unexpectedisr.o)
 .rodata.crc32_tab
                0x0800b7b8      0x400 c:/px4/workspace/PX4Firmware/Build/px4io-v1_default.build/nuttx-export/libs\libnuttx.a(c-lib_crc32.o)
 .rodata.str1.1
                0x0800bbb8       0x14 c:/px4/workspace/PX4Firmware/Build/px4io-v1_default.build/nuttx-export/libs\libnuttx.a(c-lib_sscanf.o)
 .rodata.spaces
                0x0800bbcc        0x7 c:/px4/workspace/PX4Firmware/Build/px4io-v1_default.build/nuttx-export/libs\libnuttx.a(c-lib_sscanf.o)
 .rodata.str1.1
                0x0800bbd3        0x9 c:/px4/workspace/PX4Firmware/Build/px4io-v1_default.build/nuttx-export/libs\libnuttx.a(mm-mm_sem.o)
 .rodata.str1.1
                0x0800bbdc       0x17 c:/px4/workspace/PX4Firmware/Build/px4io-v1_default.build/nuttx-export/libs\libnuttx.a(arch-stm32_dma.o)
 *fill*         0x0800bbf3        0x1 00
 .rodata.g_gpiobase
                0x0800bbf4       0x10 c:/px4/workspace/PX4Firmware/Build/px4io-v1_default.build/nuttx-export/libs\libnuttx.a(arch-stm32_gpio.o)
                0x0800bbf4                g_gpiobase
 .rodata.str1.1
                0x0800bc04       0x23 c:/px4/workspace/PX4Firmware/Build/px4io-v1_default.build/nuttx-export/libs\libnuttx.a(arch-stm32_serial.o)
 *fill*         0x0800bc27        0x1 00
 .rodata.uart_devs
                0x0800bc28        0xc c:/px4/workspace/PX4Firmware/Build/px4io-v1_default.build/nuttx-export/libs\libnuttx.a(arch-stm32_serial.o)
 .rodata.g_uart_dma_ops
                0x0800bc34       0x30 c:/px4/workspace/PX4Firmware/Build/px4io-v1_default.build/nuttx-export/libs\libnuttx.a(arch-stm32_serial.o)
 .rodata.g_uart_ops
                0x0800bc64       0x30 c:/px4/workspace/PX4Firmware/Build/px4io-v1_default.build/nuttx-export/libs\libnuttx.a(arch-stm32_serial.o)
 .rodata.str1.1
                0x0800bc94      0x160 c:/px4/workspace/PX4Firmware/Build/px4io-v1_default.build/nuttx-export/libs\libnuttx.a(arch-up_assert.o)
 .rodata.str1.1
                0x0800bdf4       0x17 c:/px4/workspace/PX4Firmware/Build/px4io-v1_default.build/nuttx-export/libs\libnuttx.a(arch-up_hardfault.o)
 .rodata.str1.1
                0x0800be0b       0x19 c:/px4/workspace/PX4Firmware/Build/px4io-v1_default.build/nuttx-export/libs\libnuttx.a(cxx-libxx_cxapurevirtual.o)
 .rodata.str1.1
                0x0800be24       0x10 c:/px4/workspace/PX4Firmware/Build/px4io-v1_default.build/nuttx-export/libs\libnuttx.a(drivers-serial.o)
 .rodata.g_serialops
                0x0800be34       0x18 c:/px4/workspace/PX4Firmware/Build/px4io-v1_default.build/nuttx-export/libs\libnuttx.a(drivers-serial.o)
 .rodata.g_idlename
                0x0800be4c        0xa c:/px4/workspace/PX4Firmware/Build/px4io-v1_default.build/nuttx-export/libs\libnuttx.a(sched-os_start.o)
 *fill*         0x0800be56        0x2 00
 .rodata.g_tasklisttable
                0x0800be58       0x30 c:/px4/workspace/PX4Firmware/Build/px4io-v1_default.build/nuttx-export/libs\libnuttx.a(sched-os_start.o)
                0x0800be58                g_tasklisttable
 .rodata.str1.1
                0x0800be88        0xb c:/px4/workspace/PX4Firmware/Build/px4io-v1_default.build/nuttx-export/libs\libnuttx.a(sched-sem_post.o)
 .rodata.str1.1
                0x0800be93        0xb c:/px4/workspace/PX4Firmware/Build/px4io-v1_default.build/nuttx-export/libs\libnuttx.a(sched-sem_wait.o)
 .rodata.str1.1
                0x0800be9e        0xc c:/px4/workspace/PX4Firmware/Build/px4io-v1_default.build/nuttx-export/libs\libnuttx.a(sched-wd_cancel.o)
 .rodata.g_nullstring
                0x0800beaa        0x7 c:/px4/workspace/PX4Firmware/Build/px4io-v1_default.build/nuttx-export/libs\libnuttx.a(c-lib_libvsprintf.o)
 .rodata.str1.1
                0x0800beb1       0x1c c:/px4/workspace/PX4Firmware/Build/px4io-v1_default.build/nuttx-export/libs\libnuttx.a(c-lib_libvsprintf.o)
 .rodata        0x0800becd        0x4 c:/px4/workspace/PX4Firmware/Build/px4io-v1_default.build/nuttx-export/libs\libnuttx.a(arch-stm32_vectors.o)
                0x0800becd                g_idle_topstack
 .rodata.str1.1
                0x0800bed1       0x17 c:/px4/workspace/PX4Firmware/Build/px4io-v1_default.build/nuttx-export/libs\libnuttx.a(arch-up_blocktask.o)
 .rodata.str1.1
                0x0800bee8       0x19 c:/px4/workspace/PX4Firmware/Build/px4io-v1_default.build/nuttx-export/libs\libnuttx.a(arch-up_unblocktask.o)
 .rodata.str1.1
                0x0800bf01        0xb c:/px4/workspace/PX4Firmware/Build/px4io-v1_default.build/nuttx-export/libs\libnuttx.a(fs-fs_files.o)
 .rodata.str1.1
                0x00000000        0xd c:/px4/workspace/PX4Firmware/Build/px4io-v1_default.build/nuttx-export/libs\libnuttx.a(sched-group_setupidlefiles.o)
 .rodata.str1.1
                0x0800bf0c       0x12 c:/px4/workspace/PX4Firmware/Build/px4io-v1_default.build/nuttx-export/libs\libnuttx.a(sched-os_bringup.o)
 .rodata.str1.1
                0x0800bf1e       0x13 c:/px4/workspace/PX4Firmware/Build/px4io-v1_default.build/nuttx-export/libs\libnuttx.a(sched-sched_addblocked.o)
 .rodata.str1.1
                0x0800bf31       0x17 c:/px4/workspace/PX4Firmware/Build/px4io-v1_default.build/nuttx-export/libs\libnuttx.a(sched-sched_addprioritized.o)
 .rodata.str1.1
                0x0800bf48       0x16 c:/px4/workspace/PX4Firmware/Build/px4io-v1_default.build/nuttx-export/libs\libnuttx.a(sched-sched_addreadytorun.o)
 .rodata.str1.1
                0x0800bf5e       0x15 c:/px4/workspace/PX4Firmware/Build/px4io-v1_default.build/nuttx-export/libs\libnuttx.a(sched-sched_mergepending.o)
 .rodata.str1.1
                0x0800bf73       0x16 c:/px4/workspace/PX4Firmware/Build/px4io-v1_default.build/nuttx-export/libs\libnuttx.a(sched-sched_removeblocked.o)
 .rodata.str1.1
                0x0800bf89       0x19 c:/px4/workspace/PX4Firmware/Build/px4io-v1_default.build/nuttx-export/libs\libnuttx.a(sched-sched_removereadytorun.o)
 .rodata.g_noname
                0x0800bfa2        0x9 c:/px4/workspace/PX4Firmware/Build/px4io-v1_default.build/nuttx-export/libs\libnuttx.a(sched-task_setup.o)
 .rodata.str1.1
                0x0800bfab       0x11 c:/px4/workspace/PX4Firmware/Build/px4io-v1_default.build/nuttx-export/libs\libnuttx.a(sched-task_terminate.o)
 .rodata.str1.1
                0x0800bfbc        0xb c:/px4/workspace/PX4Firmware/Build/px4io-v1_default.build/nuttx-export/libs\libnuttx.a(fs-fs_inode.o)
 .rodata.str1.1
                0x0800bfc7        0xd c:/px4/workspace/PX4Firmware/Build/px4io-v1_default.build/nuttx-export/libs\libnuttx.a(sched-sched_lock.o)
 *(.gnu.linkonce.t.*)
 *(.glue_7)
 .glue_7        0x00000000        0x0 linker stubs
 *(.glue_7t)
 .glue_7t       0x00000000        0x0 linker stubs
 *(.got)
 *(.gcc_except_table)
 *(.gnu.linkonce.r.*)
                0x0800bfd4                _etext = ABSOLUTE (.)

.vfp11_veneer   0x0800bfd4        0x0
 .vfp11_veneer  0x00000000        0x0 linker stubs

.v4_bx          0x0800bfd4        0x0
 .v4_bx         0x00000000        0x0 linker stubs

.init_section   0x0800bfd4        0x4
                0x0800bfd4                _sinit = ABSOLUTE (.)
 *(.init_array .init_array.*)
 .init_array    0x0800bfd4        0x4 c:/px4/workspace/PX4Firmware/Build/px4io-v1_default.build/c/px4/workspace/PX4Firmware/src/modules/px4iofirmware/module.pre.o
                0x0800bfd8                _einit = ABSOLUTE (.)

.ARM.extab
 *(.ARM.extab*)
                0x0800bfd8                __exidx_start = ABSOLUTE (.)

.ARM.exidx      0x0800bfd8        0x8
 *(.ARM.exidx*)
 .ARM.exidx     0x0800bfd8        0x8 c:/px4/toolchain/bin/../lib/gcc/arm-none-eabi/4.6.2/armv7-m/libgcc.a(_divdi3.o)
 .ARM.exidx     0x0800bfe0        0x0 c:/px4/toolchain/bin/../lib/gcc/arm-none-eabi/4.6.2/armv7-m/libgcc.a(_udivdi3.o)
                                  0x8 (size before relaxing)
                0x0800bfe0                __exidx_end = ABSOLUTE (.)
                0x0800bfe0                _eronly = ABSOLUTE (.)

.data           0x20000000      0x200 load address 0x0800bfe0
                0x20000000                _sdata = ABSOLUTE (.)
 *(.data .data.*)
 .data.dsm_fd   0x20000000        0x4 c:/px4/workspace/PX4Firmware/Build/px4io-v1_default.build/c/px4/workspace/PX4Firmware/src/modules/px4iofirmware/module.pre.o
 .data.r_page_servo_control_min
                0x20000004       0x10 c:/px4/workspace/PX4Firmware/Build/px4io-v1_default.build/c/px4/workspace/PX4Firmware/src/modules/px4iofirmware/module.pre.o
 .data.r_page_servo_control_max
                0x20000014       0x10 c:/px4/workspace/PX4Firmware/Build/px4io-v1_default.build/c/px4/workspace/PX4Firmware/src/modules/px4iofirmware/module.pre.o
 .data.r_page_setup
                0x20000024       0x1c c:/px4/workspace/PX4Firmware/Build/px4io-v1_default.build/c/px4/workspace/PX4Firmware/src/modules/px4iofirmware/module.pre.o
 .data.sbus_fd  0x20000040        0x4 c:/px4/workspace/PX4Firmware/Build/px4io-v1_default.build/c/px4/workspace/PX4Firmware/src/modules/px4iofirmware/module.pre.o
 .data.tx_len   0x20000044        0x4 c:/px4/workspace/PX4Firmware/Build/px4io-v1_default.build/c/px4/workspace/PX4Firmware/src/modules/px4iofirmware/module.pre.o
 .data.tx_buf   0x20000048        0x4 c:/px4/workspace/PX4Firmware/Build/px4io-v1_default.build/c/px4/workspace/PX4Firmware/src/modules/px4iofirmware/module.pre.o
 .data.g_dma    0x2000004c       0x70 c:/px4/workspace/PX4Firmware/Build/px4io-v1_default.build/nuttx-export/libs\libnuttx.a(arch-stm32_dma.o)
 .data.g_usart1priv
                0x200000bc       0x6c c:/px4/workspace/PX4Firmware/Build/px4io-v1_default.build/nuttx-export/libs\libnuttx.a(arch-stm32_serial.o)
 .data.g_usart2priv
                0x20000128       0x6c c:/px4/workspace/PX4Firmware/Build/px4io-v1_default.build/nuttx-export/libs\libnuttx.a(arch-stm32_serial.o)
 .data.g_usart3priv
                0x20000194       0x6c c:/px4/workspace/PX4Firmware/Build/px4io-v1_default.build/nuttx-export/libs\libnuttx.a(arch-stm32_serial.o)
 *(.gnu.linkonce.d.*)
                0x20000200                _edata = ABSOLUTE (.)

.bss            0x20000200      0xafe load address 0x0800c1e0
                0x20000200                _sbss = ABSOLUTE (.)
 *(.bss .bss.*)
 .bss.callout_queue
                0x20000200        0x8 c:/px4/workspace/PX4Firmware/Build/px4io-v1_default.build/c/px4/workspace/PX4Firmware/src/drivers/stm32/module.pre.o
 .bss.ppm_edge_history
                0x20000208       0x40 c:/px4/workspace/PX4Firmware/Build/px4io-v1_default.build/c/px4/workspace/PX4Firmware/src/drivers/stm32/module.pre.o
                0x20000208                ppm_edge_history
 .bss.ppm_pulse_history
                0x20000248       0x40 c:/px4/workspace/PX4Firmware/Build/px4io-v1_default.build/c/px4/workspace/PX4Firmware/src/drivers/stm32/module.pre.o
                0x20000248                ppm_pulse_history
 .bss.ppm_last_valid_decode
                0x20000288        0x8 c:/px4/workspace/PX4Firmware/Build/px4io-v1_default.build/c/px4/workspace/PX4Firmware/src/drivers/stm32/module.pre.o
                0x20000288                ppm_last_valid_decode
 .bss.new_channel_holdoff.5826
                0x20000290        0x4 c:/px4/workspace/PX4Firmware/Build/px4io-v1_default.build/c/px4/workspace/PX4Firmware/src/drivers/stm32/module.pre.o
 .bss.ppm_decoded_channels
                0x20000294        0x4 c:/px4/workspace/PX4Firmware/Build/px4io-v1_default.build/c/px4/workspace/PX4Firmware/src/drivers/stm32/module.pre.o
                0x20000294                ppm_decoded_channels
 .bss.ppm_edge_next
                0x20000298        0x4 c:/px4/workspace/PX4Firmware/Build/px4io-v1_default.build/c/px4/workspace/PX4Firmware/src/drivers/stm32/module.pre.o
 .bss.latency_counters
                0x2000029c       0x24 c:/px4/workspace/PX4Firmware/Build/px4io-v1_default.build/c/px4/workspace/PX4Firmware/src/drivers/stm32/module.pre.o
 .bss.base_time.5846
                0x200002c0        0x8 c:/px4/workspace/PX4Firmware/Build/px4io-v1_default.build/c/px4/workspace/PX4Firmware/src/drivers/stm32/module.pre.o
 .bss.last_count.5847
                0x200002c8        0x4 c:/px4/workspace/PX4Firmware/Build/px4io-v1_default.build/c/px4/workspace/PX4Firmware/src/drivers/stm32/module.pre.o
 .bss.ppm_pulse_next
                0x200002cc        0x4 c:/px4/workspace/PX4Firmware/Build/px4io-v1_default.build/c/px4/workspace/PX4Firmware/src/drivers/stm32/module.pre.o
 .bss.latency_baseline
                0x200002d0        0x2 c:/px4/workspace/PX4Firmware/Build/px4io-v1_default.build/c/px4/workspace/PX4Firmware/src/drivers/stm32/module.pre.o
 *fill*         0x200002d2        0x2 00
 .bss.ppm_buffer
                0x200002d4       0x28 c:/px4/workspace/PX4Firmware/Build/px4io-v1_default.build/c/px4/workspace/PX4Firmware/src/drivers/stm32/module.pre.o
                0x200002d4                ppm_buffer
 .bss.ppm_temp_buffer
                0x200002fc       0x28 c:/px4/workspace/PX4Firmware/Build/px4io-v1_default.build/c/px4/workspace/PX4Firmware/src/drivers/stm32/module.pre.o
 .bss.ppm_frame_length
                0x20000324        0x2 c:/px4/workspace/PX4Firmware/Build/px4io-v1_default.build/c/px4/workspace/PX4Firmware/src/drivers/stm32/module.pre.o
                0x20000324                ppm_frame_length
 .bss.latency_actual
                0x20000326        0x2 c:/px4/workspace/PX4Firmware/Build/px4io-v1_default.build/c/px4/workspace/PX4Firmware/src/drivers/stm32/module.pre.o
 .bss.new_channel_count.5825
                0x20000328        0x4 c:/px4/workspace/PX4Firmware/Build/px4io-v1_default.build/c/px4/workspace/PX4Firmware/src/drivers/stm32/module.pre.o
 .bss.ppm       0x2000032c       0x10 c:/px4/workspace/PX4Firmware/Build/px4io-v1_default.build/c/px4/workspace/PX4Firmware/src/drivers/stm32/module.pre.o
 .bss.adc_perf  0x2000033c        0x4 c:/px4/workspace/PX4Firmware/Build/px4io-v1_default.build/c/px4/workspace/PX4Firmware/src/modules/px4iofirmware/module.pre.o
 .bss.c_gather_dsm
                0x20000340        0x4 c:/px4/workspace/PX4Firmware/Build/px4io-v1_default.build/c/px4/workspace/PX4Firmware/src/modules/px4iofirmware/module.pre.o
 .bss.c_gather_ppm
                0x20000344        0x4 c:/px4/workspace/PX4Firmware/Build/px4io-v1_default.build/c/px4/workspace/PX4Firmware/src/modules/px4iofirmware/module.pre.o
 .bss.c_gather_sbus
                0x20000348        0x4 c:/px4/workspace/PX4Firmware/Build/px4io-v1_default.build/c/px4/workspace/PX4Firmware/src/modules/px4iofirmware/module.pre.o
 .bss.cs11.5844
                0x2000034c        0x4 c:/px4/workspace/PX4Firmware/Build/px4io-v1_default.build/c/px4/workspace/PX4Firmware/src/modules/px4iofirmware/module.pre.o
 .bss.dsm_partial_frame_count
                0x20000350        0x4 c:/px4/workspace/PX4Firmware/Build/px4io-v1_default.build/c/px4/workspace/PX4Firmware/src/modules/px4iofirmware/module.pre.o
 .bss.samples.5845
                0x20000354        0x4 c:/px4/workspace/PX4Firmware/Build/px4io-v1_default.build/c/px4/workspace/PX4Firmware/src/modules/px4iofirmware/module.pre.o
 .bss.dsm_last_rx_time
                0x20000358        0x8 c:/px4/workspace/PX4Firmware/Build/px4io-v1_default.build/c/px4/workspace/PX4Firmware/src/modules/px4iofirmware/module.pre.o
 .bss.cs10.5843
                0x20000360        0x4 c:/px4/workspace/PX4Firmware/Build/px4io-v1_default.build/c/px4/workspace/PX4Firmware/src/modules/px4iofirmware/module.pre.o
 .bss.dsm_frame
                0x20000364       0x10 c:/px4/workspace/PX4Firmware/Build/px4io-v1_default.build/c/px4/workspace/PX4Firmware/src/modules/px4iofirmware/module.pre.o
 .bss.dsm_frame_drops
                0x20000374        0x4 c:/px4/workspace/PX4Firmware/Build/px4io-v1_default.build/c/px4/workspace/PX4Firmware/src/modules/px4iofirmware/module.pre.o
 .bss.dsm_last_frame_time
                0x20000378        0x8 c:/px4/workspace/PX4Firmware/Build/px4io-v1_default.build/c/px4/workspace/PX4Firmware/src/modules/px4iofirmware/module.pre.o
 .bss.dsm_channel_shift
                0x20000380        0x4 c:/px4/workspace/PX4Firmware/Build/px4io-v1_default.build/c/px4/workspace/PX4Firmware/src/modules/px4iofirmware/module.pre.o
 .bss.last_msg_counter
                0x20000384        0x4 c:/px4/workspace/PX4Firmware/Build/px4io-v1_default.build/c/px4/workspace/PX4Firmware/src/modules/px4iofirmware/module.pre.o
 .bss.system_state
                0x20000388       0x18 c:/px4/workspace/PX4Firmware/Build/px4io-v1_default.build/c/px4/workspace/PX4Firmware/src/modules/px4iofirmware/module.pre.o
 .bss.msg_next_out
                0x200003a0        0x1 c:/px4/workspace/PX4Firmware/Build/px4io-v1_default.build/c/px4/workspace/PX4Firmware/src/modules/px4iofirmware/module.pre.o
 *fill*         0x200003a1        0x7 00
 .bss.serial_dma_call
                0x200003a8       0x20 c:/px4/workspace/PX4Firmware/Build/px4io-v1_default.build/c/px4/workspace/PX4Firmware/src/modules/px4iofirmware/module.pre.o
 .bss.msg_counter
                0x200003c8        0x4 c:/px4/workspace/PX4Firmware/Build/px4io-v1_default.build/c/px4/workspace/PX4Firmware/src/modules/px4iofirmware/module.pre.o
 .bss.msg       0x200003cc       0x50 c:/px4/workspace/PX4Firmware/Build/px4io-v1_default.build/c/px4/workspace/PX4Firmware/src/modules/px4iofirmware/module.pre.o
 .bss.msg_next_in
                0x2000041c        0x1 c:/px4/workspace/PX4Firmware/Build/px4io-v1_default.build/c/px4/workspace/PX4Firmware/src/modules/px4iofirmware/module.pre.o
 *fill*         0x2000041d        0x3 00
 .bss.pwm_limit
                0x20000420       0x10 c:/px4/workspace/PX4Firmware/Build/px4io-v1_default.build/c/px4/workspace/PX4Firmware/src/modules/px4iofirmware/module.pre.o
 .bss.heartbeat.6165
                0x20000430        0x1 c:/px4/workspace/PX4Firmware/Build/px4io-v1_default.build/c/px4/workspace/PX4Firmware/src/modules/px4iofirmware/module.pre.o
 *fill*         0x20000431        0x7 00
 .bss.reboot_time
                0x20000438        0x8 c:/px4/workspace/PX4Firmware/Build/px4io-v1_default.build/c/px4/workspace/PX4Firmware/src/modules/px4iofirmware/module.pre.o
 .bss.r_page_rc_input
                0x20000440       0x14 c:/px4/workspace/PX4Firmware/Build/px4io-v1_default.build/c/px4/workspace/PX4Firmware/src/modules/px4iofirmware/module.pre.o
 .bss.r_page_scratch
                0x20000454       0x40 c:/px4/workspace/PX4Firmware/Build/px4io-v1_default.build/c/px4/workspace/PX4Firmware/src/modules/px4iofirmware/module.pre.o
 .bss.r_page_servos
                0x20000494       0x10 c:/px4/workspace/PX4Firmware/Build/px4io-v1_default.build/c/px4/workspace/PX4Firmware/src/modules/px4iofirmware/module.pre.o
 .bss.last_offset
                0x200004a4        0x1 c:/px4/workspace/PX4Firmware/Build/px4io-v1_default.build/c/px4/workspace/PX4Firmware/src/modules/px4iofirmware/module.pre.o
 *fill*         0x200004a5        0x3 00
 .bss.r_page_status
                0x200004a8       0x14 c:/px4/workspace/PX4Firmware/Build/px4io-v1_default.build/c/px4/workspace/PX4Firmware/src/modules/px4iofirmware/module.pre.o
 .bss.r_page_rc_input_config
                0x200004bc       0xd8 c:/px4/workspace/PX4Firmware/Build/px4io-v1_default.build/c/px4/workspace/PX4Firmware/src/modules/px4iofirmware/module.pre.o
 .bss.r_page_servo_disarmed
                0x20000594       0x10 c:/px4/workspace/PX4Firmware/Build/px4io-v1_default.build/c/px4/workspace/PX4Firmware/src/modules/px4iofirmware/module.pre.o
 .bss.r_page_controls
                0x200005a4       0x40 c:/px4/workspace/PX4Firmware/Build/px4io-v1_default.build/c/px4/workspace/PX4Firmware/src/modules/px4iofirmware/module.pre.o
 .bss.r_page_servo_failsafe
                0x200005e4       0x10 c:/px4/workspace/PX4Firmware/Build/px4io-v1_default.build/c/px4/workspace/PX4Firmware/src/modules/px4iofirmware/module.pre.o
 .bss.r_page_raw_rc_input
                0x200005f4       0x34 c:/px4/workspace/PX4Firmware/Build/px4io-v1_default.build/c/px4/workspace/PX4Firmware/src/modules/px4iofirmware/module.pre.o
 .bss.last_page
                0x20000628        0x1 c:/px4/workspace/PX4Firmware/Build/px4io-v1_default.build/c/px4/workspace/PX4Firmware/src/modules/px4iofirmware/module.pre.o
 *fill*         0x20000629        0x3 00
 .bss.r_page_actuators
                0x2000062c       0x10 c:/px4/workspace/PX4Firmware/Build/px4io-v1_default.build/c/px4/workspace/PX4Firmware/src/modules/px4iofirmware/module.pre.o
 *fill*         0x2000063c        0x4 00
 .bss.arming_call
                0x20000640       0x20 c:/px4/workspace/PX4Firmware/Build/px4io-v1_default.build/c/px4/workspace/PX4Firmware/src/modules/px4iofirmware/module.pre.o
 .bss.blink_counter
                0x20000660        0x4 c:/px4/workspace/PX4Firmware/Build/px4io-v1_default.build/c/px4/workspace/PX4Firmware/src/modules/px4iofirmware/module.pre.o
 .bss.safety_button_pressed
                0x20000664        0x1 c:/px4/workspace/PX4Firmware/Build/px4io-v1_default.build/c/px4/workspace/PX4Firmware/src/modules/px4iofirmware/module.pre.o
 .bss.failsafe.5291
                0x20000665        0x1 c:/px4/workspace/PX4Firmware/Build/px4io-v1_default.build/c/px4/workspace/PX4Firmware/src/modules/px4iofirmware/module.pre.o
 *fill*         0x20000666        0x2 00
 .bss.failsafe_call
                0x20000668       0x20 c:/px4/workspace/PX4Firmware/Build/px4io-v1_default.build/c/px4/workspace/PX4Firmware/src/modules/px4iofirmware/module.pre.o
 .bss.counter   0x20000688        0x4 c:/px4/workspace/PX4Firmware/Build/px4io-v1_default.build/c/px4/workspace/PX4Firmware/src/modules/px4iofirmware/module.pre.o
 .bss.frame     0x2000068c       0x1c c:/px4/workspace/PX4Firmware/Build/px4io-v1_default.build/c/px4/workspace/PX4Firmware/src/modules/px4iofirmware/module.pre.o
 .bss.last_frame_time
                0x200006a8        0x8 c:/px4/workspace/PX4Firmware/Build/px4io-v1_default.build/c/px4/workspace/PX4Firmware/src/modules/px4iofirmware/module.pre.o
 .bss.partial_frame_count
                0x200006b0        0x4 c:/px4/workspace/PX4Firmware/Build/px4io-v1_default.build/c/px4/workspace/PX4Firmware/src/modules/px4iofirmware/module.pre.o
 *fill*         0x200006b4        0x4 00
 .bss.last_rx_time
                0x200006b8        0x8 c:/px4/workspace/PX4Firmware/Build/px4io-v1_default.build/c/px4/workspace/PX4Firmware/src/modules/px4iofirmware/module.pre.o
 .bss.sbus_frame_drops
                0x200006c0        0x4 c:/px4/workspace/PX4Firmware/Build/px4io-v1_default.build/c/px4/workspace/PX4Firmware/src/modules/px4iofirmware/module.pre.o
 .bss.perf_counters
                0x200006c4        0x8 c:/px4/workspace/PX4Firmware/Build/px4io-v1_default.build/c/px4/workspace/PX4Firmware/src/modules/px4iofirmware/module.pre.o
 .bss._ZL11mixer_group
                0x200006cc       0x14 c:/px4/workspace/PX4Firmware/Build/px4io-v1_default.build/c/px4/workspace/PX4Firmware/src/modules/px4iofirmware/module.pre.o
 .bss._ZL17mixer_text_length
                0x200006e0        0x4 c:/px4/workspace/PX4Firmware/Build/px4io-v1_default.build/c/px4/workspace/PX4Firmware/src/modules/px4iofirmware/module.pre.o
 .bss._ZL10should_arm
                0x200006e4        0x1 c:/px4/workspace/PX4Firmware/Build/px4io-v1_default.build/c/px4/workspace/PX4Firmware/src/modules/px4iofirmware/module.pre.o
 .bss._ZL18mixer_servos_armed
                0x200006e5        0x1 c:/px4/workspace/PX4Firmware/Build/px4io-v1_default.build/c/px4/workspace/PX4Firmware/src/modules/px4iofirmware/module.pre.o
 .bss._ZL24should_always_enable_pwm
                0x200006e6        0x1 c:/px4/workspace/PX4Firmware/Build/px4io-v1_default.build/c/px4/workspace/PX4Firmware/src/modules/px4iofirmware/module.pre.o
 *fill*         0x200006e7        0x1 00
 .bss._ZL10mixer_text
                0x200006e8      0x100 c:/px4/workspace/PX4Firmware/Build/px4io-v1_default.build/c/px4/workspace/PX4Firmware/src/modules/px4iofirmware/module.pre.o
 .bss._ZL8in_mixer
                0x200007e8        0x1 c:/px4/workspace/PX4Firmware/Build/px4io-v1_default.build/c/px4/workspace/PX4Firmware/src/modules/px4iofirmware/module.pre.o
 .bss._ZL6source
                0x200007e9        0x1 c:/px4/workspace/PX4Firmware/Build/px4io-v1_default.build/c/px4/workspace/PX4Firmware/src/modules/px4iofirmware/module.pre.o
 *fill*         0x200007ea        0x2 00
 .bss.rx_dma    0x200007ec        0x4 c:/px4/workspace/PX4Firmware/Build/px4io-v1_default.build/c/px4/workspace/PX4Firmware/src/modules/px4iofirmware/module.pre.o
 .bss.selected_offset
                0x200007f0        0x1 c:/px4/workspace/PX4Firmware/Build/px4io-v1_default.build/c/px4/workspace/PX4Firmware/src/modules/px4iofirmware/module.pre.o
 *fill*         0x200007f1        0x3 00
 .bss.rx_len    0x200007f4        0x4 c:/px4/workspace/PX4Firmware/Build/px4io-v1_default.build/c/px4/workspace/PX4Firmware/src/modules/px4iofirmware/module.pre.o
 .bss.direction
                0x200007f8        0x1 c:/px4/workspace/PX4Firmware/Build/px4io-v1_default.build/c/px4/workspace/PX4Firmware/src/modules/px4iofirmware/module.pre.o
 *fill*         0x200007f9        0x3 00
 .bss.tx_dma    0x200007fc        0x4 c:/px4/workspace/PX4Firmware/Build/px4io-v1_default.build/c/px4/workspace/PX4Firmware/src/modules/px4iofirmware/module.pre.o
 .bss.tx_count  0x20000800        0x4 c:/px4/workspace/PX4Firmware/Build/px4io-v1_default.build/c/px4/workspace/PX4Firmware/src/modules/px4iofirmware/module.pre.o
 .bss.selected_page
                0x20000804        0x1 c:/px4/workspace/PX4Firmware/Build/px4io-v1_default.build/c/px4/workspace/PX4Firmware/src/modules/px4iofirmware/module.pre.o
 *fill*         0x20000805        0x3 00
 .bss.rx_buf    0x20000808       0x44 c:/px4/workspace/PX4Firmware/Build/px4io-v1_default.build/c/px4/workspace/PX4Firmware/src/modules/px4iofirmware/module.pre.o
 .bss.g_irqvector
                0x2000084c      0x138 c:/px4/workspace/PX4Firmware/Build/px4io-v1_default.build/nuttx-export/libs\libnuttx.a(sched-irq_initialize.o)
                0x2000084c                g_irqvector
 .bss.g_mmheap  0x20000984       0xa4 c:/px4/workspace/PX4Firmware/Build/px4io-v1_default.build/nuttx-export/libs\libnuttx.a(mm-mm_user.o)
                0x20000984                g_mmheap
 .bss.current_regs
                0x20000a28        0x4 c:/px4/workspace/PX4Firmware/Build/px4io-v1_default.build/nuttx-export/libs\libnuttx.a(arch-stm32_irq.o)
                0x20000a28                current_regs
 .bss.g_usart1txbuffer
                0x20000a2c       0x40 c:/px4/workspace/PX4Firmware/Build/px4io-v1_default.build/nuttx-export/libs\libnuttx.a(arch-stm32_serial.o)
 .bss.g_usart1rxfifo
                0x20000a6c       0x20 c:/px4/workspace/PX4Firmware/Build/px4io-v1_default.build/nuttx-export/libs\libnuttx.a(arch-stm32_serial.o)
 .bss.g_usart2rxbuffer
                0x20000a8c       0x40 c:/px4/workspace/PX4Firmware/Build/px4io-v1_default.build/nuttx-export/libs\libnuttx.a(arch-stm32_serial.o)
 .bss.g_usart2txbuffer
                0x20000acc       0x40 c:/px4/workspace/PX4Firmware/Build/px4io-v1_default.build/nuttx-export/libs\libnuttx.a(arch-stm32_serial.o)
 .bss.g_usart3rxbuffer
                0x20000b0c       0x40 c:/px4/workspace/PX4Firmware/Build/px4io-v1_default.build/nuttx-export/libs\libnuttx.a(arch-stm32_serial.o)
 .bss.g_usart3txbuffer
                0x20000b4c       0x40 c:/px4/workspace/PX4Firmware/Build/px4io-v1_default.build/nuttx-export/libs\libnuttx.a(arch-stm32_serial.o)
 .bss.g_usart1rxbuffer
                0x20000b8c       0x40 c:/px4/workspace/PX4Firmware/Build/px4io-v1_default.build/nuttx-export/libs\libnuttx.a(arch-stm32_serial.o)
 .bss.g_usart3rxfifo
                0x20000bcc       0x20 c:/px4/workspace/PX4Firmware/Build/px4io-v1_default.build/nuttx-export/libs\libnuttx.a(arch-stm32_serial.o)
 .bss.__dso_handle
                0x20000bec        0x4 c:/px4/workspace/PX4Firmware/Build/px4io-v1_default.build/nuttx-export/libs\libnuttx.a(cxx-libxx_cxa_atexit.o)
                0x20000bec                __dso_handle
 .bss.g_irqerrno
                0x20000bf0        0x4 c:/px4/workspace/PX4Firmware/Build/px4io-v1_default.build/nuttx-export/libs\libnuttx.a(sched-errno_getptr.o)
 .bss.g_pendingtasks
                0x20000bf4        0x8 c:/px4/workspace/PX4Firmware/Build/px4io-v1_default.build/nuttx-export/libs\libnuttx.a(sched-os_start.o)
                0x20000bf4                g_pendingtasks
 .bss.g_delayed_kufree
                0x20000bfc        0x8 c:/px4/workspace/PX4Firmware/Build/px4io-v1_default.build/nuttx-export/libs\libnuttx.a(sched-os_start.o)
                0x20000bfc                g_delayed_kufree
 .bss.g_waitingforsemaphore
                0x20000c04        0x8 c:/px4/workspace/PX4Firmware/Build/px4io-v1_default.build/nuttx-export/libs\libnuttx.a(sched-os_start.o)
                0x20000c04                g_waitingforsemaphore
 .bss.g_pidhash
                0x20000c0c       0x20 c:/px4/workspace/PX4Firmware/Build/px4io-v1_default.build/nuttx-export/libs\libnuttx.a(sched-os_start.o)
                0x20000c0c                g_pidhash
 .bss.g_lastpid
                0x20000c2c        0x2 c:/px4/workspace/PX4Firmware/Build/px4io-v1_default.build/nuttx-export/libs\libnuttx.a(sched-os_start.o)
                0x20000c2c                g_lastpid
 *fill*         0x20000c2e        0x2 00
 .bss.g_readytorun
                0x20000c30        0x8 c:/px4/workspace/PX4Firmware/Build/px4io-v1_default.build/nuttx-export/libs\libnuttx.a(sched-os_start.o)
                0x20000c30                g_readytorun
 .bss.g_inactivetasks
                0x20000c38        0x8 c:/px4/workspace/PX4Firmware/Build/px4io-v1_default.build/nuttx-export/libs\libnuttx.a(sched-os_start.o)
                0x20000c38                g_inactivetasks
 .bss.g_idletcb
                0x20000c40       0xa4 c:/px4/workspace/PX4Firmware/Build/px4io-v1_default.build/nuttx-export/libs\libnuttx.a(sched-os_start.o)
 .bss.g_wdfreelist
                0x20000ce4        0x8 c:/px4/workspace/PX4Firmware/Build/px4io-v1_default.build/nuttx-export/libs\libnuttx.a(sched-wd_initialize.o)
                0x20000ce4                g_wdfreelist
 .bss.g_wdpool  0x20000cec        0x4 c:/px4/workspace/PX4Firmware/Build/px4io-v1_default.build/nuttx-export/libs\libnuttx.a(sched-wd_initialize.o)
                0x20000cec                g_wdpool
 .bss.g_wdactivelist
                0x20000cf0        0x8 c:/px4/workspace/PX4Firmware/Build/px4io-v1_default.build/nuttx-export/libs\libnuttx.a(sched-wd_initialize.o)
                0x20000cf0                g_wdactivelist
 .bss.root_inode
                0x20000cf8        0x4 c:/px4/workspace/PX4Firmware/Build/px4io-v1_default.build/nuttx-export/libs\libnuttx.a(fs-fs_inode.o)
                0x20000cf8                root_inode
 .bss.tree_sem  0x20000cfc        0x2 c:/px4/workspace/PX4Firmware/Build/px4io-v1_default.build/nuttx-export/libs\libnuttx.a(fs-fs_inode.o)
 *(.gnu.linkonce.b.*)
 *(COMMON)
                0x20000cfe                _ebss = ABSOLUTE (.)

.stab
 *(.stab)

.stabstr
 *(.stabstr)

.stab.excl
 *(.stab.excl)

.stab.exclstr
 *(.stab.exclstr)

.stab.index
 *(.stab.index)

.stab.indexstr
 *(.stab.indexstr)

.comment        0x00000000       0x70
 *(.comment)
 .comment       0x00000000       0x70 c:/px4/workspace/PX4Firmware/Build/px4io-v1_default.build/c/px4/workspace/PX4Firmware/Build/px4io-v1_default.build/empty.c.o
                                 0x71 (size before relaxing)
 .comment       0x00000000       0xe2 c:/px4/workspace/PX4Firmware/Build/px4io-v1_default.build/c/px4/workspace/PX4Firmware/src/drivers/boards/px4io-v1/module.pre.o
 .comment       0x00000000       0xe2 c:/px4/workspace/PX4Firmware/Build/px4io-v1_default.build/c/px4/workspace/PX4Firmware/src/drivers/stm32/module.pre.o
 .comment       0x00000000      0x710 c:/px4/workspace/PX4Firmware/Build/px4io-v1_default.build/c/px4/workspace/PX4Firmware/src/modules/px4iofirmware/module.pre.o
 .comment       0x00000000       0x71 c:/px4/workspace/PX4Firmware/Build/px4io-v1_default.build/nuttx-export/libs\libnuttx.a(sched-irq_attach.o)
 .comment       0x00000000       0x71 c:/px4/workspace/PX4Firmware/Build/px4io-v1_default.build/nuttx-export/libs\libnuttx.a(sched-irq_initialize.o)
 .comment       0x00000000       0x71 c:/px4/workspace/PX4Firmware/Build/px4io-v1_default.build/nuttx-export/libs\libnuttx.a(sched-irq_unexpectedisr.o)
 .comment       0x00000000       0x71 c:/px4/workspace/PX4Firmware/Build/px4io-v1_default.build/nuttx-export/libs\libnuttx.a(c-lib_abort.o)
 .comment       0x00000000       0x71 c:/px4/workspace/PX4Firmware/Build/px4io-v1_default.build/nuttx-export/libs\libnuttx.a(c-lib_cfsetspeed.o)
 .comment       0x00000000       0x71 c:/px4/workspace/PX4Firmware/Build/px4io-v1_default.build/nuttx-export/libs\libnuttx.a(c-lib_crc32.o)
 .comment       0x00000000       0x71 c:/px4/workspace/PX4Firmware/Build/px4io-v1_default.build/nuttx-export/libs\libnuttx.a(c-lib_lowsyslog.o)
 .comment       0x00000000       0x71 c:/px4/workspace/PX4Firmware/Build/px4io-v1_default.build/nuttx-export/libs\libnuttx.a(c-lib_memchr.o)
 .comment       0x00000000       0x71 c:/px4/workspace/PX4Firmware/Build/px4io-v1_default.build/nuttx-export/libs\libnuttx.a(c-lib_memcpy.o)
 .comment       0x00000000       0x71 c:/px4/workspace/PX4Firmware/Build/px4io-v1_default.build/nuttx-export/libs\libnuttx.a(c-lib_memset.o)
 .comment       0x00000000       0x71 c:/px4/workspace/PX4Firmware/Build/px4io-v1_default.build/nuttx-export/libs\libnuttx.a(c-lib_printf.o)
 .comment       0x00000000       0x71 c:/px4/workspace/PX4Firmware/Build/px4io-v1_default.build/nuttx-export/libs\libnuttx.a(c-lib_sscanf.o)
 .comment       0x00000000       0x71 c:/px4/workspace/PX4Firmware/Build/px4io-v1_default.build/nuttx-export/libs\libnuttx.a(c-lib_strchr.o)
 .comment       0x00000000       0x71 c:/px4/workspace/PX4Firmware/Build/px4io-v1_default.build/nuttx-export/libs\libnuttx.a(c-lib_strcmp.o)
 .comment       0x00000000       0x71 c:/px4/workspace/PX4Firmware/Build/px4io-v1_default.build/nuttx-export/libs\libnuttx.a(c-lib_strcspn.o)
 .comment       0x00000000       0x71 c:/px4/workspace/PX4Firmware/Build/px4io-v1_default.build/nuttx-export/libs\libnuttx.a(c-lib_strncpy.o)
 .comment       0x00000000       0x71 c:/px4/workspace/PX4Firmware/Build/px4io-v1_default.build/nuttx-export/libs\libnuttx.a(c-lib_strtol.o)
 .comment       0x00000000       0x71 c:/px4/workspace/PX4Firmware/Build/px4io-v1_default.build/nuttx-export/libs\libnuttx.a(c-lib_strtoul.o)
 .comment       0x00000000       0x71 c:/px4/workspace/PX4Firmware/Build/px4io-v1_default.build/nuttx-export/libs\libnuttx.a(c-lib_syslog.o)
 .comment       0x00000000       0x71 c:/px4/workspace/PX4Firmware/Build/px4io-v1_default.build/nuttx-export/libs\libnuttx.a(c-lib_tcgetattr.o)
 .comment       0x00000000       0x71 c:/px4/workspace/PX4Firmware/Build/px4io-v1_default.build/nuttx-export/libs\libnuttx.a(c-lib_tcsetattr.o)
 .comment       0x00000000       0x71 c:/px4/workspace/PX4Firmware/Build/px4io-v1_default.build/nuttx-export/libs\libnuttx.a(c-lib_vsnprintf.o)
 .comment       0x00000000       0x71 c:/px4/workspace/PX4Firmware/Build/px4io-v1_default.build/nuttx-export/libs\libnuttx.a(c-sq_addafter.o)
 .comment       0x00000000       0x71 c:/px4/workspace/PX4Firmware/Build/px4io-v1_default.build/nuttx-export/libs\libnuttx.a(c-sq_addfirst.o)
 .comment       0x00000000       0x71 c:/px4/workspace/PX4Firmware/Build/px4io-v1_default.build/nuttx-export/libs\libnuttx.a(c-sq_addlast.o)
 .comment       0x00000000       0x71 c:/px4/workspace/PX4Firmware/Build/px4io-v1_default.build/nuttx-export/libs\libnuttx.a(c-sq_rem.o)
 .comment       0x00000000       0x71 c:/px4/workspace/PX4Firmware/Build/px4io-v1_default.build/nuttx-export/libs\libnuttx.a(c-sq_remafter.o)
 .comment       0x00000000       0x71 c:/px4/workspace/PX4Firmware/Build/px4io-v1_default.build/nuttx-export/libs\libnuttx.a(mm-mm_calloc.o)
 .comment       0x00000000       0x71 c:/px4/workspace/PX4Firmware/Build/px4io-v1_default.build/nuttx-export/libs\libnuttx.a(mm-mm_free.o)
 .comment       0x00000000       0x71 c:/px4/workspace/PX4Firmware/Build/px4io-v1_default.build/nuttx-export/libs\libnuttx.a(mm-mm_mallinfo.o)
 .comment       0x00000000       0x71 c:/px4/workspace/PX4Firmware/Build/px4io-v1_default.build/nuttx-export/libs\libnuttx.a(mm-mm_malloc.o)
 .comment       0x00000000       0x71 c:/px4/workspace/PX4Firmware/Build/px4io-v1_default.build/nuttx-export/libs\libnuttx.a(mm-mm_sem.o)
 .comment       0x00000000       0x71 c:/px4/workspace/PX4Firmware/Build/px4io-v1_default.build/nuttx-export/libs\libnuttx.a(mm-mm_size2ndx.o)
 .comment       0x00000000       0x71 c:/px4/workspace/PX4Firmware/Build/px4io-v1_default.build/nuttx-export/libs\libnuttx.a(mm-mm_user.o)
 .comment       0x00000000       0x71 c:/px4/workspace/PX4Firmware/Build/px4io-v1_default.build/nuttx-export/libs\libnuttx.a(mm-mm_zalloc.o)
 .comment       0x00000000       0x71 c:/px4/workspace/PX4Firmware/Build/px4io-v1_default.build/nuttx-export/libs\libnuttx.a(arch-stm32_dma.o)
 .comment       0x00000000       0x71 c:/px4/workspace/PX4Firmware/Build/px4io-v1_default.build/nuttx-export/libs\libnuttx.a(arch-stm32_gpio.o)
 .comment       0x00000000       0x71 c:/px4/workspace/PX4Firmware/Build/px4io-v1_default.build/nuttx-export/libs\libnuttx.a(arch-stm32_irq.o)
 .comment       0x00000000       0x71 c:/px4/workspace/PX4Firmware/Build/px4io-v1_default.build/nuttx-export/libs\libnuttx.a(arch-stm32_serial.o)
 .comment       0x00000000       0x71 c:/px4/workspace/PX4Firmware/Build/px4io-v1_default.build/nuttx-export/libs\libnuttx.a(arch-stm32_start.o)
 .comment       0x00000000       0x71 c:/px4/workspace/PX4Firmware/Build/px4io-v1_default.build/nuttx-export/libs\libnuttx.a(arch-up_assert.o)
 .comment       0x00000000       0x71 c:/px4/workspace/PX4Firmware/Build/px4io-v1_default.build/nuttx-export/libs\libnuttx.a(arch-up_hardfault.o)
 .comment       0x00000000       0x71 c:/px4/workspace/PX4Firmware/Build/px4io-v1_default.build/nuttx-export/libs\libnuttx.a(arch-up_modifyreg32.o)
 .comment       0x00000000       0x71 c:/px4/workspace/PX4Firmware/Build/px4io-v1_default.build/nuttx-export/libs\libnuttx.a(arch-up_svcall.o)
 .comment       0x00000000       0x71 c:/px4/workspace/PX4Firmware/Build/px4io-v1_default.build/nuttx-export/libs\libnuttx.a(arch-up_systemreset.o)
 .comment       0x00000000       0x71 c:/px4/workspace/PX4Firmware/Build/px4io-v1_default.build/nuttx-export/libs\libnuttx.a(arch-up_udelay.o)
 .comment       0x00000000       0x71 c:/px4/workspace/PX4Firmware/Build/px4io-v1_default.build/nuttx-export/libs\libnuttx.a(arch-up_vectors.o)
 .comment       0x00000000       0x71 c:/px4/workspace/PX4Firmware/Build/px4io-v1_default.build/nuttx-export/libs\libnuttx.a(cxx-libxx_cxa_atexit.o)
 .comment       0x00000000       0x71 c:/px4/workspace/PX4Firmware/Build/px4io-v1_default.build/nuttx-export/libs\libnuttx.a(cxx-libxx_cxapurevirtual.o)
 .comment       0x00000000       0x71 c:/px4/workspace/PX4Firmware/Build/px4io-v1_default.build/nuttx-export/libs\libnuttx.a(cxx-libxx_delete.o)
 .comment       0x00000000       0x71 c:/px4/workspace/PX4Firmware/Build/px4io-v1_default.build/nuttx-export/libs\libnuttx.a(cxx-libxx_eabi_atexit.o)
 .comment       0x00000000       0x71 c:/px4/workspace/PX4Firmware/Build/px4io-v1_default.build/nuttx-export/libs\libnuttx.a(cxx-libxx_new.o)
 .comment       0x00000000       0x71 c:/px4/workspace/PX4Firmware/Build/px4io-v1_default.build/nuttx-export/libs\libnuttx.a(fs-fs_ioctl.o)
 .comment       0x00000000       0x71 c:/px4/workspace/PX4Firmware/Build/px4io-v1_default.build/nuttx-export/libs\libnuttx.a(fs-fs_open.o)
 .comment       0x00000000       0x71 c:/px4/workspace/PX4Firmware/Build/px4io-v1_default.build/nuttx-export/libs\libnuttx.a(fs-fs_read.o)
 .comment       0x00000000       0x71 c:/px4/workspace/PX4Firmware/Build/px4io-v1_default.build/nuttx-export/libs\libnuttx.a(drivers-serial.o)
 .comment       0x00000000       0x71 c:/px4/workspace/PX4Firmware/Build/px4io-v1_default.build/nuttx-export/libs\libnuttx.a(drivers-serialirq.o)
 .comment       0x00000000       0x71 c:/px4/workspace/PX4Firmware/Build/px4io-v1_default.build/nuttx-export/libs\libnuttx.a(sched-errno_getptr.o)
 .comment       0x00000000       0x71 c:/px4/workspace/PX4Firmware/Build/px4io-v1_default.build/nuttx-export/libs\libnuttx.a(sched-exit.o)
 .comment       0x00000000       0x71 c:/px4/workspace/PX4Firmware/Build/px4io-v1_default.build/nuttx-export/libs\libnuttx.a(sched-getpid.o)
 .comment       0x00000000       0x71 c:/px4/workspace/PX4Firmware/Build/px4io-v1_default.build/nuttx-export/libs\libnuttx.a(sched-os_start.o)
 .comment       0x00000000       0x71 c:/px4/workspace/PX4Firmware/Build/px4io-v1_default.build/nuttx-export/libs\libnuttx.a(sched-sched_garbage.o)
 .comment       0x00000000       0x71 c:/px4/workspace/PX4Firmware/Build/px4io-v1_default.build/nuttx-export/libs\libnuttx.a(sched-sched_getfiles.o)
 .comment       0x00000000       0x71 c:/px4/workspace/PX4Firmware/Build/px4io-v1_default.build/nuttx-export/libs\libnuttx.a(sched-sem_post.o)
 .comment       0x00000000       0x71 c:/px4/workspace/PX4Firmware/Build/px4io-v1_default.build/nuttx-export/libs\libnuttx.a(sched-sem_trywait.o)
 .comment       0x00000000       0x71 c:/px4/workspace/PX4Firmware/Build/px4io-v1_default.build/nuttx-export/libs\libnuttx.a(sched-sem_wait.o)
 .comment       0x00000000       0x71 c:/px4/workspace/PX4Firmware/Build/px4io-v1_default.build/nuttx-export/libs\libnuttx.a(sched-task_exithook.o)
 .comment       0x00000000       0x71 c:/px4/workspace/PX4Firmware/Build/px4io-v1_default.build/nuttx-export/libs\libnuttx.a(sched-task_recover.o)
 .comment       0x00000000       0x71 c:/px4/workspace/PX4Firmware/Build/px4io-v1_default.build/nuttx-export/libs\libnuttx.a(sched-wd_cancel.o)
 .comment       0x00000000       0x71 c:/px4/workspace/PX4Firmware/Build/px4io-v1_default.build/nuttx-export/libs\libnuttx.a(sched-wd_delete.o)
 .comment       0x00000000       0x71 c:/px4/workspace/PX4Firmware/Build/px4io-v1_default.build/nuttx-export/libs\libnuttx.a(sched-wd_initialize.o)
 .comment       0x00000000       0x71 c:/px4/workspace/PX4Firmware/Build/px4io-v1_default.build/nuttx-export/libs\libnuttx.a(c-dq_addfirst.o)
 .comment       0x00000000       0x71 c:/px4/workspace/PX4Firmware/Build/px4io-v1_default.build/nuttx-export/libs\libnuttx.a(c-lib_cfgetspeed.o)
 .comment       0x00000000       0x71 c:/px4/workspace/PX4Firmware/Build/px4io-v1_default.build/nuttx-export/libs\libnuttx.a(c-lib_checkbase.o)
 .comment       0x00000000       0x71 c:/px4/workspace/PX4Firmware/Build/px4io-v1_default.build/nuttx-export/libs\libnuttx.a(c-lib_isbasedigit.o)
 .comment       0x00000000       0x71 c:/px4/workspace/PX4Firmware/Build/px4io-v1_default.build/nuttx-export/libs\libnuttx.a(c-lib_libvsprintf.o)
 .comment       0x00000000       0x71 c:/px4/workspace/PX4Firmware/Build/px4io-v1_default.build/nuttx-export/libs\libnuttx.a(c-lib_lowoutstream.o)
 .comment       0x00000000       0x71 c:/px4/workspace/PX4Firmware/Build/px4io-v1_default.build/nuttx-export/libs\libnuttx.a(c-lib_memoutstream.o)
 .comment       0x00000000       0x71 c:/px4/workspace/PX4Firmware/Build/px4io-v1_default.build/nuttx-export/libs\libnuttx.a(c-lib_nulloutstream.o)
 .comment       0x00000000       0x71 c:/px4/workspace/PX4Firmware/Build/px4io-v1_default.build/nuttx-export/libs\libnuttx.a(c-lib_rawoutstream.o)
 .comment       0x00000000       0x71 c:/px4/workspace/PX4Firmware/Build/px4io-v1_default.build/nuttx-export/libs\libnuttx.a(c-lib_skipspace.o)
 .comment       0x00000000       0x71 c:/px4/workspace/PX4Firmware/Build/px4io-v1_default.build/nuttx-export/libs\libnuttx.a(c-lib_strcpy.o)
 .comment       0x00000000       0x71 c:/px4/workspace/PX4Firmware/Build/px4io-v1_default.build/nuttx-export/libs\libnuttx.a(c-lib_strlen.o)
 .comment       0x00000000       0x71 c:/px4/workspace/PX4Firmware/Build/px4io-v1_default.build/nuttx-export/libs\libnuttx.a(c-sem_init.o)
 .comment       0x00000000       0x71 c:/px4/workspace/PX4Firmware/Build/px4io-v1_default.build/nuttx-export/libs\libnuttx.a(c-sq_remfirst.o)
 .comment       0x00000000       0x71 c:/px4/workspace/PX4Firmware/Build/px4io-v1_default.build/nuttx-export/libs\libnuttx.a(mm-mm_addfreechunk.o)
 .comment       0x00000000       0x71 c:/px4/workspace/PX4Firmware/Build/px4io-v1_default.build/nuttx-export/libs\libnuttx.a(mm-mm_initialize.o)
 .comment       0x00000000       0x71 c:/px4/workspace/PX4Firmware/Build/px4io-v1_default.build/nuttx-export/libs\libnuttx.a(arch-stm32_allocateheap.o)
 .comment       0x00000000       0x71 c:/px4/workspace/PX4Firmware/Build/px4io-v1_default.build/nuttx-export/libs\libnuttx.a(arch-stm32_idle.o)
 .comment       0x00000000       0x71 c:/px4/workspace/PX4Firmware/Build/px4io-v1_default.build/nuttx-export/libs\libnuttx.a(arch-stm32_lowputc.o)
 .comment       0x00000000       0x71 c:/px4/workspace/PX4Firmware/Build/px4io-v1_default.build/nuttx-export/libs\libnuttx.a(arch-stm32_rcc.o)
 .comment       0x00000000       0x71 c:/px4/workspace/PX4Firmware/Build/px4io-v1_default.build/nuttx-export/libs\libnuttx.a(arch-up_blocktask.o)
 .comment       0x00000000       0x71 c:/px4/workspace/PX4Firmware/Build/px4io-v1_default.build/nuttx-export/libs\libnuttx.a(arch-up_copystate.o)
 .comment       0x00000000       0x71 c:/px4/workspace/PX4Firmware/Build/px4io-v1_default.build/nuttx-export/libs\libnuttx.a(arch-up_exit.o)
 .comment       0x00000000       0x71 c:/px4/workspace/PX4Firmware/Build/px4io-v1_default.build/nuttx-export/libs\libnuttx.a(arch-up_initialize.o)
 .comment       0x00000000       0x71 c:/px4/workspace/PX4Firmware/Build/px4io-v1_default.build/nuttx-export/libs\libnuttx.a(arch-up_initialstate.o)
 .comment       0x00000000       0x71 c:/px4/workspace/PX4Firmware/Build/px4io-v1_default.build/nuttx-export/libs\libnuttx.a(arch-up_interruptcontext.o)
 .comment       0x00000000       0x71 c:/px4/workspace/PX4Firmware/Build/px4io-v1_default.build/nuttx-export/libs\libnuttx.a(arch-up_mdelay.o)
 .comment       0x00000000       0x71 c:/px4/workspace/PX4Firmware/Build/px4io-v1_default.build/nuttx-export/libs\libnuttx.a(arch-up_unblocktask.o)
 .comment       0x00000000       0x71 c:/px4/workspace/PX4Firmware/Build/px4io-v1_default.build/nuttx-export/libs\libnuttx.a(fs-fs_files.o)
 .comment       0x00000000       0x71 c:/px4/workspace/PX4Firmware/Build/px4io-v1_default.build/nuttx-export/libs\libnuttx.a(fs-fs_inodeaddref.o)
 .comment       0x00000000       0x71 c:/px4/workspace/PX4Firmware/Build/px4io-v1_default.build/nuttx-export/libs\libnuttx.a(fs-fs_inodefind.o)
 .comment       0x00000000       0x71 c:/px4/workspace/PX4Firmware/Build/px4io-v1_default.build/nuttx-export/libs\libnuttx.a(fs-fs_inoderelease.o)
 .comment       0x00000000       0x71 c:/px4/workspace/PX4Firmware/Build/px4io-v1_default.build/nuttx-export/libs\libnuttx.a(fs-fs_registerdriver.o)
 .comment       0x00000000       0x71 c:/px4/workspace/PX4Firmware/Build/px4io-v1_default.build/nuttx-export/libs\libnuttx.a(fs-fs_write.o)
 .comment       0x00000000       0x71 c:/px4/workspace/PX4Firmware/Build/px4io-v1_default.build/nuttx-export/libs\libnuttx.a(sched-group_create.o)
 .comment       0x00000000       0x71 c:/px4/workspace/PX4Firmware/Build/px4io-v1_default.build/nuttx-export/libs\libnuttx.a(sched-group_leave.o)
 .comment       0x00000000       0x71 c:/px4/workspace/PX4Firmware/Build/px4io-v1_default.build/nuttx-export/libs\libnuttx.a(sched-group_setupidlefiles.o)
 .comment       0x00000000       0x71 c:/px4/workspace/PX4Firmware/Build/px4io-v1_default.build/nuttx-export/libs\libnuttx.a(sched-os_bringup.o)
 .comment       0x00000000       0x71 c:/px4/workspace/PX4Firmware/Build/px4io-v1_default.build/nuttx-export/libs\libnuttx.a(sched-sched_addblocked.o)
 .comment       0x00000000       0x71 c:/px4/workspace/PX4Firmware/Build/px4io-v1_default.build/nuttx-export/libs\libnuttx.a(sched-sched_addprioritized.o)
 .comment       0x00000000       0x71 c:/px4/workspace/PX4Firmware/Build/px4io-v1_default.build/nuttx-export/libs\libnuttx.a(sched-sched_addreadytorun.o)
 .comment       0x00000000       0x71 c:/px4/workspace/PX4Firmware/Build/px4io-v1_default.build/nuttx-export/libs\libnuttx.a(sched-sched_free.o)
 .comment       0x00000000       0x71 c:/px4/workspace/PX4Firmware/Build/px4io-v1_default.build/nuttx-export/libs\libnuttx.a(sched-sched_mergepending.o)
 .comment       0x00000000       0x71 c:/px4/workspace/PX4Firmware/Build/px4io-v1_default.build/nuttx-export/libs\libnuttx.a(sched-sched_removeblocked.o)
 .comment       0x00000000       0x71 c:/px4/workspace/PX4Firmware/Build/px4io-v1_default.build/nuttx-export/libs\libnuttx.a(sched-sched_removereadytorun.o)
 .comment       0x00000000       0x71 c:/px4/workspace/PX4Firmware/Build/px4io-v1_default.build/nuttx-export/libs\libnuttx.a(sched-sem_destroy.o)
 .comment       0x00000000       0x71 c:/px4/workspace/PX4Firmware/Build/px4io-v1_default.build/nuttx-export/libs\libnuttx.a(sched-task_create.o)
 .comment       0x00000000       0x71 c:/px4/workspace/PX4Firmware/Build/px4io-v1_default.build/nuttx-export/libs\libnuttx.a(sched-task_exit.o)
 .comment       0x00000000       0x71 c:/px4/workspace/PX4Firmware/Build/px4io-v1_default.build/nuttx-export/libs\libnuttx.a(sched-task_setup.o)
 .comment       0x00000000       0x71 c:/px4/workspace/PX4Firmware/Build/px4io-v1_default.build/nuttx-export/libs\libnuttx.a(sched-task_start.o)
 .comment       0x00000000       0x71 c:/px4/workspace/PX4Firmware/Build/px4io-v1_default.build/nuttx-export/libs\libnuttx.a(sched-task_terminate.o)
 .comment       0x00000000       0x71 c:/px4/workspace/PX4Firmware/Build/px4io-v1_default.build/nuttx-export/libs\libnuttx.a(c-dq_addlast.o)
 .comment       0x00000000       0x71 c:/px4/workspace/PX4Firmware/Build/px4io-v1_default.build/nuttx-export/libs\libnuttx.a(c-dq_rem.o)
 .comment       0x00000000       0x71 c:/px4/workspace/PX4Firmware/Build/px4io-v1_default.build/nuttx-export/libs\libnuttx.a(c-lib_strdup.o)
 .comment       0x00000000       0x71 c:/px4/workspace/PX4Firmware/Build/px4io-v1_default.build/nuttx-export/libs\libnuttx.a(arch-stm32_timerisr.o)
 .comment       0x00000000       0x71 c:/px4/workspace/PX4Firmware/Build/px4io-v1_default.build/nuttx-export/libs\libnuttx.a(arch-up_createstack.o)
 .comment       0x00000000       0x71 c:/px4/workspace/PX4Firmware/Build/px4io-v1_default.build/nuttx-export/libs\libnuttx.a(arch-up_doirq.o)
 .comment       0x00000000       0x71 c:/px4/workspace/PX4Firmware/Build/px4io-v1_default.build/nuttx-export/libs\libnuttx.a(arch-up_releasestack.o)
 .comment       0x00000000       0x71 c:/px4/workspace/PX4Firmware/Build/px4io-v1_default.build/nuttx-export/libs\libnuttx.a(fs-fs_close.o)
 .comment       0x00000000       0x71 c:/px4/workspace/PX4Firmware/Build/px4io-v1_default.build/nuttx-export/libs\libnuttx.a(fs-fs_filedup2.o)
 .comment       0x00000000       0x71 c:/px4/workspace/PX4Firmware/Build/px4io-v1_default.build/nuttx-export/libs\libnuttx.a(fs-fs_inode.o)
 .comment       0x00000000       0x71 c:/px4/workspace/PX4Firmware/Build/px4io-v1_default.build/nuttx-export/libs\libnuttx.a(fs-fs_inodereserve.o)
 .comment       0x00000000       0x71 c:/px4/workspace/PX4Firmware/Build/px4io-v1_default.build/nuttx-export/libs\libnuttx.a(sched-group_setuptaskfiles.o)
 .comment       0x00000000       0x71 c:/px4/workspace/PX4Firmware/Build/px4io-v1_default.build/nuttx-export/libs\libnuttx.a(sched-irq_dispatch.o)
 .comment       0x00000000       0x71 c:/px4/workspace/PX4Firmware/Build/px4io-v1_default.build/nuttx-export/libs\libnuttx.a(sched-sched_gettcb.o)
 .comment       0x00000000       0x71 c:/px4/workspace/PX4Firmware/Build/px4io-v1_default.build/nuttx-export/libs\libnuttx.a(sched-sched_lock.o)
 .comment       0x00000000       0x71 c:/px4/workspace/PX4Firmware/Build/px4io-v1_default.build/nuttx-export/libs\libnuttx.a(sched-sched_processtimer.o)
 .comment       0x00000000       0x71 c:/px4/workspace/PX4Firmware/Build/px4io-v1_default.build/nuttx-export/libs\libnuttx.a(sched-sched_releasetcb.o)
 .comment       0x00000000       0x71 c:/px4/workspace/PX4Firmware/Build/px4io-v1_default.build/nuttx-export/libs\libnuttx.a(sched-sched_unlock.o)
 .comment       0x00000000       0x71 c:/px4/workspace/PX4Firmware/Build/px4io-v1_default.build/nuttx-export/libs\libnuttx.a(sched-task_activate.o)
 .comment       0x00000000       0x71 c:/px4/workspace/PX4Firmware/Build/px4io-v1_default.build/nuttx-export/libs\libnuttx.a(arch-up_releasepending.o)

.ARM.attributes
                0x00000000       0x31
 .ARM.attributes
                0x00000000       0x2f c:/px4/workspace/PX4Firmware/Build/px4io-v1_default.build/c/px4/workspace/PX4Firmware/Build/px4io-v1_default.build/empty.c.o
 .ARM.attributes
                0x0000002f       0x2f c:/px4/workspace/PX4Firmware/Build/px4io-v1_default.build/c/px4/workspace/PX4Firmware/src/drivers/boards/px4io-v1/module.pre.o
 .ARM.attributes
                0x0000005e       0x2f c:/px4/workspace/PX4Firmware/Build/px4io-v1_default.build/c/px4/workspace/PX4Firmware/src/drivers/stm32/module.pre.o
 .ARM.attributes
                0x0000008d       0x2f c:/px4/workspace/PX4Firmware/Build/px4io-v1_default.build/c/px4/workspace/PX4Firmware/src/modules/px4iofirmware/module.pre.o
 .ARM.attributes
                0x000000bc       0x2f c:/px4/workspace/PX4Firmware/Build/px4io-v1_default.build/nuttx-export/libs\libnuttx.a(sched-irq_attach.o)
 .ARM.attributes
                0x000000eb       0x2f c:/px4/workspace/PX4Firmware/Build/px4io-v1_default.build/nuttx-export/libs\libnuttx.a(sched-irq_initialize.o)
 .ARM.attributes
                0x0000011a       0x2f c:/px4/workspace/PX4Firmware/Build/px4io-v1_default.build/nuttx-export/libs\libnuttx.a(sched-irq_unexpectedisr.o)
 .ARM.attributes
                0x00000149       0x2f c:/px4/workspace/PX4Firmware/Build/px4io-v1_default.build/nuttx-export/libs\libnuttx.a(c-lib_abort.o)
 .ARM.attributes
                0x00000178       0x2f c:/px4/workspace/PX4Firmware/Build/px4io-v1_default.build/nuttx-export/libs\libnuttx.a(c-lib_cfsetspeed.o)
 .ARM.attributes
                0x000001a7       0x2f c:/px4/workspace/PX4Firmware/Build/px4io-v1_default.build/nuttx-export/libs\libnuttx.a(c-lib_crc32.o)
 .ARM.attributes
                0x000001d6       0x2f c:/px4/workspace/PX4Firmware/Build/px4io-v1_default.build/nuttx-export/libs\libnuttx.a(c-lib_lowsyslog.o)
 .ARM.attributes
                0x00000205       0x2f c:/px4/workspace/PX4Firmware/Build/px4io-v1_default.build/nuttx-export/libs\libnuttx.a(c-lib_memchr.o)
 .ARM.attributes
                0x00000234       0x2f c:/px4/workspace/PX4Firmware/Build/px4io-v1_default.build/nuttx-export/libs\libnuttx.a(c-lib_memcpy.o)
 .ARM.attributes
                0x00000263       0x2f c:/px4/workspace/PX4Firmware/Build/px4io-v1_default.build/nuttx-export/libs\libnuttx.a(c-lib_memset.o)
 .ARM.attributes
                0x00000292       0x2f c:/px4/workspace/PX4Firmware/Build/px4io-v1_default.build/nuttx-export/libs\libnuttx.a(c-lib_printf.o)
 .ARM.attributes
                0x000002c1       0x2f c:/px4/workspace/PX4Firmware/Build/px4io-v1_default.build/nuttx-export/libs\libnuttx.a(c-lib_sscanf.o)
 .ARM.attributes
                0x000002f0       0x2f c:/px4/workspace/PX4Firmware/Build/px4io-v1_default.build/nuttx-export/libs\libnuttx.a(c-lib_strchr.o)
 .ARM.attributes
                0x0000031f       0x2f c:/px4/workspace/PX4Firmware/Build/px4io-v1_default.build/nuttx-export/libs\libnuttx.a(c-lib_strcmp.o)
 .ARM.attributes
                0x0000034e       0x2f c:/px4/workspace/PX4Firmware/Build/px4io-v1_default.build/nuttx-export/libs\libnuttx.a(c-lib_strcspn.o)
 .ARM.attributes
                0x0000037d       0x2f c:/px4/workspace/PX4Firmware/Build/px4io-v1_default.build/nuttx-export/libs\libnuttx.a(c-lib_strncpy.o)
 .ARM.attributes
                0x000003ac       0x2f c:/px4/workspace/PX4Firmware/Build/px4io-v1_default.build/nuttx-export/libs\libnuttx.a(c-lib_strtol.o)
 .ARM.attributes
                0x000003db       0x2f c:/px4/workspace/PX4Firmware/Build/px4io-v1_default.build/nuttx-export/libs\libnuttx.a(c-lib_strtoul.o)
 .ARM.attributes
                0x0000040a       0x2f c:/px4/workspace/PX4Firmware/Build/px4io-v1_default.build/nuttx-export/libs\libnuttx.a(c-lib_syslog.o)
 .ARM.attributes
                0x00000439       0x2f c:/px4/workspace/PX4Firmware/Build/px4io-v1_default.build/nuttx-export/libs\libnuttx.a(c-lib_tcgetattr.o)
 .ARM.attributes
                0x00000468       0x2f c:/px4/workspace/PX4Firmware/Build/px4io-v1_default.build/nuttx-export/libs\libnuttx.a(c-lib_tcsetattr.o)
 .ARM.attributes
                0x00000497       0x2f c:/px4/workspace/PX4Firmware/Build/px4io-v1_default.build/nuttx-export/libs\libnuttx.a(c-lib_vsnprintf.o)
 .ARM.attributes
                0x000004c6       0x2f c:/px4/workspace/PX4Firmware/Build/px4io-v1_default.build/nuttx-export/libs\libnuttx.a(c-sq_addafter.o)
 .ARM.attributes
                0x000004f5       0x2f c:/px4/workspace/PX4Firmware/Build/px4io-v1_default.build/nuttx-export/libs\libnuttx.a(c-sq_addfirst.o)
 .ARM.attributes
                0x00000524       0x2f c:/px4/workspace/PX4Firmware/Build/px4io-v1_default.build/nuttx-export/libs\libnuttx.a(c-sq_addlast.o)
 .ARM.attributes
                0x00000553       0x2f c:/px4/workspace/PX4Firmware/Build/px4io-v1_default.build/nuttx-export/libs\libnuttx.a(c-sq_rem.o)
 .ARM.attributes
                0x00000582       0x2f c:/px4/workspace/PX4Firmware/Build/px4io-v1_default.build/nuttx-export/libs\libnuttx.a(c-sq_remafter.o)
 .ARM.attributes
                0x000005b1       0x2f c:/px4/workspace/PX4Firmware/Build/px4io-v1_default.build/nuttx-export/libs\libnuttx.a(mm-mm_calloc.o)
 .ARM.attributes
                0x000005e0       0x2f c:/px4/workspace/PX4Firmware/Build/px4io-v1_default.build/nuttx-export/libs\libnuttx.a(mm-mm_free.o)
 .ARM.attributes
                0x0000060f       0x2f c:/px4/workspace/PX4Firmware/Build/px4io-v1_default.build/nuttx-export/libs\libnuttx.a(mm-mm_mallinfo.o)
 .ARM.attributes
                0x0000063e       0x2f c:/px4/workspace/PX4Firmware/Build/px4io-v1_default.build/nuttx-export/libs\libnuttx.a(mm-mm_malloc.o)
 .ARM.attributes
                0x0000066d       0x2f c:/px4/workspace/PX4Firmware/Build/px4io-v1_default.build/nuttx-export/libs\libnuttx.a(mm-mm_sem.o)
 .ARM.attributes
                0x0000069c       0x2f c:/px4/workspace/PX4Firmware/Build/px4io-v1_default.build/nuttx-export/libs\libnuttx.a(mm-mm_size2ndx.o)
 .ARM.attributes
                0x000006cb       0x2f c:/px4/workspace/PX4Firmware/Build/px4io-v1_default.build/nuttx-export/libs\libnuttx.a(mm-mm_user.o)
 .ARM.attributes
                0x000006fa       0x2f c:/px4/workspace/PX4Firmware/Build/px4io-v1_default.build/nuttx-export/libs\libnuttx.a(mm-mm_zalloc.o)
 .ARM.attributes
                0x00000729       0x2f c:/px4/workspace/PX4Firmware/Build/px4io-v1_default.build/nuttx-export/libs\libnuttx.a(arch-stm32_dma.o)
 .ARM.attributes
                0x00000758       0x2f c:/px4/workspace/PX4Firmware/Build/px4io-v1_default.build/nuttx-export/libs\libnuttx.a(arch-stm32_gpio.o)
 .ARM.attributes
                0x00000787       0x2f c:/px4/workspace/PX4Firmware/Build/px4io-v1_default.build/nuttx-export/libs\libnuttx.a(arch-stm32_irq.o)
 .ARM.attributes
                0x000007b6       0x2f c:/px4/workspace/PX4Firmware/Build/px4io-v1_default.build/nuttx-export/libs\libnuttx.a(arch-stm32_serial.o)
 .ARM.attributes
                0x000007e5       0x2f c:/px4/workspace/PX4Firmware/Build/px4io-v1_default.build/nuttx-export/libs\libnuttx.a(arch-stm32_start.o)
 .ARM.attributes
                0x00000814       0x2f c:/px4/workspace/PX4Firmware/Build/px4io-v1_default.build/nuttx-export/libs\libnuttx.a(arch-up_assert.o)
 .ARM.attributes
                0x00000843       0x2f c:/px4/workspace/PX4Firmware/Build/px4io-v1_default.build/nuttx-export/libs\libnuttx.a(arch-up_hardfault.o)
 .ARM.attributes
                0x00000872       0x2f c:/px4/workspace/PX4Firmware/Build/px4io-v1_default.build/nuttx-export/libs\libnuttx.a(arch-up_modifyreg32.o)
 .ARM.attributes
                0x000008a1       0x2f c:/px4/workspace/PX4Firmware/Build/px4io-v1_default.build/nuttx-export/libs\libnuttx.a(arch-up_svcall.o)
 .ARM.attributes
                0x000008d0       0x2f c:/px4/workspace/PX4Firmware/Build/px4io-v1_default.build/nuttx-export/libs\libnuttx.a(arch-up_systemreset.o)
 .ARM.attributes
                0x000008ff       0x2f c:/px4/workspace/PX4Firmware/Build/px4io-v1_default.build/nuttx-export/libs\libnuttx.a(arch-up_udelay.o)
 .ARM.attributes
                0x0000092e       0x2f c:/px4/workspace/PX4Firmware/Build/px4io-v1_default.build/nuttx-export/libs\libnuttx.a(arch-up_vectors.o)
 .ARM.attributes
                0x0000095d       0x2f c:/px4/workspace/PX4Firmware/Build/px4io-v1_default.build/nuttx-export/libs\libnuttx.a(cxx-libxx_cxa_atexit.o)
 .ARM.attributes
                0x0000098c       0x2f c:/px4/workspace/PX4Firmware/Build/px4io-v1_default.build/nuttx-export/libs\libnuttx.a(cxx-libxx_cxapurevirtual.o)
 .ARM.attributes
                0x000009bb       0x2f c:/px4/workspace/PX4Firmware/Build/px4io-v1_default.build/nuttx-export/libs\libnuttx.a(cxx-libxx_delete.o)
 .ARM.attributes
                0x000009ea       0x2f c:/px4/workspace/PX4Firmware/Build/px4io-v1_default.build/nuttx-export/libs\libnuttx.a(cxx-libxx_eabi_atexit.o)
 .ARM.attributes
                0x00000a19       0x2f c:/px4/workspace/PX4Firmware/Build/px4io-v1_default.build/nuttx-export/libs\libnuttx.a(cxx-libxx_new.o)
 .ARM.attributes
                0x00000a48       0x2f c:/px4/workspace/PX4Firmware/Build/px4io-v1_default.build/nuttx-export/libs\libnuttx.a(fs-fs_ioctl.o)
 .ARM.attributes
                0x00000a77       0x2f c:/px4/workspace/PX4Firmware/Build/px4io-v1_default.build/nuttx-export/libs\libnuttx.a(fs-fs_open.o)
 .ARM.attributes
                0x00000aa6       0x2f c:/px4/workspace/PX4Firmware/Build/px4io-v1_default.build/nuttx-export/libs\libnuttx.a(fs-fs_read.o)
 .ARM.attributes
                0x00000ad5       0x2f c:/px4/workspace/PX4Firmware/Build/px4io-v1_default.build/nuttx-export/libs\libnuttx.a(drivers-serial.o)
 .ARM.attributes
                0x00000b04       0x2f c:/px4/workspace/PX4Firmware/Build/px4io-v1_default.build/nuttx-export/libs\libnuttx.a(drivers-serialirq.o)
 .ARM.attributes
                0x00000b33       0x2f c:/px4/workspace/PX4Firmware/Build/px4io-v1_default.build/nuttx-export/libs\libnuttx.a(sched-errno_getptr.o)
 .ARM.attributes
                0x00000b62       0x2f c:/px4/workspace/PX4Firmware/Build/px4io-v1_default.build/nuttx-export/libs\libnuttx.a(sched-exit.o)
 .ARM.attributes
                0x00000b91       0x2f c:/px4/workspace/PX4Firmware/Build/px4io-v1_default.build/nuttx-export/libs\libnuttx.a(sched-getpid.o)
 .ARM.attributes
                0x00000bc0       0x2f c:/px4/workspace/PX4Firmware/Build/px4io-v1_default.build/nuttx-export/libs\libnuttx.a(sched-os_start.o)
 .ARM.attributes
                0x00000bef       0x2f c:/px4/workspace/PX4Firmware/Build/px4io-v1_default.build/nuttx-export/libs\libnuttx.a(sched-sched_garbage.o)
 .ARM.attributes
                0x00000c1e       0x2f c:/px4/workspace/PX4Firmware/Build/px4io-v1_default.build/nuttx-export/libs\libnuttx.a(sched-sched_getfiles.o)
 .ARM.attributes
                0x00000c4d       0x2f c:/px4/workspace/PX4Firmware/Build/px4io-v1_default.build/nuttx-export/libs\libnuttx.a(sched-sem_post.o)
 .ARM.attributes
                0x00000c7c       0x2f c:/px4/workspace/PX4Firmware/Build/px4io-v1_default.build/nuttx-export/libs\libnuttx.a(sched-sem_trywait.o)
 .ARM.attributes
                0x00000cab       0x2f c:/px4/workspace/PX4Firmware/Build/px4io-v1_default.build/nuttx-export/libs\libnuttx.a(sched-sem_wait.o)
 .ARM.attributes
                0x00000cda       0x2f c:/px4/workspace/PX4Firmware/Build/px4io-v1_default.build/nuttx-export/libs\libnuttx.a(sched-task_exithook.o)
 .ARM.attributes
                0x00000d09       0x2f c:/px4/workspace/PX4Firmware/Build/px4io-v1_default.build/nuttx-export/libs\libnuttx.a(sched-task_recover.o)
 .ARM.attributes
                0x00000d38       0x2f c:/px4/workspace/PX4Firmware/Build/px4io-v1_default.build/nuttx-export/libs\libnuttx.a(sched-wd_cancel.o)
 .ARM.attributes
                0x00000d67       0x2f c:/px4/workspace/PX4Firmware/Build/px4io-v1_default.build/nuttx-export/libs\libnuttx.a(sched-wd_delete.o)
 .ARM.attributes
                0x00000d96       0x2f c:/px4/workspace/PX4Firmware/Build/px4io-v1_default.build/nuttx-export/libs\libnuttx.a(sched-wd_initialize.o)
 .ARM.attributes
                0x00000dc5       0x2f c:/px4/workspace/PX4Firmware/Build/px4io-v1_default.build/nuttx-export/libs\libnuttx.a(c-dq_addfirst.o)
 .ARM.attributes
                0x00000df4       0x2f c:/px4/workspace/PX4Firmware/Build/px4io-v1_default.build/nuttx-export/libs\libnuttx.a(c-lib_cfgetspeed.o)
 .ARM.attributes
                0x00000e23       0x2f c:/px4/workspace/PX4Firmware/Build/px4io-v1_default.build/nuttx-export/libs\libnuttx.a(c-lib_checkbase.o)
 .ARM.attributes
                0x00000e52       0x2f c:/px4/workspace/PX4Firmware/Build/px4io-v1_default.build/nuttx-export/libs\libnuttx.a(c-lib_isbasedigit.o)
 .ARM.attributes
                0x00000e81       0x2f c:/px4/workspace/PX4Firmware/Build/px4io-v1_default.build/nuttx-export/libs\libnuttx.a(c-lib_libvsprintf.o)
 .ARM.attributes
                0x00000eb0       0x2f c:/px4/workspace/PX4Firmware/Build/px4io-v1_default.build/nuttx-export/libs\libnuttx.a(c-lib_lowoutstream.o)
 .ARM.attributes
                0x00000edf       0x2f c:/px4/workspace/PX4Firmware/Build/px4io-v1_default.build/nuttx-export/libs\libnuttx.a(c-lib_memoutstream.o)
 .ARM.attributes
                0x00000f0e       0x2f c:/px4/workspace/PX4Firmware/Build/px4io-v1_default.build/nuttx-export/libs\libnuttx.a(c-lib_nulloutstream.o)
 .ARM.attributes
                0x00000f3d       0x2f c:/px4/workspace/PX4Firmware/Build/px4io-v1_default.build/nuttx-export/libs\libnuttx.a(c-lib_rawoutstream.o)
 .ARM.attributes
                0x00000f6c       0x2f c:/px4/workspace/PX4Firmware/Build/px4io-v1_default.build/nuttx-export/libs\libnuttx.a(c-lib_skipspace.o)
 .ARM.attributes
                0x00000f9b       0x2f c:/px4/workspace/PX4Firmware/Build/px4io-v1_default.build/nuttx-export/libs\libnuttx.a(c-lib_strcpy.o)
 .ARM.attributes
                0x00000fca       0x2f c:/px4/workspace/PX4Firmware/Build/px4io-v1_default.build/nuttx-export/libs\libnuttx.a(c-lib_strlen.o)
 .ARM.attributes
                0x00000ff9       0x2f c:/px4/workspace/PX4Firmware/Build/px4io-v1_default.build/nuttx-export/libs\libnuttx.a(c-sem_init.o)
 .ARM.attributes
                0x00001028       0x2f c:/px4/workspace/PX4Firmware/Build/px4io-v1_default.build/nuttx-export/libs\libnuttx.a(c-sq_remfirst.o)
 .ARM.attributes
                0x00001057       0x2f c:/px4/workspace/PX4Firmware/Build/px4io-v1_default.build/nuttx-export/libs\libnuttx.a(mm-mm_addfreechunk.o)
 .ARM.attributes
                0x00001086       0x2f c:/px4/workspace/PX4Firmware/Build/px4io-v1_default.build/nuttx-export/libs\libnuttx.a(mm-mm_initialize.o)
 .ARM.attributes
                0x000010b5       0x2f c:/px4/workspace/PX4Firmware/Build/px4io-v1_default.build/nuttx-export/libs\libnuttx.a(arch-stm32_allocateheap.o)
 .ARM.attributes
                0x000010e4       0x2f c:/px4/workspace/PX4Firmware/Build/px4io-v1_default.build/nuttx-export/libs\libnuttx.a(arch-stm32_idle.o)
 .ARM.attributes
                0x00001113       0x2f c:/px4/workspace/PX4Firmware/Build/px4io-v1_default.build/nuttx-export/libs\libnuttx.a(arch-stm32_lowputc.o)
 .ARM.attributes
                0x00001142       0x2f c:/px4/workspace/PX4Firmware/Build/px4io-v1_default.build/nuttx-export/libs\libnuttx.a(arch-stm32_rcc.o)
 .ARM.attributes
                0x00001171       0x1b c:/px4/workspace/PX4Firmware/Build/px4io-v1_default.build/nuttx-export/libs\libnuttx.a(arch-stm32_vectors.o)
 .ARM.attributes
                0x0000118c       0x2f c:/px4/workspace/PX4Firmware/Build/px4io-v1_default.build/nuttx-export/libs\libnuttx.a(arch-up_blocktask.o)
 .ARM.attributes
                0x000011bb       0x2f c:/px4/workspace/PX4Firmware/Build/px4io-v1_default.build/nuttx-export/libs\libnuttx.a(arch-up_copystate.o)
 .ARM.attributes
                0x000011ea       0x1b c:/px4/workspace/PX4Firmware/Build/px4io-v1_default.build/nuttx-export/libs\libnuttx.a(arch-up_exception.o)
 .ARM.attributes
                0x00001205       0x2f c:/px4/workspace/PX4Firmware/Build/px4io-v1_default.build/nuttx-export/libs\libnuttx.a(arch-up_exit.o)
 .ARM.attributes
                0x00001234       0x1b c:/px4/workspace/PX4Firmware/Build/px4io-v1_default.build/nuttx-export/libs\libnuttx.a(arch-up_fullcontextrestore.o)
 .ARM.attributes
                0x0000124f       0x2f c:/px4/workspace/PX4Firmware/Build/px4io-v1_default.build/nuttx-export/libs\libnuttx.a(arch-up_initialize.o)
 .ARM.attributes
                0x0000127e       0x2f c:/px4/workspace/PX4Firmware/Build/px4io-v1_default.build/nuttx-export/libs\libnuttx.a(arch-up_initialstate.o)
 .ARM.attributes
                0x000012ad       0x2f c:/px4/workspace/PX4Firmware/Build/px4io-v1_default.build/nuttx-export/libs\libnuttx.a(arch-up_interruptcontext.o)
 .ARM.attributes
                0x000012dc       0x2f c:/px4/workspace/PX4Firmware/Build/px4io-v1_default.build/nuttx-export/libs\libnuttx.a(arch-up_mdelay.o)
 .ARM.attributes
                0x0000130b       0x1b c:/px4/workspace/PX4Firmware/Build/px4io-v1_default.build/nuttx-export/libs\libnuttx.a(arch-up_switchcontext.o)
 .ARM.attributes
                0x00001326       0x2f c:/px4/workspace/PX4Firmware/Build/px4io-v1_default.build/nuttx-export/libs\libnuttx.a(arch-up_unblocktask.o)
 .ARM.attributes
                0x00001355       0x2f c:/px4/workspace/PX4Firmware/Build/px4io-v1_default.build/nuttx-export/libs\libnuttx.a(fs-fs_files.o)
 .ARM.attributes
                0x00001384       0x2f c:/px4/workspace/PX4Firmware/Build/px4io-v1_default.build/nuttx-export/libs\libnuttx.a(fs-fs_inodeaddref.o)
 .ARM.attributes
                0x000013b3       0x2f c:/px4/workspace/PX4Firmware/Build/px4io-v1_default.build/nuttx-export/libs\libnuttx.a(fs-fs_inodefind.o)
 .ARM.attributes
                0x000013e2       0x2f c:/px4/workspace/PX4Firmware/Build/px4io-v1_default.build/nuttx-export/libs\libnuttx.a(fs-fs_inoderelease.o)
 .ARM.attributes
                0x00001411       0x2f c:/px4/workspace/PX4Firmware/Build/px4io-v1_default.build/nuttx-export/libs\libnuttx.a(fs-fs_registerdriver.o)
 .ARM.attributes
                0x00001440       0x2f c:/px4/workspace/PX4Firmware/Build/px4io-v1_default.build/nuttx-export/libs\libnuttx.a(fs-fs_write.o)
 .ARM.attributes
                0x0000146f       0x2f c:/px4/workspace/PX4Firmware/Build/px4io-v1_default.build/nuttx-export/libs\libnuttx.a(sched-group_create.o)
 .ARM.attributes
                0x0000149e       0x2f c:/px4/workspace/PX4Firmware/Build/px4io-v1_default.build/nuttx-export/libs\libnuttx.a(sched-group_leave.o)
 .ARM.attributes
                0x000014cd       0x2f c:/px4/workspace/PX4Firmware/Build/px4io-v1_default.build/nuttx-export/libs\libnuttx.a(sched-group_setupidlefiles.o)
 .ARM.attributes
                0x000014fc       0x2f c:/px4/workspace/PX4Firmware/Build/px4io-v1_default.build/nuttx-export/libs\libnuttx.a(sched-os_bringup.o)
 .ARM.attributes
                0x0000152b       0x2f c:/px4/workspace/PX4Firmware/Build/px4io-v1_default.build/nuttx-export/libs\libnuttx.a(sched-sched_addblocked.o)
 .ARM.attributes
                0x0000155a       0x2f c:/px4/workspace/PX4Firmware/Build/px4io-v1_default.build/nuttx-export/libs\libnuttx.a(sched-sched_addprioritized.o)
 .ARM.attributes
                0x00001589       0x2f c:/px4/workspace/PX4Firmware/Build/px4io-v1_default.build/nuttx-export/libs\libnuttx.a(sched-sched_addreadytorun.o)
 .ARM.attributes
                0x000015b8       0x2f c:/px4/workspace/PX4Firmware/Build/px4io-v1_default.build/nuttx-export/libs\libnuttx.a(sched-sched_free.o)
 .ARM.attributes
                0x000015e7       0x2f c:/px4/workspace/PX4Firmware/Build/px4io-v1_default.build/nuttx-export/libs\libnuttx.a(sched-sched_mergepending.o)
 .ARM.attributes
                0x00001616       0x2f c:/px4/workspace/PX4Firmware/Build/px4io-v1_default.build/nuttx-export/libs\libnuttx.a(sched-sched_removeblocked.o)
 .ARM.attributes
                0x00001645       0x2f c:/px4/workspace/PX4Firmware/Build/px4io-v1_default.build/nuttx-export/libs\libnuttx.a(sched-sched_removereadytorun.o)
 .ARM.attributes
                0x00001674       0x2f c:/px4/workspace/PX4Firmware/Build/px4io-v1_default.build/nuttx-export/libs\libnuttx.a(sched-sem_destroy.o)
 .ARM.attributes
                0x000016a3       0x2f c:/px4/workspace/PX4Firmware/Build/px4io-v1_default.build/nuttx-export/libs\libnuttx.a(sched-task_create.o)
 .ARM.attributes
                0x000016d2       0x2f c:/px4/workspace/PX4Firmware/Build/px4io-v1_default.build/nuttx-export/libs\libnuttx.a(sched-task_exit.o)
 .ARM.attributes
                0x00001701       0x2f c:/px4/workspace/PX4Firmware/Build/px4io-v1_default.build/nuttx-export/libs\libnuttx.a(sched-task_setup.o)
 .ARM.attributes
                0x00001730       0x2f c:/px4/workspace/PX4Firmware/Build/px4io-v1_default.build/nuttx-export/libs\libnuttx.a(sched-task_start.o)
 .ARM.attributes
                0x0000175f       0x2f c:/px4/workspace/PX4Firmware/Build/px4io-v1_default.build/nuttx-export/libs\libnuttx.a(sched-task_terminate.o)
 .ARM.attributes
                0x0000178e       0x2f c:/px4/workspace/PX4Firmware/Build/px4io-v1_default.build/nuttx-export/libs\libnuttx.a(c-dq_addlast.o)
 .ARM.attributes
                0x000017bd       0x2f c:/px4/workspace/PX4Firmware/Build/px4io-v1_default.build/nuttx-export/libs\libnuttx.a(c-dq_rem.o)
 .ARM.attributes
                0x000017ec       0x2f c:/px4/workspace/PX4Firmware/Build/px4io-v1_default.build/nuttx-export/libs\libnuttx.a(c-lib_strdup.o)
 .ARM.attributes
                0x0000181b       0x2f c:/px4/workspace/PX4Firmware/Build/px4io-v1_default.build/nuttx-export/libs\libnuttx.a(arch-stm32_timerisr.o)
 .ARM.attributes
                0x0000184a       0x2f c:/px4/workspace/PX4Firmware/Build/px4io-v1_default.build/nuttx-export/libs\libnuttx.a(arch-up_createstack.o)
 .ARM.attributes
                0x00001879       0x2f c:/px4/workspace/PX4Firmware/Build/px4io-v1_default.build/nuttx-export/libs\libnuttx.a(arch-up_doirq.o)
 .ARM.attributes
                0x000018a8       0x2f c:/px4/workspace/PX4Firmware/Build/px4io-v1_default.build/nuttx-export/libs\libnuttx.a(arch-up_releasestack.o)
 .ARM.attributes
                0x000018d7       0x2f c:/px4/workspace/PX4Firmware/Build/px4io-v1_default.build/nuttx-export/libs\libnuttx.a(fs-fs_close.o)
 .ARM.attributes
                0x00001906       0x2f c:/px4/workspace/PX4Firmware/Build/px4io-v1_default.build/nuttx-export/libs\libnuttx.a(fs-fs_filedup2.o)
 .ARM.attributes
                0x00001935       0x2f c:/px4/workspace/PX4Firmware/Build/px4io-v1_default.build/nuttx-export/libs\libnuttx.a(fs-fs_inode.o)
 .ARM.attributes
                0x00001964       0x2f c:/px4/workspace/PX4Firmware/Build/px4io-v1_default.build/nuttx-export/libs\libnuttx.a(fs-fs_inodereserve.o)
 .ARM.attributes
                0x00001993       0x2f c:/px4/workspace/PX4Firmware/Build/px4io-v1_default.build/nuttx-export/libs\libnuttx.a(sched-group_setuptaskfiles.o)
 .ARM.attributes
                0x000019c2       0x2f c:/px4/workspace/PX4Firmware/Build/px4io-v1_default.build/nuttx-export/libs\libnuttx.a(sched-irq_dispatch.o)
 .ARM.attributes
                0x000019f1       0x2f c:/px4/workspace/PX4Firmware/Build/px4io-v1_default.build/nuttx-export/libs\libnuttx.a(sched-sched_gettcb.o)
 .ARM.attributes
                0x00001a20       0x2f c:/px4/workspace/PX4Firmware/Build/px4io-v1_default.build/nuttx-export/libs\libnuttx.a(sched-sched_lock.o)
 .ARM.attributes
                0x00001a4f       0x2f c:/px4/workspace/PX4Firmware/Build/px4io-v1_default.build/nuttx-export/libs\libnuttx.a(sched-sched_processtimer.o)
 .ARM.attributes
                0x00001a7e       0x2f c:/px4/workspace/PX4Firmware/Build/px4io-v1_default.build/nuttx-export/libs\libnuttx.a(sched-sched_releasetcb.o)
 .ARM.attributes
                0x00001aad       0x2f c:/px4/workspace/PX4Firmware/Build/px4io-v1_default.build/nuttx-export/libs\libnuttx.a(sched-sched_unlock.o)
 .ARM.attributes
                0x00001adc       0x2f c:/px4/workspace/PX4Firmware/Build/px4io-v1_default.build/nuttx-export/libs\libnuttx.a(sched-task_activate.o)
 .ARM.attributes
                0x00001b0b       0x2f c:/px4/workspace/PX4Firmware/Build/px4io-v1_default.build/nuttx-export/libs\libnuttx.a(arch-up_releasepending.o)
 .ARM.attributes
                0x00001b3a       0x1d c:/px4/toolchain/bin/../lib/gcc/arm-none-eabi/4.6.2/armv7-m/libgcc.a(_lshrdi3.o)
 .ARM.attributes
                0x00001b57       0x1d c:/px4/toolchain/bin/../lib/gcc/arm-none-eabi/4.6.2/armv7-m/libgcc.a(_arm_addsubsf3.o)
 .ARM.attributes
                0x00001b74       0x1d c:/px4/toolchain/bin/../lib/gcc/arm-none-eabi/4.6.2/armv7-m/libgcc.a(_arm_muldivsf3.o)
 .ARM.attributes
                0x00001b91       0x1d c:/px4/toolchain/bin/../lib/gcc/arm-none-eabi/4.6.2/armv7-m/libgcc.a(_arm_cmpsf2.o)
 .ARM.attributes
                0x00001bae       0x1d c:/px4/toolchain/bin/../lib/gcc/arm-none-eabi/4.6.2/armv7-m/libgcc.a(_arm_fixsfsi.o)
 .ARM.attributes
                0x00001bcb       0x1d c:/px4/toolchain/bin/../lib/gcc/arm-none-eabi/4.6.2/armv7-m/libgcc.a(_arm_fixunssfsi.o)
 .ARM.attributes
                0x00001be8       0x1d c:/px4/toolchain/bin/../lib/gcc/arm-none-eabi/4.6.2/armv7-m/libgcc.a(_aeabi_uldivmod.o)
 .ARM.attributes
                0x00001c05       0x2d c:/px4/toolchain/bin/../lib/gcc/arm-none-eabi/4.6.2/armv7-m/libgcc.a(bpabi.o)
 .ARM.attributes
                0x00001c32       0x1d c:/px4/toolchain/bin/../lib/gcc/arm-none-eabi/4.6.2/armv7-m/libgcc.a(_dvmd_tls.o)
 .ARM.attributes
                0x00001c4f       0x2d c:/px4/toolchain/bin/../lib/gcc/arm-none-eabi/4.6.2/armv7-m/libgcc.a(_divdi3.o)
 .ARM.attributes
                0x00001c7c       0x2d c:/px4/toolchain/bin/../lib/gcc/arm-none-eabi/4.6.2/armv7-m/libgcc.a(_udivdi3.o)

.debug_abbrev   0x00000000     0xc1ff
 *(.debug_abbrev)
 .debug_abbrev  0x00000000        0x1 c:/px4/workspace/PX4Firmware/Build/px4io-v1_default.build/c/px4/workspace/PX4Firmware/Build/px4io-v1_default.build/empty.c.o
 .debug_abbrev  0x00000001       0xcb c:/px4/workspace/PX4Firmware/Build/px4io-v1_default.build/c/px4/workspace/PX4Firmware/src/drivers/boards/px4io-v1/module.pre.o
 .debug_abbrev  0x000000cc      0x55f c:/px4/workspace/PX4Firmware/Build/px4io-v1_default.build/c/px4/workspace/PX4Firmware/src/drivers/stm32/module.pre.o
 .debug_abbrev  0x0000062b     0x25f5 c:/px4/workspace/PX4Firmware/Build/px4io-v1_default.build/c/px4/workspace/PX4Firmware/src/modules/px4iofirmware/module.pre.o
 .debug_abbrev  0x00002c20      0x13b c:/px4/workspace/PX4Firmware/Build/px4io-v1_default.build/nuttx-export/libs\libnuttx.a(sched-irq_attach.o)
 .debug_abbrev  0x00002d5b       0xb5 c:/px4/workspace/PX4Firmware/Build/px4io-v1_default.build/nuttx-export/libs\libnuttx.a(sched-irq_initialize.o)
 .debug_abbrev  0x00002e10       0xb4 c:/px4/workspace/PX4Firmware/Build/px4io-v1_default.build/nuttx-export/libs\libnuttx.a(sched-irq_unexpectedisr.o)
 .debug_abbrev  0x00002ec4       0x41 c:/px4/workspace/PX4Firmware/Build/px4io-v1_default.build/nuttx-export/libs\libnuttx.a(c-lib_abort.o)
 .debug_abbrev  0x00002f05       0xa9 c:/px4/workspace/PX4Firmware/Build/px4io-v1_default.build/nuttx-export/libs\libnuttx.a(c-lib_cfsetspeed.o)
 .debug_abbrev  0x00002fae       0xd8 c:/px4/workspace/PX4Firmware/Build/px4io-v1_default.build/nuttx-export/libs\libnuttx.a(c-lib_crc32.o)
 .debug_abbrev  0x00003086      0x10b c:/px4/workspace/PX4Firmware/Build/px4io-v1_default.build/nuttx-export/libs\libnuttx.a(c-lib_lowsyslog.o)
 .debug_abbrev  0x00003191       0x8c c:/px4/workspace/PX4Firmware/Build/px4io-v1_default.build/nuttx-export/libs\libnuttx.a(c-lib_memchr.o)
 .debug_abbrev  0x0000321d       0xb2 c:/px4/workspace/PX4Firmware/Build/px4io-v1_default.build/nuttx-export/libs\libnuttx.a(c-lib_memcpy.o)
 .debug_abbrev  0x000032cf       0x8f c:/px4/workspace/PX4Firmware/Build/px4io-v1_default.build/nuttx-export/libs\libnuttx.a(c-lib_memset.o)
 .debug_abbrev  0x0000335e       0xb7 c:/px4/workspace/PX4Firmware/Build/px4io-v1_default.build/nuttx-export/libs\libnuttx.a(c-lib_printf.o)
 .debug_abbrev  0x00003415      0x1ae c:/px4/workspace/PX4Firmware/Build/px4io-v1_default.build/nuttx-export/libs\libnuttx.a(c-lib_sscanf.o)
 .debug_abbrev  0x000035c3       0x73 c:/px4/workspace/PX4Firmware/Build/px4io-v1_default.build/nuttx-export/libs\libnuttx.a(c-lib_strchr.o)
 .debug_abbrev  0x00003636       0x82 c:/px4/workspace/PX4Firmware/Build/px4io-v1_default.build/nuttx-export/libs\libnuttx.a(c-lib_strcmp.o)
 .debug_abbrev  0x000036b8       0x8f c:/px4/workspace/PX4Firmware/Build/px4io-v1_default.build/nuttx-export/libs\libnuttx.a(c-lib_strcspn.o)
 .debug_abbrev  0x00003747       0x8f c:/px4/workspace/PX4Firmware/Build/px4io-v1_default.build/nuttx-export/libs\libnuttx.a(c-lib_strncpy.o)
 .debug_abbrev  0x000037d6       0x7e c:/px4/workspace/PX4Firmware/Build/px4io-v1_default.build/nuttx-export/libs\libnuttx.a(c-lib_strtol.o)
 .debug_abbrev  0x00003854       0x80 c:/px4/workspace/PX4Firmware/Build/px4io-v1_default.build/nuttx-export/libs\libnuttx.a(c-lib_strtoul.o)
 .debug_abbrev  0x000038d4      0x10b c:/px4/workspace/PX4Firmware/Build/px4io-v1_default.build/nuttx-export/libs\libnuttx.a(c-lib_syslog.o)
 .debug_abbrev  0x000039df       0xa9 c:/px4/workspace/PX4Firmware/Build/px4io-v1_default.build/nuttx-export/libs\libnuttx.a(c-lib_tcgetattr.o)
 .debug_abbrev  0x00003a88       0xb0 c:/px4/workspace/PX4Firmware/Build/px4io-v1_default.build/nuttx-export/libs\libnuttx.a(c-lib_tcsetattr.o)
 .debug_abbrev  0x00003b38       0xed c:/px4/workspace/PX4Firmware/Build/px4io-v1_default.build/nuttx-export/libs\libnuttx.a(c-lib_vsnprintf.o)
 .debug_abbrev  0x00003c25       0x86 c:/px4/workspace/PX4Firmware/Build/px4io-v1_default.build/nuttx-export/libs\libnuttx.a(c-sq_addafter.o)
 .debug_abbrev  0x00003cab       0x86 c:/px4/workspace/PX4Firmware/Build/px4io-v1_default.build/nuttx-export/libs\libnuttx.a(c-sq_addfirst.o)
 .debug_abbrev  0x00003d31       0x86 c:/px4/workspace/PX4Firmware/Build/px4io-v1_default.build/nuttx-export/libs\libnuttx.a(c-sq_addlast.o)
 .debug_abbrev  0x00003db7       0x9c c:/px4/workspace/PX4Firmware/Build/px4io-v1_default.build/nuttx-export/libs\libnuttx.a(c-sq_rem.o)
 .debug_abbrev  0x00003e53       0x97 c:/px4/workspace/PX4Firmware/Build/px4io-v1_default.build/nuttx-export/libs\libnuttx.a(c-sq_remafter.o)
 .debug_abbrev  0x00003eea       0x86 c:/px4/workspace/PX4Firmware/Build/px4io-v1_default.build/nuttx-export/libs\libnuttx.a(mm-mm_calloc.o)
 .debug_abbrev  0x00003f70      0x125 c:/px4/workspace/PX4Firmware/Build/px4io-v1_default.build/nuttx-export/libs\libnuttx.a(mm-mm_free.o)
 .debug_abbrev  0x00004095      0x107 c:/px4/workspace/PX4Firmware/Build/px4io-v1_default.build/nuttx-export/libs\libnuttx.a(mm-mm_mallinfo.o)
 .debug_abbrev  0x0000419c      0x120 c:/px4/workspace/PX4Firmware/Build/px4io-v1_default.build/nuttx-export/libs\libnuttx.a(mm-mm_malloc.o)
 .debug_abbrev  0x000042bc       0xec c:/px4/workspace/PX4Firmware/Build/px4io-v1_default.build/nuttx-export/libs\libnuttx.a(mm-mm_sem.o)
 .debug_abbrev  0x000043a8       0x6e c:/px4/workspace/PX4Firmware/Build/px4io-v1_default.build/nuttx-export/libs\libnuttx.a(mm-mm_size2ndx.o)
 .debug_abbrev  0x00004416       0xed c:/px4/workspace/PX4Firmware/Build/px4io-v1_default.build/nuttx-export/libs\libnuttx.a(mm-mm_user.o)
 .debug_abbrev  0x00004503       0x77 c:/px4/workspace/PX4Firmware/Build/px4io-v1_default.build/nuttx-export/libs\libnuttx.a(mm-mm_zalloc.o)
 .debug_abbrev  0x0000457a      0x29f c:/px4/workspace/PX4Firmware/Build/px4io-v1_default.build/nuttx-export/libs\libnuttx.a(arch-stm32_dma.o)
 .debug_abbrev  0x00004819      0x1e8 c:/px4/workspace/PX4Firmware/Build/px4io-v1_default.build/nuttx-export/libs\libnuttx.a(arch-stm32_gpio.o)
 .debug_abbrev  0x00004a01      0x19b c:/px4/workspace/PX4Firmware/Build/px4io-v1_default.build/nuttx-export/libs\libnuttx.a(arch-stm32_irq.o)
 .debug_abbrev  0x00004b9c      0x323 c:/px4/workspace/PX4Firmware/Build/px4io-v1_default.build/nuttx-export/libs\libnuttx.a(arch-stm32_serial.o)
 .debug_abbrev  0x00004ebf       0x8d c:/px4/workspace/PX4Firmware/Build/px4io-v1_default.build/nuttx-export/libs\libnuttx.a(arch-stm32_start.o)
 .debug_abbrev  0x00004f4c      0x26a c:/px4/workspace/PX4Firmware/Build/px4io-v1_default.build/nuttx-export/libs\libnuttx.a(arch-up_assert.o)
 .debug_abbrev  0x000051b6      0x104 c:/px4/workspace/PX4Firmware/Build/px4io-v1_default.build/nuttx-export/libs\libnuttx.a(arch-up_hardfault.o)
 .debug_abbrev  0x000052ba      0x101 c:/px4/workspace/PX4Firmware/Build/px4io-v1_default.build/nuttx-export/libs\libnuttx.a(arch-up_modifyreg32.o)
 .debug_abbrev  0x000053bb       0xb6 c:/px4/workspace/PX4Firmware/Build/px4io-v1_default.build/nuttx-export/libs\libnuttx.a(arch-up_svcall.o)
 .debug_abbrev  0x00005471       0x5d c:/px4/workspace/PX4Firmware/Build/px4io-v1_default.build/nuttx-export/libs\libnuttx.a(arch-up_systemreset.o)
 .debug_abbrev  0x000054ce       0x75 c:/px4/workspace/PX4Firmware/Build/px4io-v1_default.build/nuttx-export/libs\libnuttx.a(arch-up_udelay.o)
 .debug_abbrev  0x00005543       0x53 c:/px4/workspace/PX4Firmware/Build/px4io-v1_default.build/nuttx-export/libs\libnuttx.a(arch-up_vectors.o)
 .debug_abbrev  0x00005596      0x11e c:/px4/workspace/PX4Firmware/Build/px4io-v1_default.build/nuttx-export/libs\libnuttx.a(cxx-libxx_cxa_atexit.o)
 .debug_abbrev  0x000056b4       0x3f c:/px4/workspace/PX4Firmware/Build/px4io-v1_default.build/nuttx-export/libs\libnuttx.a(cxx-libxx_cxapurevirtual.o)
 .debug_abbrev  0x000056f3       0xe7 c:/px4/workspace/PX4Firmware/Build/px4io-v1_default.build/nuttx-export/libs\libnuttx.a(cxx-libxx_delete.o)
 .debug_abbrev  0x000057da       0xed c:/px4/workspace/PX4Firmware/Build/px4io-v1_default.build/nuttx-export/libs\libnuttx.a(cxx-libxx_eabi_atexit.o)
 .debug_abbrev  0x000058c7       0xfd c:/px4/workspace/PX4Firmware/Build/px4io-v1_default.build/nuttx-export/libs\libnuttx.a(cxx-libxx_new.o)
 .debug_abbrev  0x000059c4      0x11e c:/px4/workspace/PX4Firmware/Build/px4io-v1_default.build/nuttx-export/libs\libnuttx.a(fs-fs_ioctl.o)
 .debug_abbrev  0x00005ae2      0x15a c:/px4/workspace/PX4Firmware/Build/px4io-v1_default.build/nuttx-export/libs\libnuttx.a(fs-fs_open.o)
 .debug_abbrev  0x00005c3c      0x174 c:/px4/workspace/PX4Firmware/Build/px4io-v1_default.build/nuttx-export/libs\libnuttx.a(fs-fs_read.o)
 .debug_abbrev  0x00005db0      0x2f0 c:/px4/workspace/PX4Firmware/Build/px4io-v1_default.build/nuttx-export/libs\libnuttx.a(drivers-serial.o)
 .debug_abbrev  0x000060a0      0x14c c:/px4/workspace/PX4Firmware/Build/px4io-v1_default.build/nuttx-export/libs\libnuttx.a(drivers-serialirq.o)
 .debug_abbrev  0x000061ec      0x16d c:/px4/workspace/PX4Firmware/Build/px4io-v1_default.build/nuttx-export/libs\libnuttx.a(sched-errno_getptr.o)
 .debug_abbrev  0x00006359      0x14c c:/px4/workspace/PX4Firmware/Build/px4io-v1_default.build/nuttx-export/libs\libnuttx.a(sched-exit.o)
 .debug_abbrev  0x000064a5      0x12e c:/px4/workspace/PX4Firmware/Build/px4io-v1_default.build/nuttx-export/libs\libnuttx.a(sched-getpid.o)
 .debug_abbrev  0x000065d3      0x19b c:/px4/workspace/PX4Firmware/Build/px4io-v1_default.build/nuttx-export/libs\libnuttx.a(sched-os_start.o)
 .debug_abbrev  0x0000676e      0x134 c:/px4/workspace/PX4Firmware/Build/px4io-v1_default.build/nuttx-export/libs\libnuttx.a(sched-sched_garbage.o)
 .debug_abbrev  0x000068a2      0x13f c:/px4/workspace/PX4Firmware/Build/px4io-v1_default.build/nuttx-export/libs\libnuttx.a(sched-sched_getfiles.o)
 .debug_abbrev  0x000069e1      0x1e3 c:/px4/workspace/PX4Firmware/Build/px4io-v1_default.build/nuttx-export/libs\libnuttx.a(sched-sem_post.o)
 .debug_abbrev  0x00006bc4      0x1e3 c:/px4/workspace/PX4Firmware/Build/px4io-v1_default.build/nuttx-export/libs\libnuttx.a(sched-sem_trywait.o)
 .debug_abbrev  0x00006da7      0x1fb c:/px4/workspace/PX4Firmware/Build/px4io-v1_default.build/nuttx-export/libs\libnuttx.a(sched-sem_wait.o)
 .debug_abbrev  0x00006fa2      0x132 c:/px4/workspace/PX4Firmware/Build/px4io-v1_default.build/nuttx-export/libs\libnuttx.a(sched-task_exithook.o)
 .debug_abbrev  0x000070d4      0x1a9 c:/px4/workspace/PX4Firmware/Build/px4io-v1_default.build/nuttx-export/libs\libnuttx.a(sched-task_recover.o)
 .debug_abbrev  0x0000727d      0x173 c:/px4/workspace/PX4Firmware/Build/px4io-v1_default.build/nuttx-export/libs\libnuttx.a(sched-wd_cancel.o)
 .debug_abbrev  0x000073f0      0x155 c:/px4/workspace/PX4Firmware/Build/px4io-v1_default.build/nuttx-export/libs\libnuttx.a(sched-wd_delete.o)
 .debug_abbrev  0x00007545      0x10c c:/px4/workspace/PX4Firmware/Build/px4io-v1_default.build/nuttx-export/libs\libnuttx.a(sched-wd_initialize.o)
 .debug_abbrev  0x00007651       0x86 c:/px4/workspace/PX4Firmware/Build/px4io-v1_default.build/nuttx-export/libs\libnuttx.a(c-dq_addfirst.o)
 .debug_abbrev  0x000076d7       0xa1 c:/px4/workspace/PX4Firmware/Build/px4io-v1_default.build/nuttx-export/libs\libnuttx.a(c-lib_cfgetspeed.o)
 .debug_abbrev  0x00007778       0x73 c:/px4/workspace/PX4Firmware/Build/px4io-v1_default.build/nuttx-export/libs\libnuttx.a(c-lib_checkbase.o)
 .debug_abbrev  0x000077eb       0x97 c:/px4/workspace/PX4Firmware/Build/px4io-v1_default.build/nuttx-export/libs\libnuttx.a(c-lib_isbasedigit.o)
 .debug_abbrev  0x00007882      0x245 c:/px4/workspace/PX4Firmware/Build/px4io-v1_default.build/nuttx-export/libs\libnuttx.a(c-lib_libvsprintf.o)
 .debug_abbrev  0x00007ac7       0xd6 c:/px4/workspace/PX4Firmware/Build/px4io-v1_default.build/nuttx-export/libs\libnuttx.a(c-lib_lowoutstream.o)
 .debug_abbrev  0x00007b9d      0x133 c:/px4/workspace/PX4Firmware/Build/px4io-v1_default.build/nuttx-export/libs\libnuttx.a(c-lib_memoutstream.o)
 .debug_abbrev  0x00007cd0       0xc7 c:/px4/workspace/PX4Firmware/Build/px4io-v1_default.build/nuttx-export/libs\libnuttx.a(c-lib_nulloutstream.o)
 .debug_abbrev  0x00007d97      0x103 c:/px4/workspace/PX4Firmware/Build/px4io-v1_default.build/nuttx-export/libs\libnuttx.a(c-lib_rawoutstream.o)
 .debug_abbrev  0x00007e9a       0x71 c:/px4/workspace/PX4Firmware/Build/px4io-v1_default.build/nuttx-export/libs\libnuttx.a(c-lib_skipspace.o)
 .debug_abbrev  0x00007f0b       0x82 c:/px4/workspace/PX4Firmware/Build/px4io-v1_default.build/nuttx-export/libs\libnuttx.a(c-lib_strcpy.o)
 .debug_abbrev  0x00007f8d       0x80 c:/px4/workspace/PX4Firmware/Build/px4io-v1_default.build/nuttx-export/libs\libnuttx.a(c-lib_strlen.o)
 .debug_abbrev  0x0000800d       0x97 c:/px4/workspace/PX4Firmware/Build/px4io-v1_default.build/nuttx-export/libs\libnuttx.a(c-sem_init.o)
 .debug_abbrev  0x000080a4       0x97 c:/px4/workspace/PX4Firmware/Build/px4io-v1_default.build/nuttx-export/libs\libnuttx.a(c-sq_remfirst.o)
 .debug_abbrev  0x0000813b       0xb6 c:/px4/workspace/PX4Firmware/Build/px4io-v1_default.build/nuttx-export/libs\libnuttx.a(mm-mm_addfreechunk.o)
 .debug_abbrev  0x000081f1       0xdf c:/px4/workspace/PX4Firmware/Build/px4io-v1_default.build/nuttx-export/libs\libnuttx.a(mm-mm_initialize.o)
 .debug_abbrev  0x000082d0       0x87 c:/px4/workspace/PX4Firmware/Build/px4io-v1_default.build/nuttx-export/libs\libnuttx.a(arch-stm32_allocateheap.o)
 .debug_abbrev  0x00008357       0x41 c:/px4/workspace/PX4Firmware/Build/px4io-v1_default.build/nuttx-export/libs\libnuttx.a(arch-stm32_idle.o)
 .debug_abbrev  0x00008398       0x92 c:/px4/workspace/PX4Firmware/Build/px4io-v1_default.build/nuttx-export/libs\libnuttx.a(arch-stm32_lowputc.o)
 .debug_abbrev  0x0000842a      0x100 c:/px4/workspace/PX4Firmware/Build/px4io-v1_default.build/nuttx-export/libs\libnuttx.a(arch-stm32_rcc.o)
 .debug_abbrev  0x0000852a      0x17a c:/px4/workspace/PX4Firmware/Build/px4io-v1_default.build/nuttx-export/libs\libnuttx.a(arch-up_blocktask.o)
 .debug_abbrev  0x000086a4       0x84 c:/px4/workspace/PX4Firmware/Build/px4io-v1_default.build/nuttx-export/libs\libnuttx.a(arch-up_copystate.o)
 .debug_abbrev  0x00008728       0x14 c:/px4/workspace/PX4Firmware/Build/px4io-v1_default.build/nuttx-export/libs\libnuttx.a(arch-up_exception.o)
 .debug_abbrev  0x0000873c      0x18b c:/px4/workspace/PX4Firmware/Build/px4io-v1_default.build/nuttx-export/libs\libnuttx.a(arch-up_exit.o)
 .debug_abbrev  0x000088c7       0x14 c:/px4/workspace/PX4Firmware/Build/px4io-v1_default.build/nuttx-export/libs\libnuttx.a(arch-up_fullcontextrestore.o)
 .debug_abbrev  0x000088db       0x6f c:/px4/workspace/PX4Firmware/Build/px4io-v1_default.build/nuttx-export/libs\libnuttx.a(arch-up_initialize.o)
 .debug_abbrev  0x0000894a      0x134 c:/px4/workspace/PX4Firmware/Build/px4io-v1_default.build/nuttx-export/libs\libnuttx.a(arch-up_initialstate.o)
 .debug_abbrev  0x00008a7e       0x71 c:/px4/workspace/PX4Firmware/Build/px4io-v1_default.build/nuttx-export/libs\libnuttx.a(arch-up_interruptcontext.o)
 .debug_abbrev  0x00008aef       0x68 c:/px4/workspace/PX4Firmware/Build/px4io-v1_default.build/nuttx-export/libs\libnuttx.a(arch-up_mdelay.o)
 .debug_abbrev  0x00008b57       0x14 c:/px4/workspace/PX4Firmware/Build/px4io-v1_default.build/nuttx-export/libs\libnuttx.a(arch-up_switchcontext.o)
 .debug_abbrev  0x00008b6b      0x16b c:/px4/workspace/PX4Firmware/Build/px4io-v1_default.build/nuttx-export/libs\libnuttx.a(arch-up_unblocktask.o)
 .debug_abbrev  0x00008cd6      0x21e c:/px4/workspace/PX4Firmware/Build/px4io-v1_default.build/nuttx-export/libs\libnuttx.a(fs-fs_files.o)
 .debug_abbrev  0x00008ef4       0xef c:/px4/workspace/PX4Firmware/Build/px4io-v1_default.build/nuttx-export/libs\libnuttx.a(fs-fs_inodeaddref.o)
 .debug_abbrev  0x00008fe3      0x102 c:/px4/workspace/PX4Firmware/Build/px4io-v1_default.build/nuttx-export/libs\libnuttx.a(fs-fs_inodefind.o)
 .debug_abbrev  0x000090e5       0xef c:/px4/workspace/PX4Firmware/Build/px4io-v1_default.build/nuttx-export/libs\libnuttx.a(fs-fs_inoderelease.o)
 .debug_abbrev  0x000091d4      0x10f c:/px4/workspace/PX4Firmware/Build/px4io-v1_default.build/nuttx-export/libs\libnuttx.a(fs-fs_registerdriver.o)
 .debug_abbrev  0x000092e3      0x18e c:/px4/workspace/PX4Firmware/Build/px4io-v1_default.build/nuttx-export/libs\libnuttx.a(fs-fs_write.o)
 .debug_abbrev  0x00009471      0x17a c:/px4/workspace/PX4Firmware/Build/px4io-v1_default.build/nuttx-export/libs\libnuttx.a(sched-group_create.o)
 .debug_abbrev  0x000095eb      0x168 c:/px4/workspace/PX4Firmware/Build/px4io-v1_default.build/nuttx-export/libs\libnuttx.a(sched-group_leave.o)
 .debug_abbrev  0x00009753      0x145 c:/px4/workspace/PX4Firmware/Build/px4io-v1_default.build/nuttx-export/libs\libnuttx.a(sched-group_setupidlefiles.o)
 .debug_abbrev  0x00009898       0x7a c:/px4/workspace/PX4Firmware/Build/px4io-v1_default.build/nuttx-export/libs\libnuttx.a(sched-os_bringup.o)
 .debug_abbrev  0x00009912      0x155 c:/px4/workspace/PX4Firmware/Build/px4io-v1_default.build/nuttx-export/libs\libnuttx.a(sched-sched_addblocked.o)
 .debug_abbrev  0x00009a67      0x154 c:/px4/workspace/PX4Firmware/Build/px4io-v1_default.build/nuttx-export/libs\libnuttx.a(sched-sched_addprioritized.o)
 .debug_abbrev  0x00009bbb      0x175 c:/px4/workspace/PX4Firmware/Build/px4io-v1_default.build/nuttx-export/libs\libnuttx.a(sched-sched_addreadytorun.o)
 .debug_abbrev  0x00009d30      0x12b c:/px4/workspace/PX4Firmware/Build/px4io-v1_default.build/nuttx-export/libs\libnuttx.a(sched-sched_free.o)
 .debug_abbrev  0x00009e5b      0x166 c:/px4/workspace/PX4Firmware/Build/px4io-v1_default.build/nuttx-export/libs\libnuttx.a(sched-sched_mergepending.o)
 .debug_abbrev  0x00009fc1      0x164 c:/px4/workspace/PX4Firmware/Build/px4io-v1_default.build/nuttx-export/libs\libnuttx.a(sched-sched_removeblocked.o)
 .debug_abbrev  0x0000a125      0x166 c:/px4/workspace/PX4Firmware/Build/px4io-v1_default.build/nuttx-export/libs\libnuttx.a(sched-sched_removereadytorun.o)
 .debug_abbrev  0x0000a28b       0x86 c:/px4/workspace/PX4Firmware/Build/px4io-v1_default.build/nuttx-export/libs\libnuttx.a(sched-sem_destroy.o)
 .debug_abbrev  0x0000a311      0x1c7 c:/px4/workspace/PX4Firmware/Build/px4io-v1_default.build/nuttx-export/libs\libnuttx.a(sched-task_create.o)
 .debug_abbrev  0x0000a4d8      0x157 c:/px4/workspace/PX4Firmware/Build/px4io-v1_default.build/nuttx-export/libs\libnuttx.a(sched-task_exit.o)
 .debug_abbrev  0x0000a62f      0x26c c:/px4/workspace/PX4Firmware/Build/px4io-v1_default.build/nuttx-export/libs\libnuttx.a(sched-task_setup.o)
 .debug_abbrev  0x0000a89b      0x14c c:/px4/workspace/PX4Firmware/Build/px4io-v1_default.build/nuttx-export/libs\libnuttx.a(sched-task_start.o)
 .debug_abbrev  0x0000a9e7      0x20a c:/px4/workspace/PX4Firmware/Build/px4io-v1_default.build/nuttx-export/libs\libnuttx.a(sched-task_terminate.o)
 .debug_abbrev  0x0000abf1       0x86 c:/px4/workspace/PX4Firmware/Build/px4io-v1_default.build/nuttx-export/libs\libnuttx.a(c-dq_addlast.o)
 .debug_abbrev  0x0000ac77       0x95 c:/px4/workspace/PX4Firmware/Build/px4io-v1_default.build/nuttx-export/libs\libnuttx.a(c-dq_rem.o)
 .debug_abbrev  0x0000ad0c       0x71 c:/px4/workspace/PX4Firmware/Build/px4io-v1_default.build/nuttx-export/libs\libnuttx.a(c-lib_strdup.o)
 .debug_abbrev  0x0000ad7d       0xb6 c:/px4/workspace/PX4Firmware/Build/px4io-v1_default.build/nuttx-export/libs\libnuttx.a(arch-stm32_timerisr.o)
 .debug_abbrev  0x0000ae33      0x14c c:/px4/workspace/PX4Firmware/Build/px4io-v1_default.build/nuttx-export/libs\libnuttx.a(arch-up_createstack.o)
 .debug_abbrev  0x0000af7f       0xa0 c:/px4/workspace/PX4Firmware/Build/px4io-v1_default.build/nuttx-export/libs\libnuttx.a(arch-up_doirq.o)
 .debug_abbrev  0x0000b01f      0x123 c:/px4/workspace/PX4Firmware/Build/px4io-v1_default.build/nuttx-export/libs\libnuttx.a(arch-up_releasestack.o)
 .debug_abbrev  0x0000b142       0x6e c:/px4/workspace/PX4Firmware/Build/px4io-v1_default.build/nuttx-export/libs\libnuttx.a(fs-fs_close.o)
 .debug_abbrev  0x0000b1b0      0x102 c:/px4/workspace/PX4Firmware/Build/px4io-v1_default.build/nuttx-export/libs\libnuttx.a(fs-fs_filedup2.o)
 .debug_abbrev  0x0000b2b2      0x206 c:/px4/workspace/PX4Firmware/Build/px4io-v1_default.build/nuttx-export/libs\libnuttx.a(fs-fs_inode.o)
 .debug_abbrev  0x0000b4b8      0x1fa c:/px4/workspace/PX4Firmware/Build/px4io-v1_default.build/nuttx-export/libs\libnuttx.a(fs-fs_inodereserve.o)
 .debug_abbrev  0x0000b6b2      0x136 c:/px4/workspace/PX4Firmware/Build/px4io-v1_default.build/nuttx-export/libs\libnuttx.a(sched-group_setuptaskfiles.o)
 .debug_abbrev  0x0000b7e8       0xc2 c:/px4/workspace/PX4Firmware/Build/px4io-v1_default.build/nuttx-export/libs\libnuttx.a(sched-irq_dispatch.o)
 .debug_abbrev  0x0000b8aa      0x156 c:/px4/workspace/PX4Firmware/Build/px4io-v1_default.build/nuttx-export/libs\libnuttx.a(sched-sched_gettcb.o)
 .debug_abbrev  0x0000ba00      0x13f c:/px4/workspace/PX4Firmware/Build/px4io-v1_default.build/nuttx-export/libs\libnuttx.a(sched-sched_lock.o)
 .debug_abbrev  0x0000bb3f       0x50 c:/px4/workspace/PX4Firmware/Build/px4io-v1_default.build/nuttx-export/libs\libnuttx.a(sched-sched_processtimer.o)
 .debug_abbrev  0x0000bb8f      0x1bc c:/px4/workspace/PX4Firmware/Build/px4io-v1_default.build/nuttx-export/libs\libnuttx.a(sched-sched_releasetcb.o)
 .debug_abbrev  0x0000bd4b      0x1c5 c:/px4/workspace/PX4Firmware/Build/px4io-v1_default.build/nuttx-export/libs\libnuttx.a(sched-sched_unlock.o)
 .debug_abbrev  0x0000bf10      0x1ab c:/px4/workspace/PX4Firmware/Build/px4io-v1_default.build/nuttx-export/libs\libnuttx.a(sched-task_activate.o)
 .debug_abbrev  0x0000c0bb      0x144 c:/px4/workspace/PX4Firmware/Build/px4io-v1_default.build/nuttx-export/libs\libnuttx.a(arch-up_releasepending.o)

.debug_info     0x00000000    0x37055
 *(.debug_info)
 .debug_info    0x00000000      0x256 c:/px4/workspace/PX4Firmware/Build/px4io-v1_default.build/c/px4/workspace/PX4Firmware/src/drivers/boards/px4io-v1/module.pre.o
 .debug_info    0x00000256     0x18b9 c:/px4/workspace/PX4Firmware/Build/px4io-v1_default.build/c/px4/workspace/PX4Firmware/src/drivers/stm32/module.pre.o
 .debug_info    0x00001b0f     0x6b38 c:/px4/workspace/PX4Firmware/Build/px4io-v1_default.build/c/px4/workspace/PX4Firmware/src/modules/px4iofirmware/module.pre.o
 .debug_info    0x00008647      0x1bb c:/px4/workspace/PX4Firmware/Build/px4io-v1_default.build/nuttx-export/libs\libnuttx.a(sched-irq_attach.o)
 .debug_info    0x00008802      0x102 c:/px4/workspace/PX4Firmware/Build/px4io-v1_default.build/nuttx-export/libs\libnuttx.a(sched-irq_initialize.o)
 .debug_info    0x00008904      0x11d c:/px4/workspace/PX4Firmware/Build/px4io-v1_default.build/nuttx-export/libs\libnuttx.a(sched-irq_unexpectedisr.o)
 .debug_info    0x00008a21       0x93 c:/px4/workspace/PX4Firmware/Build/px4io-v1_default.build/nuttx-export/libs\libnuttx.a(c-lib_abort.o)
 .debug_info    0x00008ab4      0x175 c:/px4/workspace/PX4Firmware/Build/px4io-v1_default.build/nuttx-export/libs\libnuttx.a(c-lib_cfsetspeed.o)
 .debug_info    0x00008c29      0x16e c:/px4/workspace/PX4Firmware/Build/px4io-v1_default.build/nuttx-export/libs\libnuttx.a(c-lib_crc32.o)
 .debug_info    0x00008d97      0x19f c:/px4/workspace/PX4Firmware/Build/px4io-v1_default.build/nuttx-export/libs\libnuttx.a(c-lib_lowsyslog.o)
 .debug_info    0x00008f36       0xfe c:/px4/workspace/PX4Firmware/Build/px4io-v1_default.build/nuttx-export/libs\libnuttx.a(c-lib_memchr.o)
 .debug_info    0x00009034      0x10a c:/px4/workspace/PX4Firmware/Build/px4io-v1_default.build/nuttx-export/libs\libnuttx.a(c-lib_memcpy.o)
 .debug_info    0x0000913e       0xed c:/px4/workspace/PX4Firmware/Build/px4io-v1_default.build/nuttx-export/libs\libnuttx.a(c-lib_memset.o)
 .debug_info    0x0000922b      0x114 c:/px4/workspace/PX4Firmware/Build/px4io-v1_default.build/nuttx-export/libs\libnuttx.a(c-lib_printf.o)
 .debug_info    0x0000933f      0x40a c:/px4/workspace/PX4Firmware/Build/px4io-v1_default.build/nuttx-export/libs\libnuttx.a(c-lib_sscanf.o)
 .debug_info    0x00009749       0xbd c:/px4/workspace/PX4Firmware/Build/px4io-v1_default.build/nuttx-export/libs\libnuttx.a(c-lib_strchr.o)
 .debug_info    0x00009806       0xc6 c:/px4/workspace/PX4Firmware/Build/px4io-v1_default.build/nuttx-export/libs\libnuttx.a(c-lib_strcmp.o)
 .debug_info    0x000098cc       0xea c:/px4/workspace/PX4Firmware/Build/px4io-v1_default.build/nuttx-export/libs\libnuttx.a(c-lib_strcspn.o)
 .debug_info    0x000099b6      0x10c c:/px4/workspace/PX4Firmware/Build/px4io-v1_default.build/nuttx-export/libs\libnuttx.a(c-lib_strncpy.o)
 .debug_info    0x00009ac2      0x122 c:/px4/workspace/PX4Firmware/Build/px4io-v1_default.build/nuttx-export/libs\libnuttx.a(c-lib_strtol.o)
 .debug_info    0x00009be4      0x100 c:/px4/workspace/PX4Firmware/Build/px4io-v1_default.build/nuttx-export/libs\libnuttx.a(c-lib_strtoul.o)
 .debug_info    0x00009ce4      0x1c7 c:/px4/workspace/PX4Firmware/Build/px4io-v1_default.build/nuttx-export/libs\libnuttx.a(c-lib_syslog.o)
 .debug_info    0x00009eab      0x176 c:/px4/workspace/PX4Firmware/Build/px4io-v1_default.build/nuttx-export/libs\libnuttx.a(c-lib_tcgetattr.o)
 .debug_info    0x0000a021      0x18a c:/px4/workspace/PX4Firmware/Build/px4io-v1_default.build/nuttx-export/libs\libnuttx.a(c-lib_tcsetattr.o)
 .debug_info    0x0000a1ab      0x1df c:/px4/workspace/PX4Firmware/Build/px4io-v1_default.build/nuttx-export/libs\libnuttx.a(c-lib_vsnprintf.o)
 .debug_info    0x0000a38a      0x129 c:/px4/workspace/PX4Firmware/Build/px4io-v1_default.build/nuttx-export/libs\libnuttx.a(c-sq_addafter.o)
 .debug_info    0x0000a4b3      0x116 c:/px4/workspace/PX4Firmware/Build/px4io-v1_default.build/nuttx-export/libs\libnuttx.a(c-sq_addfirst.o)
 .debug_info    0x0000a5c9      0x116 c:/px4/workspace/PX4Firmware/Build/px4io-v1_default.build/nuttx-export/libs\libnuttx.a(c-sq_addlast.o)
 .debug_info    0x0000a6df      0x12f c:/px4/workspace/PX4Firmware/Build/px4io-v1_default.build/nuttx-export/libs\libnuttx.a(c-sq_rem.o)
 .debug_info    0x0000a80e      0x12c c:/px4/workspace/PX4Firmware/Build/px4io-v1_default.build/nuttx-export/libs\libnuttx.a(c-sq_remafter.o)
 .debug_info    0x0000a93a       0xe2 c:/px4/workspace/PX4Firmware/Build/px4io-v1_default.build/nuttx-export/libs\libnuttx.a(mm-mm_calloc.o)
 .debug_info    0x0000aa1c      0x2f8 c:/px4/workspace/PX4Firmware/Build/px4io-v1_default.build/nuttx-export/libs\libnuttx.a(mm-mm_free.o)
 .debug_info    0x0000ad14      0x36c c:/px4/workspace/PX4Firmware/Build/px4io-v1_default.build/nuttx-export/libs\libnuttx.a(mm-mm_mallinfo.o)
 .debug_info    0x0000b080      0x324 c:/px4/workspace/PX4Firmware/Build/px4io-v1_default.build/nuttx-export/libs\libnuttx.a(mm-mm_malloc.o)
 .debug_info    0x0000b3a4      0x2ea c:/px4/workspace/PX4Firmware/Build/px4io-v1_default.build/nuttx-export/libs\libnuttx.a(mm-mm_sem.o)
 .debug_info    0x0000b68e       0xd0 c:/px4/workspace/PX4Firmware/Build/px4io-v1_default.build/nuttx-export/libs\libnuttx.a(mm-mm_size2ndx.o)
 .debug_info    0x0000b75e      0x2c6 c:/px4/workspace/PX4Firmware/Build/px4io-v1_default.build/nuttx-export/libs\libnuttx.a(mm-mm_user.o)
 .debug_info    0x0000ba24       0xd6 c:/px4/workspace/PX4Firmware/Build/px4io-v1_default.build/nuttx-export/libs\libnuttx.a(mm-mm_zalloc.o)
 .debug_info    0x0000bafa      0x82b c:/px4/workspace/PX4Firmware/Build/px4io-v1_default.build/nuttx-export/libs\libnuttx.a(arch-stm32_dma.o)
 .debug_info    0x0000c325      0x3dd c:/px4/workspace/PX4Firmware/Build/px4io-v1_default.build/nuttx-export/libs\libnuttx.a(arch-stm32_gpio.o)
 .debug_info    0x0000c702      0x32e c:/px4/workspace/PX4Firmware/Build/px4io-v1_default.build/nuttx-export/libs\libnuttx.a(arch-stm32_irq.o)
 .debug_info    0x0000ca30     0x1d73 c:/px4/workspace/PX4Firmware/Build/px4io-v1_default.build/nuttx-export/libs\libnuttx.a(arch-stm32_serial.o)
 .debug_info    0x0000e7a3      0x15b c:/px4/workspace/PX4Firmware/Build/px4io-v1_default.build/nuttx-export/libs\libnuttx.a(arch-stm32_start.o)
 .debug_info    0x0000e8fe      0xd6c c:/px4/workspace/PX4Firmware/Build/px4io-v1_default.build/nuttx-export/libs\libnuttx.a(arch-up_assert.o)
 .debug_info    0x0000f66a      0x1da c:/px4/workspace/PX4Firmware/Build/px4io-v1_default.build/nuttx-export/libs\libnuttx.a(arch-up_hardfault.o)
 .debug_info    0x0000f844      0x174 c:/px4/workspace/PX4Firmware/Build/px4io-v1_default.build/nuttx-export/libs\libnuttx.a(arch-up_modifyreg32.o)
 .debug_info    0x0000f9b8      0x122 c:/px4/workspace/PX4Firmware/Build/px4io-v1_default.build/nuttx-export/libs\libnuttx.a(arch-up_svcall.o)
 .debug_info    0x0000fada       0x9c c:/px4/workspace/PX4Firmware/Build/px4io-v1_default.build/nuttx-export/libs\libnuttx.a(arch-up_systemreset.o)
 .debug_info    0x0000fb76       0xe0 c:/px4/workspace/PX4Firmware/Build/px4io-v1_default.build/nuttx-export/libs\libnuttx.a(arch-up_udelay.o)
 .debug_info    0x0000fc56       0x70 c:/px4/workspace/PX4Firmware/Build/px4io-v1_default.build/nuttx-export/libs\libnuttx.a(arch-up_vectors.o)
 .debug_info    0x0000fcc6      0x328 c:/px4/workspace/PX4Firmware/Build/px4io-v1_default.build/nuttx-export/libs\libnuttx.a(cxx-libxx_cxa_atexit.o)
 .debug_info    0x0000ffee       0x76 c:/px4/workspace/PX4Firmware/Build/px4io-v1_default.build/nuttx-export/libs\libnuttx.a(cxx-libxx_cxapurevirtual.o)
 .debug_info    0x00010064      0x2dc c:/px4/workspace/PX4Firmware/Build/px4io-v1_default.build/nuttx-export/libs\libnuttx.a(cxx-libxx_delete.o)
 .debug_info    0x00010340      0x316 c:/px4/workspace/PX4Firmware/Build/px4io-v1_default.build/nuttx-export/libs\libnuttx.a(cxx-libxx_eabi_atexit.o)
 .debug_info    0x00010656      0x44f c:/px4/workspace/PX4Firmware/Build/px4io-v1_default.build/nuttx-export/libs\libnuttx.a(cxx-libxx_new.o)
 .debug_info    0x00010aa5      0x86f c:/px4/workspace/PX4Firmware/Build/px4io-v1_default.build/nuttx-export/libs\libnuttx.a(fs-fs_ioctl.o)
 .debug_info    0x00011314      0x8b1 c:/px4/workspace/PX4Firmware/Build/px4io-v1_default.build/nuttx-export/libs\libnuttx.a(fs-fs_open.o)
 .debug_info    0x00011bc5      0x8d0 c:/px4/workspace/PX4Firmware/Build/px4io-v1_default.build/nuttx-export/libs\libnuttx.a(fs-fs_read.o)
 .debug_info    0x00012495     0x125b c:/px4/workspace/PX4Firmware/Build/px4io-v1_default.build/nuttx-export/libs\libnuttx.a(drivers-serial.o)
 .debug_info    0x000136f0      0xac9 c:/px4/workspace/PX4Firmware/Build/px4io-v1_default.build/nuttx-export/libs\libnuttx.a(drivers-serialirq.o)
 .debug_info    0x000141b9      0xb33 c:/px4/workspace/PX4Firmware/Build/px4io-v1_default.build/nuttx-export/libs\libnuttx.a(sched-errno_getptr.o)
 .debug_info    0x00014cec      0xae9 c:/px4/workspace/PX4Firmware/Build/px4io-v1_default.build/nuttx-export/libs\libnuttx.a(sched-exit.o)
 .debug_info    0x000157d5      0xac9 c:/px4/workspace/PX4Firmware/Build/px4io-v1_default.build/nuttx-export/libs\libnuttx.a(sched-getpid.o)
 .debug_info    0x0001629e      0xe1d c:/px4/workspace/PX4Firmware/Build/px4io-v1_default.build/nuttx-export/libs\libnuttx.a(sched-os_start.o)
 .debug_info    0x000170bb      0x1f6 c:/px4/workspace/PX4Firmware/Build/px4io-v1_default.build/nuttx-export/libs\libnuttx.a(sched-sched_garbage.o)
 .debug_info    0x000172b1      0xaf0 c:/px4/workspace/PX4Firmware/Build/px4io-v1_default.build/nuttx-export/libs\libnuttx.a(sched-sched_getfiles.o)
 .debug_info    0x00017da1      0xb8b c:/px4/workspace/PX4Firmware/Build/px4io-v1_default.build/nuttx-export/libs\libnuttx.a(sched-sem_post.o)
 .debug_info    0x0001892c      0xb89 c:/px4/workspace/PX4Firmware/Build/px4io-v1_default.build/nuttx-export/libs\libnuttx.a(sched-sem_trywait.o)
 .debug_info    0x000194b5      0xbc0 c:/px4/workspace/PX4Firmware/Build/px4io-v1_default.build/nuttx-export/libs\libnuttx.a(sched-sem_wait.o)
 .debug_info    0x0001a075      0xa65 c:/px4/workspace/PX4Firmware/Build/px4io-v1_default.build/nuttx-export/libs\libnuttx.a(sched-task_exithook.o)
 .debug_info    0x0001aada      0xace c:/px4/workspace/PX4Firmware/Build/px4io-v1_default.build/nuttx-export/libs\libnuttx.a(sched-task_recover.o)
 .debug_info    0x0001b5a8      0x2d9 c:/px4/workspace/PX4Firmware/Build/px4io-v1_default.build/nuttx-export/libs\libnuttx.a(sched-wd_cancel.o)
 .debug_info    0x0001b881      0x299 c:/px4/workspace/PX4Firmware/Build/px4io-v1_default.build/nuttx-export/libs\libnuttx.a(sched-wd_delete.o)
 .debug_info    0x0001bb1a      0x29d c:/px4/workspace/PX4Firmware/Build/px4io-v1_default.build/nuttx-export/libs\libnuttx.a(sched-wd_initialize.o)
 .debug_info    0x0001bdb7      0x124 c:/px4/workspace/PX4Firmware/Build/px4io-v1_default.build/nuttx-export/libs\libnuttx.a(c-dq_addfirst.o)
 .debug_info    0x0001bedb      0x16d c:/px4/workspace/PX4Firmware/Build/px4io-v1_default.build/nuttx-export/libs\libnuttx.a(c-lib_cfgetspeed.o)
 .debug_info    0x0001c048       0xe1 c:/px4/workspace/PX4Firmware/Build/px4io-v1_default.build/nuttx-export/libs\libnuttx.a(c-lib_checkbase.o)
 .debug_info    0x0001c129      0x111 c:/px4/workspace/PX4Firmware/Build/px4io-v1_default.build/nuttx-export/libs\libnuttx.a(c-lib_isbasedigit.o)
 .debug_info    0x0001c23a      0xad3 c:/px4/workspace/PX4Firmware/Build/px4io-v1_default.build/nuttx-export/libs\libnuttx.a(c-lib_libvsprintf.o)
 .debug_info    0x0001cd0d      0x12e c:/px4/workspace/PX4Firmware/Build/px4io-v1_default.build/nuttx-export/libs\libnuttx.a(c-lib_lowoutstream.o)
 .debug_info    0x0001ce3b      0x1e2 c:/px4/workspace/PX4Firmware/Build/px4io-v1_default.build/nuttx-export/libs\libnuttx.a(c-lib_memoutstream.o)
 .debug_info    0x0001d01d      0x12a c:/px4/workspace/PX4Firmware/Build/px4io-v1_default.build/nuttx-export/libs\libnuttx.a(c-lib_nulloutstream.o)
 .debug_info    0x0001d147      0x194 c:/px4/workspace/PX4Firmware/Build/px4io-v1_default.build/nuttx-export/libs\libnuttx.a(c-lib_rawoutstream.o)
 .debug_info    0x0001d2db       0xcb c:/px4/workspace/PX4Firmware/Build/px4io-v1_default.build/nuttx-export/libs\libnuttx.a(c-lib_skipspace.o)
 .debug_info    0x0001d3a6       0xd0 c:/px4/workspace/PX4Firmware/Build/px4io-v1_default.build/nuttx-export/libs\libnuttx.a(c-lib_strcpy.o)
 .debug_info    0x0001d476       0xdb c:/px4/workspace/PX4Firmware/Build/px4io-v1_default.build/nuttx-export/libs\libnuttx.a(c-lib_strlen.o)
 .debug_info    0x0001d551      0x104 c:/px4/workspace/PX4Firmware/Build/px4io-v1_default.build/nuttx-export/libs\libnuttx.a(c-sem_init.o)
 .debug_info    0x0001d655      0x11e c:/px4/workspace/PX4Firmware/Build/px4io-v1_default.build/nuttx-export/libs\libnuttx.a(c-sq_remfirst.o)
 .debug_info    0x0001d773      0x275 c:/px4/workspace/PX4Firmware/Build/px4io-v1_default.build/nuttx-export/libs\libnuttx.a(mm-mm_addfreechunk.o)
 .debug_info    0x0001d9e8      0x2ec c:/px4/workspace/PX4Firmware/Build/px4io-v1_default.build/nuttx-export/libs\libnuttx.a(mm-mm_initialize.o)
 .debug_info    0x0001dcd4      0x109 c:/px4/workspace/PX4Firmware/Build/px4io-v1_default.build/nuttx-export/libs\libnuttx.a(arch-stm32_allocateheap.o)
 .debug_info    0x0001dddd       0x99 c:/px4/workspace/PX4Firmware/Build/px4io-v1_default.build/nuttx-export/libs\libnuttx.a(arch-stm32_idle.o)
 .debug_info    0x0001de76       0xf0 c:/px4/workspace/PX4Firmware/Build/px4io-v1_default.build/nuttx-export/libs\libnuttx.a(arch-stm32_lowputc.o)
 .debug_info    0x0001df66      0x247 c:/px4/workspace/PX4Firmware/Build/px4io-v1_default.build/nuttx-export/libs\libnuttx.a(arch-stm32_rcc.o)
 .debug_info    0x0001e1ad      0xb9e c:/px4/workspace/PX4Firmware/Build/px4io-v1_default.build/nuttx-export/libs\libnuttx.a(arch-up_blocktask.o)
 .debug_info    0x0001ed4b       0xe1 c:/px4/workspace/PX4Firmware/Build/px4io-v1_default.build/nuttx-export/libs\libnuttx.a(arch-up_copystate.o)
 .debug_info    0x0001ee2c       0x6c c:/px4/workspace/PX4Firmware/Build/px4io-v1_default.build/nuttx-export/libs\libnuttx.a(arch-up_exception.o)
 .debug_info    0x0001ee98      0xb31 c:/px4/workspace/PX4Firmware/Build/px4io-v1_default.build/nuttx-export/libs\libnuttx.a(arch-up_exit.o)
 .debug_info    0x0001f9c9       0x75 c:/px4/workspace/PX4Firmware/Build/px4io-v1_default.build/nuttx-export/libs\libnuttx.a(arch-up_fullcontextrestore.o)
 .debug_info    0x0001fa3e       0xd5 c:/px4/workspace/PX4Firmware/Build/px4io-v1_default.build/nuttx-export/libs\libnuttx.a(arch-up_initialize.o)
 .debug_info    0x0001fb13      0xa5c c:/px4/workspace/PX4Firmware/Build/px4io-v1_default.build/nuttx-export/libs\libnuttx.a(arch-up_initialstate.o)
 .debug_info    0x0002056f       0xfa c:/px4/workspace/PX4Firmware/Build/px4io-v1_default.build/nuttx-export/libs\libnuttx.a(arch-up_interruptcontext.o)
 .debug_info    0x00020669       0xcc c:/px4/workspace/PX4Firmware/Build/px4io-v1_default.build/nuttx-export/libs\libnuttx.a(arch-up_mdelay.o)
 .debug_info    0x00020735       0x70 c:/px4/workspace/PX4Firmware/Build/px4io-v1_default.build/nuttx-export/libs\libnuttx.a(arch-up_switchcontext.o)
 .debug_info    0x000207a5      0xb5b c:/px4/workspace/PX4Firmware/Build/px4io-v1_default.build/nuttx-export/libs\libnuttx.a(arch-up_unblocktask.o)
 .debug_info    0x00021300      0xa84 c:/px4/workspace/PX4Firmware/Build/px4io-v1_default.build/nuttx-export/libs\libnuttx.a(fs-fs_files.o)
 .debug_info    0x00021d84      0x788 c:/px4/workspace/PX4Firmware/Build/px4io-v1_default.build/nuttx-export/libs\libnuttx.a(fs-fs_inodeaddref.o)
 .debug_info    0x0002250c      0x7b4 c:/px4/workspace/PX4Firmware/Build/px4io-v1_default.build/nuttx-export/libs\libnuttx.a(fs-fs_inodefind.o)
 .debug_info    0x00022cc0      0x78f c:/px4/workspace/PX4Firmware/Build/px4io-v1_default.build/nuttx-export/libs\libnuttx.a(fs-fs_inoderelease.o)
 .debug_info    0x0002344f      0x7d7 c:/px4/workspace/PX4Firmware/Build/px4io-v1_default.build/nuttx-export/libs\libnuttx.a(fs-fs_registerdriver.o)
 .debug_info    0x00023c26      0x8ec c:/px4/workspace/PX4Firmware/Build/px4io-v1_default.build/nuttx-export/libs\libnuttx.a(fs-fs_write.o)
 .debug_info    0x00024512      0xaf6 c:/px4/workspace/PX4Firmware/Build/px4io-v1_default.build/nuttx-export/libs\libnuttx.a(sched-group_create.o)
 .debug_info    0x00025008      0xa88 c:/px4/workspace/PX4Firmware/Build/px4io-v1_default.build/nuttx-export/libs\libnuttx.a(sched-group_leave.o)
 .debug_info    0x00025a90      0xabb c:/px4/workspace/PX4Firmware/Build/px4io-v1_default.build/nuttx-export/libs\libnuttx.a(sched-group_setupidlefiles.o)
 .debug_info    0x0002654b       0xf6 c:/px4/workspace/PX4Firmware/Build/px4io-v1_default.build/nuttx-export/libs\libnuttx.a(sched-os_bringup.o)
 .debug_info    0x00026641      0xb7f c:/px4/workspace/PX4Firmware/Build/px4io-v1_default.build/nuttx-export/libs\libnuttx.a(sched-sched_addblocked.o)
 .debug_info    0x000271c0      0xb10 c:/px4/workspace/PX4Firmware/Build/px4io-v1_default.build/nuttx-export/libs\libnuttx.a(sched-sched_addprioritized.o)
 .debug_info    0x00027cd0      0xb4b c:/px4/workspace/PX4Firmware/Build/px4io-v1_default.build/nuttx-export/libs\libnuttx.a(sched-sched_addreadytorun.o)
 .debug_info    0x0002881b      0x1c4 c:/px4/workspace/PX4Firmware/Build/px4io-v1_default.build/nuttx-export/libs\libnuttx.a(sched-sched_free.o)
 .debug_info    0x000289df      0xb6b c:/px4/workspace/PX4Firmware/Build/px4io-v1_default.build/nuttx-export/libs\libnuttx.a(sched-sched_mergepending.o)
 .debug_info    0x0002954a      0xb7f c:/px4/workspace/PX4Firmware/Build/px4io-v1_default.build/nuttx-export/libs\libnuttx.a(sched-sched_removeblocked.o)
 .debug_info    0x0002a0c9      0xb24 c:/px4/workspace/PX4Firmware/Build/px4io-v1_default.build/nuttx-export/libs\libnuttx.a(sched-sched_removereadytorun.o)
 .debug_info    0x0002abed       0xf0 c:/px4/workspace/PX4Firmware/Build/px4io-v1_default.build/nuttx-export/libs\libnuttx.a(sched-sem_destroy.o)
 .debug_info    0x0002acdd      0xcac c:/px4/workspace/PX4Firmware/Build/px4io-v1_default.build/nuttx-export/libs\libnuttx.a(sched-task_create.o)
 .debug_info    0x0002b989      0xb3a c:/px4/workspace/PX4Firmware/Build/px4io-v1_default.build/nuttx-export/libs\libnuttx.a(sched-task_exit.o)
 .debug_info    0x0002c4c3      0xe94 c:/px4/workspace/PX4Firmware/Build/px4io-v1_default.build/nuttx-export/libs\libnuttx.a(sched-task_setup.o)
 .debug_info    0x0002d357      0xb4b c:/px4/workspace/PX4Firmware/Build/px4io-v1_default.build/nuttx-export/libs\libnuttx.a(sched-task_start.o)
 .debug_info    0x0002dea2      0xc22 c:/px4/workspace/PX4Firmware/Build/px4io-v1_default.build/nuttx-export/libs\libnuttx.a(sched-task_terminate.o)
 .debug_info    0x0002eac4      0x124 c:/px4/workspace/PX4Firmware/Build/px4io-v1_default.build/nuttx-export/libs\libnuttx.a(c-dq_addlast.o)
 .debug_info    0x0002ebe8      0x140 c:/px4/workspace/PX4Firmware/Build/px4io-v1_default.build/nuttx-export/libs\libnuttx.a(c-dq_rem.o)
 .debug_info    0x0002ed28       0xcc c:/px4/workspace/PX4Firmware/Build/px4io-v1_default.build/nuttx-export/libs\libnuttx.a(c-lib_strdup.o)
 .debug_info    0x0002edf4      0x12c c:/px4/workspace/PX4Firmware/Build/px4io-v1_default.build/nuttx-export/libs\libnuttx.a(arch-stm32_timerisr.o)
 .debug_info    0x0002ef20      0xa8d c:/px4/workspace/PX4Firmware/Build/px4io-v1_default.build/nuttx-export/libs\libnuttx.a(arch-up_createstack.o)
 .debug_info    0x0002f9ad      0x112 c:/px4/workspace/PX4Firmware/Build/px4io-v1_default.build/nuttx-export/libs\libnuttx.a(arch-up_doirq.o)
 .debug_info    0x0002fabf      0xa53 c:/px4/workspace/PX4Firmware/Build/px4io-v1_default.build/nuttx-export/libs\libnuttx.a(arch-up_releasestack.o)
 .debug_info    0x00030512       0xd6 c:/px4/workspace/PX4Firmware/Build/px4io-v1_default.build/nuttx-export/libs\libnuttx.a(fs-fs_close.o)
 .debug_info    0x000305e8      0x81a c:/px4/workspace/PX4Firmware/Build/px4io-v1_default.build/nuttx-export/libs\libnuttx.a(fs-fs_filedup2.o)
 .debug_info    0x00030e02      0x969 c:/px4/workspace/PX4Firmware/Build/px4io-v1_default.build/nuttx-export/libs\libnuttx.a(fs-fs_inode.o)
 .debug_info    0x0003176b      0x9d5 c:/px4/workspace/PX4Firmware/Build/px4io-v1_default.build/nuttx-export/libs\libnuttx.a(fs-fs_inodereserve.o)
 .debug_info    0x00032140      0xaad c:/px4/workspace/PX4Firmware/Build/px4io-v1_default.build/nuttx-export/libs\libnuttx.a(sched-group_setuptaskfiles.o)
 .debug_info    0x00032bed      0x11f c:/px4/workspace/PX4Firmware/Build/px4io-v1_default.build/nuttx-export/libs\libnuttx.a(sched-irq_dispatch.o)
 .debug_info    0x00032d0c      0xac6 c:/px4/workspace/PX4Firmware/Build/px4io-v1_default.build/nuttx-export/libs\libnuttx.a(sched-sched_gettcb.o)
 .debug_info    0x000337d2      0xadc c:/px4/workspace/PX4Firmware/Build/px4io-v1_default.build/nuttx-export/libs\libnuttx.a(sched-sched_lock.o)
 .debug_info    0x000342ae       0xa4 c:/px4/workspace/PX4Firmware/Build/px4io-v1_default.build/nuttx-export/libs\libnuttx.a(sched-sched_processtimer.o)
 .debug_info    0x00034352      0xb8d c:/px4/workspace/PX4Firmware/Build/px4io-v1_default.build/nuttx-export/libs\libnuttx.a(sched-sched_releasetcb.o)
 .debug_info    0x00034edf      0xb8f c:/px4/workspace/PX4Firmware/Build/px4io-v1_default.build/nuttx-export/libs\libnuttx.a(sched-sched_unlock.o)
 .debug_info    0x00035a6e      0xad2 c:/px4/workspace/PX4Firmware/Build/px4io-v1_default.build/nuttx-export/libs\libnuttx.a(sched-task_activate.o)
 .debug_info    0x00036540      0xb15 c:/px4/workspace/PX4Firmware/Build/px4io-v1_default.build/nuttx-export/libs\libnuttx.a(arch-up_releasepending.o)

.debug_line     0x00000000    0x10e46
 *(.debug_line)
 .debug_line    0x00000000        0x0 c:/px4/workspace/PX4Firmware/Build/px4io-v1_default.build/c/px4/workspace/PX4Firmware/Build/px4io-v1_default.build/empty.c.o
 .debug_line    0x00000000      0x2f3 c:/px4/workspace/PX4Firmware/Build/px4io-v1_default.build/c/px4/workspace/PX4Firmware/src/drivers/boards/px4io-v1/module.pre.o
 .debug_line    0x000002f3      0xb1b c:/px4/workspace/PX4Firmware/Build/px4io-v1_default.build/c/px4/workspace/PX4Firmware/src/drivers/stm32/module.pre.o
 .debug_line    0x00000e0e     0x3731 c:/px4/workspace/PX4Firmware/Build/px4io-v1_default.build/c/px4/workspace/PX4Firmware/src/modules/px4iofirmware/module.pre.o
 .debug_line    0x0000453f      0x123 c:/px4/workspace/PX4Firmware/Build/px4io-v1_default.build/nuttx-export/libs\libnuttx.a(sched-irq_attach.o)
 .debug_line    0x00004662       0x99 c:/px4/workspace/PX4Firmware/Build/px4io-v1_default.build/nuttx-export/libs\libnuttx.a(sched-irq_initialize.o)
 .debug_line    0x000046fb       0xfa c:/px4/workspace/PX4Firmware/Build/px4io-v1_default.build/nuttx-export/libs\libnuttx.a(sched-irq_unexpectedisr.o)
 .debug_line    0x000047f5       0x7a c:/px4/workspace/PX4Firmware/Build/px4io-v1_default.build/nuttx-export/libs\libnuttx.a(c-lib_abort.o)
 .debug_line    0x0000486f       0xc4 c:/px4/workspace/PX4Firmware/Build/px4io-v1_default.build/nuttx-export/libs\libnuttx.a(c-lib_cfsetspeed.o)
 .debug_line    0x00004933      0x11a c:/px4/workspace/PX4Firmware/Build/px4io-v1_default.build/nuttx-export/libs\libnuttx.a(c-lib_crc32.o)
 .debug_line    0x00004a4d      0x125 c:/px4/workspace/PX4Firmware/Build/px4io-v1_default.build/nuttx-export/libs\libnuttx.a(c-lib_lowsyslog.o)
 .debug_line    0x00004b72      0x10e c:/px4/workspace/PX4Firmware/Build/px4io-v1_default.build/nuttx-export/libs\libnuttx.a(c-lib_memchr.o)
 .debug_line    0x00004c80      0x100 c:/px4/workspace/PX4Firmware/Build/px4io-v1_default.build/nuttx-export/libs\libnuttx.a(c-lib_memcpy.o)
 .debug_line    0x00004d80      0x104 c:/px4/workspace/PX4Firmware/Build/px4io-v1_default.build/nuttx-export/libs\libnuttx.a(c-lib_memset.o)
 .debug_line    0x00004e84       0xd2 c:/px4/workspace/PX4Firmware/Build/px4io-v1_default.build/nuttx-export/libs\libnuttx.a(c-lib_printf.o)
 .debug_line    0x00004f56      0x38e c:/px4/workspace/PX4Firmware/Build/px4io-v1_default.build/nuttx-export/libs\libnuttx.a(c-lib_sscanf.o)
 .debug_line    0x000052e4       0x86 c:/px4/workspace/PX4Firmware/Build/px4io-v1_default.build/nuttx-export/libs\libnuttx.a(c-lib_strchr.o)
 .debug_line    0x0000536a       0x81 c:/px4/workspace/PX4Firmware/Build/px4io-v1_default.build/nuttx-export/libs\libnuttx.a(c-lib_strcmp.o)
 .debug_line    0x000053eb      0x102 c:/px4/workspace/PX4Firmware/Build/px4io-v1_default.build/nuttx-export/libs\libnuttx.a(c-lib_strcspn.o)
 .debug_line    0x000054ed      0x10d c:/px4/workspace/PX4Firmware/Build/px4io-v1_default.build/nuttx-export/libs\libnuttx.a(c-lib_strncpy.o)
 .debug_line    0x000055fa       0xda c:/px4/workspace/PX4Firmware/Build/px4io-v1_default.build/nuttx-export/libs\libnuttx.a(c-lib_strtol.o)
 .debug_line    0x000056d4       0x8e c:/px4/workspace/PX4Firmware/Build/px4io-v1_default.build/nuttx-export/libs\libnuttx.a(c-lib_strtoul.o)
 .debug_line    0x00005762      0x126 c:/px4/workspace/PX4Firmware/Build/px4io-v1_default.build/nuttx-export/libs\libnuttx.a(c-lib_syslog.o)
 .debug_line    0x00005888       0xc5 c:/px4/workspace/PX4Firmware/Build/px4io-v1_default.build/nuttx-export/libs\libnuttx.a(c-lib_tcgetattr.o)
 .debug_line    0x0000594d       0xc6 c:/px4/workspace/PX4Firmware/Build/px4io-v1_default.build/nuttx-export/libs\libnuttx.a(c-lib_tcsetattr.o)
 .debug_line    0x00005a13      0x189 c:/px4/workspace/PX4Firmware/Build/px4io-v1_default.build/nuttx-export/libs\libnuttx.a(c-lib_vsnprintf.o)
 .debug_line    0x00005b9c       0x87 c:/px4/workspace/PX4Firmware/Build/px4io-v1_default.build/nuttx-export/libs\libnuttx.a(c-sq_addafter.o)
 .debug_line    0x00005c23       0x7b c:/px4/workspace/PX4Firmware/Build/px4io-v1_default.build/nuttx-export/libs\libnuttx.a(c-sq_addfirst.o)
 .debug_line    0x00005c9e       0x7a c:/px4/workspace/PX4Firmware/Build/px4io-v1_default.build/nuttx-export/libs\libnuttx.a(c-sq_addlast.o)
 .debug_line    0x00005d18       0x8b c:/px4/workspace/PX4Firmware/Build/px4io-v1_default.build/nuttx-export/libs\libnuttx.a(c-sq_rem.o)
 .debug_line    0x00005da3       0x88 c:/px4/workspace/PX4Firmware/Build/px4io-v1_default.build/nuttx-export/libs\libnuttx.a(c-sq_remafter.o)
 .debug_line    0x00005e2b       0xfa c:/px4/workspace/PX4Firmware/Build/px4io-v1_default.build/nuttx-export/libs\libnuttx.a(mm-mm_calloc.o)
 .debug_line    0x00005f25      0x15a c:/px4/workspace/PX4Firmware/Build/px4io-v1_default.build/nuttx-export/libs\libnuttx.a(mm-mm_free.o)
 .debug_line    0x0000607f      0x157 c:/px4/workspace/PX4Firmware/Build/px4io-v1_default.build/nuttx-export/libs\libnuttx.a(mm-mm_mallinfo.o)
 .debug_line    0x000061d6      0x167 c:/px4/workspace/PX4Firmware/Build/px4io-v1_default.build/nuttx-export/libs\libnuttx.a(mm-mm_malloc.o)
 .debug_line    0x0000633d      0x193 c:/px4/workspace/PX4Firmware/Build/px4io-v1_default.build/nuttx-export/libs\libnuttx.a(mm-mm_sem.o)
 .debug_line    0x000064d0      0x127 c:/px4/workspace/PX4Firmware/Build/px4io-v1_default.build/nuttx-export/libs\libnuttx.a(mm-mm_size2ndx.o)
 .debug_line    0x000065f7      0x164 c:/px4/workspace/PX4Firmware/Build/px4io-v1_default.build/nuttx-export/libs\libnuttx.a(mm-mm_user.o)
 .debug_line    0x0000675b       0xf0 c:/px4/workspace/PX4Firmware/Build/px4io-v1_default.build/nuttx-export/libs\libnuttx.a(mm-mm_zalloc.o)
 .debug_line    0x0000684b      0x297 c:/px4/workspace/PX4Firmware/Build/px4io-v1_default.build/nuttx-export/libs\libnuttx.a(arch-stm32_dma.o)
 .debug_line    0x00006ae2      0x1cf c:/px4/workspace/PX4Firmware/Build/px4io-v1_default.build/nuttx-export/libs\libnuttx.a(arch-stm32_gpio.o)
 .debug_line    0x00006cb1      0x235 c:/px4/workspace/PX4Firmware/Build/px4io-v1_default.build/nuttx-export/libs\libnuttx.a(arch-stm32_irq.o)
 .debug_line    0x00006ee6      0x729 c:/px4/workspace/PX4Firmware/Build/px4io-v1_default.build/nuttx-export/libs\libnuttx.a(arch-stm32_serial.o)
 .debug_line    0x0000760f      0x115 c:/px4/workspace/PX4Firmware/Build/px4io-v1_default.build/nuttx-export/libs\libnuttx.a(arch-stm32_start.o)
 .debug_line    0x00007724      0x2a1 c:/px4/workspace/PX4Firmware/Build/px4io-v1_default.build/nuttx-export/libs\libnuttx.a(arch-up_assert.o)
 .debug_line    0x000079c5      0x15c c:/px4/workspace/PX4Firmware/Build/px4io-v1_default.build/nuttx-export/libs\libnuttx.a(arch-up_hardfault.o)
 .debug_line    0x00007b21      0x10d c:/px4/workspace/PX4Firmware/Build/px4io-v1_default.build/nuttx-export/libs\libnuttx.a(arch-up_modifyreg32.o)
 .debug_line    0x00007c2e      0x113 c:/px4/workspace/PX4Firmware/Build/px4io-v1_default.build/nuttx-export/libs\libnuttx.a(arch-up_svcall.o)
 .debug_line    0x00007d41       0xba c:/px4/workspace/PX4Firmware/Build/px4io-v1_default.build/nuttx-export/libs\libnuttx.a(arch-up_systemreset.o)
 .debug_line    0x00007dfb      0x184 c:/px4/workspace/PX4Firmware/Build/px4io-v1_default.build/nuttx-export/libs\libnuttx.a(arch-up_udelay.o)
 .debug_line    0x00007f7f       0x35 c:/px4/workspace/PX4Firmware/Build/px4io-v1_default.build/nuttx-export/libs\libnuttx.a(arch-up_vectors.o)
 .debug_line    0x00007fb4      0x152 c:/px4/workspace/PX4Firmware/Build/px4io-v1_default.build/nuttx-export/libs\libnuttx.a(cxx-libxx_cxa_atexit.o)
 .debug_line    0x00008106       0x4a c:/px4/workspace/PX4Firmware/Build/px4io-v1_default.build/nuttx-export/libs\libnuttx.a(cxx-libxx_cxapurevirtual.o)
 .debug_line    0x00008150      0x136 c:/px4/workspace/PX4Firmware/Build/px4io-v1_default.build/nuttx-export/libs\libnuttx.a(cxx-libxx_delete.o)
 .debug_line    0x00008286      0x154 c:/px4/workspace/PX4Firmware/Build/px4io-v1_default.build/nuttx-export/libs\libnuttx.a(cxx-libxx_eabi_atexit.o)
 .debug_line    0x000083da      0x144 c:/px4/workspace/PX4Firmware/Build/px4io-v1_default.build/nuttx-export/libs\libnuttx.a(cxx-libxx_new.o)
 .debug_line    0x0000851e      0x16a c:/px4/workspace/PX4Firmware/Build/px4io-v1_default.build/nuttx-export/libs\libnuttx.a(fs-fs_ioctl.o)
 .debug_line    0x00008688      0x19e c:/px4/workspace/PX4Firmware/Build/px4io-v1_default.build/nuttx-export/libs\libnuttx.a(fs-fs_open.o)
 .debug_line    0x00008826      0x16a c:/px4/workspace/PX4Firmware/Build/px4io-v1_default.build/nuttx-export/libs\libnuttx.a(fs-fs_read.o)
 .debug_line    0x00008990      0x478 c:/px4/workspace/PX4Firmware/Build/px4io-v1_default.build/nuttx-export/libs\libnuttx.a(drivers-serial.o)
 .debug_line    0x00008e08      0x1e4 c:/px4/workspace/PX4Firmware/Build/px4io-v1_default.build/nuttx-export/libs\libnuttx.a(drivers-serialirq.o)
 .debug_line    0x00008fec      0x1ea c:/px4/workspace/PX4Firmware/Build/px4io-v1_default.build/nuttx-export/libs\libnuttx.a(sched-errno_getptr.o)
 .debug_line    0x000091d6      0x1e2 c:/px4/workspace/PX4Firmware/Build/px4io-v1_default.build/nuttx-export/libs\libnuttx.a(sched-exit.o)
 .debug_line    0x000093b8      0x1df c:/px4/workspace/PX4Firmware/Build/px4io-v1_default.build/nuttx-export/libs\libnuttx.a(sched-getpid.o)
 .debug_line    0x00009597      0x258 c:/px4/workspace/PX4Firmware/Build/px4io-v1_default.build/nuttx-export/libs\libnuttx.a(sched-os_start.o)
 .debug_line    0x000097ef      0x159 c:/px4/workspace/PX4Firmware/Build/px4io-v1_default.build/nuttx-export/libs\libnuttx.a(sched-sched_garbage.o)
 .debug_line    0x00009948      0x1de c:/px4/workspace/PX4Firmware/Build/px4io-v1_default.build/nuttx-export/libs\libnuttx.a(sched-sched_getfiles.o)
 .debug_line    0x00009b26      0x207 c:/px4/workspace/PX4Firmware/Build/px4io-v1_default.build/nuttx-export/libs\libnuttx.a(sched-sem_post.o)
 .debug_line    0x00009d2d      0x200 c:/px4/workspace/PX4Firmware/Build/px4io-v1_default.build/nuttx-export/libs\libnuttx.a(sched-sem_trywait.o)
 .debug_line    0x00009f2d      0x220 c:/px4/workspace/PX4Firmware/Build/px4io-v1_default.build/nuttx-export/libs\libnuttx.a(sched-sem_wait.o)
 .debug_line    0x0000a14d      0x1ca c:/px4/workspace/PX4Firmware/Build/px4io-v1_default.build/nuttx-export/libs\libnuttx.a(sched-task_exithook.o)
 .debug_line    0x0000a317      0x1d7 c:/px4/workspace/PX4Firmware/Build/px4io-v1_default.build/nuttx-export/libs\libnuttx.a(sched-task_recover.o)
 .debug_line    0x0000a4ee      0x159 c:/px4/workspace/PX4Firmware/Build/px4io-v1_default.build/nuttx-export/libs\libnuttx.a(sched-wd_cancel.o)
 .debug_line    0x0000a647      0x138 c:/px4/workspace/PX4Firmware/Build/px4io-v1_default.build/nuttx-export/libs\libnuttx.a(sched-wd_delete.o)
 .debug_line    0x0000a77f      0x12f c:/px4/workspace/PX4Firmware/Build/px4io-v1_default.build/nuttx-export/libs\libnuttx.a(sched-wd_initialize.o)
 .debug_line    0x0000a8ae       0x7d c:/px4/workspace/PX4Firmware/Build/px4io-v1_default.build/nuttx-export/libs\libnuttx.a(c-dq_addfirst.o)
 .debug_line    0x0000a92b       0xc4 c:/px4/workspace/PX4Firmware/Build/px4io-v1_default.build/nuttx-export/libs\libnuttx.a(c-lib_cfgetspeed.o)
 .debug_line    0x0000a9ef       0x78 c:/px4/workspace/PX4Firmware/Build/px4io-v1_default.build/nuttx-export/libs\libnuttx.a(c-lib_checkbase.o)
 .debug_line    0x0000aa67       0xea c:/px4/workspace/PX4Firmware/Build/px4io-v1_default.build/nuttx-export/libs\libnuttx.a(c-lib_isbasedigit.o)
 .debug_line    0x0000ab51      0x3f1 c:/px4/workspace/PX4Firmware/Build/px4io-v1_default.build/nuttx-export/libs\libnuttx.a(c-lib_libvsprintf.o)
 .debug_line    0x0000af42       0x99 c:/px4/workspace/PX4Firmware/Build/px4io-v1_default.build/nuttx-export/libs\libnuttx.a(c-lib_lowoutstream.o)
 .debug_line    0x0000afdb       0xa7 c:/px4/workspace/PX4Firmware/Build/px4io-v1_default.build/nuttx-export/libs\libnuttx.a(c-lib_memoutstream.o)
 .debug_line    0x0000b082       0x99 c:/px4/workspace/PX4Firmware/Build/px4io-v1_default.build/nuttx-export/libs\libnuttx.a(c-lib_nulloutstream.o)
 .debug_line    0x0000b11b       0xa5 c:/px4/workspace/PX4Firmware/Build/px4io-v1_default.build/nuttx-export/libs\libnuttx.a(c-lib_rawoutstream.o)
 .debug_line    0x0000b1c0       0x69 c:/px4/workspace/PX4Firmware/Build/px4io-v1_default.build/nuttx-export/libs\libnuttx.a(c-lib_skipspace.o)
 .debug_line    0x0000b229       0x80 c:/px4/workspace/PX4Firmware/Build/px4io-v1_default.build/nuttx-export/libs\libnuttx.a(c-lib_strcpy.o)
 .debug_line    0x0000b2a9       0xfa c:/px4/workspace/PX4Firmware/Build/px4io-v1_default.build/nuttx-export/libs\libnuttx.a(c-lib_strlen.o)
 .debug_line    0x0000b3a3       0xcf c:/px4/workspace/PX4Firmware/Build/px4io-v1_default.build/nuttx-export/libs\libnuttx.a(c-sem_init.o)
 .debug_line    0x0000b472       0x7d c:/px4/workspace/PX4Firmware/Build/px4io-v1_default.build/nuttx-export/libs\libnuttx.a(c-sq_remfirst.o)
 .debug_line    0x0000b4ef      0x144 c:/px4/workspace/PX4Firmware/Build/px4io-v1_default.build/nuttx-export/libs\libnuttx.a(mm-mm_addfreechunk.o)
 .debug_line    0x0000b633      0x194 c:/px4/workspace/PX4Firmware/Build/px4io-v1_default.build/nuttx-export/libs\libnuttx.a(mm-mm_initialize.o)
 .debug_line    0x0000b7c7      0x16f c:/px4/workspace/PX4Firmware/Build/px4io-v1_default.build/nuttx-export/libs\libnuttx.a(arch-stm32_allocateheap.o)
 .debug_line    0x0000b936       0x7e c:/px4/workspace/PX4Firmware/Build/px4io-v1_default.build/nuttx-export/libs\libnuttx.a(arch-stm32_idle.o)
 .debug_line    0x0000b9b4      0x178 c:/px4/workspace/PX4Firmware/Build/px4io-v1_default.build/nuttx-export/libs\libnuttx.a(arch-stm32_lowputc.o)
 .debug_line    0x0000bb2c      0x15e c:/px4/workspace/PX4Firmware/Build/px4io-v1_default.build/nuttx-export/libs\libnuttx.a(arch-stm32_rcc.o)
 .debug_line    0x0000bc8a      0x27a c:/px4/workspace/PX4Firmware/Build/px4io-v1_default.build/nuttx-export/libs\libnuttx.a(arch-up_blocktask.o)
 .debug_line    0x0000bf04       0xbe c:/px4/workspace/PX4Firmware/Build/px4io-v1_default.build/nuttx-export/libs\libnuttx.a(arch-up_copystate.o)
 .debug_line    0x0000bfc2       0x6c c:/px4/workspace/PX4Firmware/Build/px4io-v1_default.build/nuttx-export/libs\libnuttx.a(arch-up_exception.o)
 .debug_line    0x0000c02e      0x219 c:/px4/workspace/PX4Firmware/Build/px4io-v1_default.build/nuttx-export/libs\libnuttx.a(arch-up_exit.o)
 .debug_line    0x0000c247       0x53 c:/px4/workspace/PX4Firmware/Build/px4io-v1_default.build/nuttx-export/libs\libnuttx.a(arch-up_fullcontextrestore.o)
 .debug_line    0x0000c29a      0x13f c:/px4/workspace/PX4Firmware/Build/px4io-v1_default.build/nuttx-export/libs\libnuttx.a(arch-up_initialize.o)
 .debug_line    0x0000c3d9      0x1e0 c:/px4/workspace/PX4Firmware/Build/px4io-v1_default.build/nuttx-export/libs\libnuttx.a(arch-up_initialstate.o)
 .debug_line    0x0000c5b9      0x111 c:/px4/workspace/PX4Firmware/Build/px4io-v1_default.build/nuttx-export/libs\libnuttx.a(arch-up_interruptcontext.o)
 .debug_line    0x0000c6ca       0x94 c:/px4/workspace/PX4Firmware/Build/px4io-v1_default.build/nuttx-export/libs\libnuttx.a(arch-up_mdelay.o)
 .debug_line    0x0000c75e       0x4f c:/px4/workspace/PX4Firmware/Build/px4io-v1_default.build/nuttx-export/libs\libnuttx.a(arch-up_switchcontext.o)
 .debug_line    0x0000c7ad      0x275 c:/px4/workspace/PX4Firmware/Build/px4io-v1_default.build/nuttx-export/libs\libnuttx.a(arch-up_unblocktask.o)
 .debug_line    0x0000ca22      0x275 c:/px4/workspace/PX4Firmware/Build/px4io-v1_default.build/nuttx-export/libs\libnuttx.a(fs-fs_files.o)
 .debug_line    0x0000cc97      0x130 c:/px4/workspace/PX4Firmware/Build/px4io-v1_default.build/nuttx-export/libs\libnuttx.a(fs-fs_inodeaddref.o)
 .debug_line    0x0000cdc7      0x13a c:/px4/workspace/PX4Firmware/Build/px4io-v1_default.build/nuttx-export/libs\libnuttx.a(fs-fs_inodefind.o)
 .debug_line    0x0000cf01      0x141 c:/px4/workspace/PX4Firmware/Build/px4io-v1_default.build/nuttx-export/libs\libnuttx.a(fs-fs_inoderelease.o)
 .debug_line    0x0000d042      0x13d c:/px4/workspace/PX4Firmware/Build/px4io-v1_default.build/nuttx-export/libs\libnuttx.a(fs-fs_registerdriver.o)
 .debug_line    0x0000d17f      0x161 c:/px4/workspace/PX4Firmware/Build/px4io-v1_default.build/nuttx-export/libs\libnuttx.a(fs-fs_write.o)
 .debug_line    0x0000d2e0      0x1df c:/px4/workspace/PX4Firmware/Build/px4io-v1_default.build/nuttx-export/libs\libnuttx.a(sched-group_create.o)
 .debug_line    0x0000d4bf      0x1cc c:/px4/workspace/PX4Firmware/Build/px4io-v1_default.build/nuttx-export/libs\libnuttx.a(sched-group_leave.o)
 .debug_line    0x0000d68b      0x1d9 c:/px4/workspace/PX4Firmware/Build/px4io-v1_default.build/nuttx-export/libs\libnuttx.a(sched-group_setupidlefiles.o)
 .debug_line    0x0000d864       0xef c:/px4/workspace/PX4Firmware/Build/px4io-v1_default.build/nuttx-export/libs\libnuttx.a(sched-os_bringup.o)
 .debug_line    0x0000d953      0x1ec c:/px4/workspace/PX4Firmware/Build/px4io-v1_default.build/nuttx-export/libs\libnuttx.a(sched-sched_addblocked.o)
 .debug_line    0x0000db3f      0x204 c:/px4/workspace/PX4Firmware/Build/px4io-v1_default.build/nuttx-export/libs\libnuttx.a(sched-sched_addprioritized.o)
 .debug_line    0x0000dd43      0x201 c:/px4/workspace/PX4Firmware/Build/px4io-v1_default.build/nuttx-export/libs\libnuttx.a(sched-sched_addreadytorun.o)
 .debug_line    0x0000df44      0x156 c:/px4/workspace/PX4Firmware/Build/px4io-v1_default.build/nuttx-export/libs\libnuttx.a(sched-sched_free.o)
 .debug_line    0x0000e09a      0x226 c:/px4/workspace/PX4Firmware/Build/px4io-v1_default.build/nuttx-export/libs\libnuttx.a(sched-sched_mergepending.o)
 .debug_line    0x0000e2c0      0x1eb c:/px4/workspace/PX4Firmware/Build/px4io-v1_default.build/nuttx-export/libs\libnuttx.a(sched-sched_removeblocked.o)
 .debug_line    0x0000e4ab      0x1f8 c:/px4/workspace/PX4Firmware/Build/px4io-v1_default.build/nuttx-export/libs\libnuttx.a(sched-sched_removereadytorun.o)
 .debug_line    0x0000e6a3       0xc3 c:/px4/workspace/PX4Firmware/Build/px4io-v1_default.build/nuttx-export/libs\libnuttx.a(sched-sem_destroy.o)
 .debug_line    0x0000e766      0x23c c:/px4/workspace/PX4Firmware/Build/px4io-v1_default.build/nuttx-export/libs\libnuttx.a(sched-task_create.o)
 .debug_line    0x0000e9a2      0x1f1 c:/px4/workspace/PX4Firmware/Build/px4io-v1_default.build/nuttx-export/libs\libnuttx.a(sched-task_exit.o)
 .debug_line    0x0000eb93      0x272 c:/px4/workspace/PX4Firmware/Build/px4io-v1_default.build/nuttx-export/libs\libnuttx.a(sched-task_setup.o)
 .debug_line    0x0000ee05      0x1e4 c:/px4/workspace/PX4Firmware/Build/px4io-v1_default.build/nuttx-export/libs\libnuttx.a(sched-task_start.o)
 .debug_line    0x0000efe9      0x20b c:/px4/workspace/PX4Firmware/Build/px4io-v1_default.build/nuttx-export/libs\libnuttx.a(sched-task_terminate.o)
 .debug_line    0x0000f1f4       0x7b c:/px4/workspace/PX4Firmware/Build/px4io-v1_default.build/nuttx-export/libs\libnuttx.a(c-dq_addlast.o)
 .debug_line    0x0000f26f       0x7c c:/px4/workspace/PX4Firmware/Build/px4io-v1_default.build/nuttx-export/libs\libnuttx.a(c-dq_rem.o)
 .debug_line    0x0000f2eb       0x7c c:/px4/workspace/PX4Firmware/Build/px4io-v1_default.build/nuttx-export/libs\libnuttx.a(c-lib_strdup.o)
 .debug_line    0x0000f367      0x158 c:/px4/workspace/PX4Firmware/Build/px4io-v1_default.build/nuttx-export/libs\libnuttx.a(arch-stm32_timerisr.o)
 .debug_line    0x0000f4bf      0x1ef c:/px4/workspace/PX4Firmware/Build/px4io-v1_default.build/nuttx-export/libs\libnuttx.a(arch-up_createstack.o)
 .debug_line    0x0000f6ae      0x107 c:/px4/workspace/PX4Firmware/Build/px4io-v1_default.build/nuttx-export/libs\libnuttx.a(arch-up_doirq.o)
 .debug_line    0x0000f7b5      0x1d7 c:/px4/workspace/PX4Firmware/Build/px4io-v1_default.build/nuttx-export/libs\libnuttx.a(arch-up_releasestack.o)
 .debug_line    0x0000f98c       0x85 c:/px4/workspace/PX4Firmware/Build/px4io-v1_default.build/nuttx-export/libs\libnuttx.a(fs-fs_close.o)
 .debug_line    0x0000fa11      0x156 c:/px4/workspace/PX4Firmware/Build/px4io-v1_default.build/nuttx-export/libs\libnuttx.a(fs-fs_filedup2.o)
 .debug_line    0x0000fb67      0x20b c:/px4/workspace/PX4Firmware/Build/px4io-v1_default.build/nuttx-export/libs\libnuttx.a(fs-fs_inode.o)
 .debug_line    0x0000fd72      0x1b1 c:/px4/workspace/PX4Firmware/Build/px4io-v1_default.build/nuttx-export/libs\libnuttx.a(fs-fs_inodereserve.o)
 .debug_line    0x0000ff23      0x1c9 c:/px4/workspace/PX4Firmware/Build/px4io-v1_default.build/nuttx-export/libs\libnuttx.a(sched-group_setuptaskfiles.o)
 .debug_line    0x000100ec       0xb4 c:/px4/workspace/PX4Firmware/Build/px4io-v1_default.build/nuttx-export/libs\libnuttx.a(sched-irq_dispatch.o)
 .debug_line    0x000101a0      0x1d7 c:/px4/workspace/PX4Firmware/Build/px4io-v1_default.build/nuttx-export/libs\libnuttx.a(sched-sched_gettcb.o)
 .debug_line    0x00010377      0x1f3 c:/px4/workspace/PX4Firmware/Build/px4io-v1_default.build/nuttx-export/libs\libnuttx.a(sched-sched_lock.o)
 .debug_line    0x0001056a       0x81 c:/px4/workspace/PX4Firmware/Build/px4io-v1_default.build/nuttx-export/libs\libnuttx.a(sched-sched_processtimer.o)
 .debug_line    0x000105eb      0x20b c:/px4/workspace/PX4Firmware/Build/px4io-v1_default.build/nuttx-export/libs\libnuttx.a(sched-sched_releasetcb.o)
 .debug_line    0x000107f6      0x208 c:/px4/workspace/PX4Firmware/Build/px4io-v1_default.build/nuttx-export/libs\libnuttx.a(sched-sched_unlock.o)
 .debug_line    0x000109fe      0x1df c:/px4/workspace/PX4Firmware/Build/px4io-v1_default.build/nuttx-export/libs\libnuttx.a(sched-task_activate.o)
 .debug_line    0x00010bdd      0x269 c:/px4/workspace/PX4Firmware/Build/px4io-v1_default.build/nuttx-export/libs\libnuttx.a(arch-up_releasepending.o)

.debug_pubnames
 *(.debug_pubnames)

.debug_aranges  0x00000000     0x1a78
 *(.debug_aranges)
 .debug_aranges
                0x00000000       0x20 c:/px4/workspace/PX4Firmware/Build/px4io-v1_default.build/c/px4/workspace/PX4Firmware/src/drivers/boards/px4io-v1/module.pre.o
 .debug_aranges
                0x00000020       0xe8 c:/px4/workspace/PX4Firmware/Build/px4io-v1_default.build/c/px4/workspace/PX4Firmware/src/drivers/stm32/module.pre.o
 .debug_aranges
                0x00000108      0x430 c:/px4/workspace/PX4Firmware/Build/px4io-v1_default.build/c/px4/workspace/PX4Firmware/src/modules/px4iofirmware/module.pre.o
 .debug_aranges
                0x00000538       0x20 c:/px4/workspace/PX4Firmware/Build/px4io-v1_default.build/nuttx-export/libs\libnuttx.a(sched-irq_attach.o)
 .debug_aranges
                0x00000558       0x20 c:/px4/workspace/PX4Firmware/Build/px4io-v1_default.build/nuttx-export/libs\libnuttx.a(sched-irq_initialize.o)
 .debug_aranges
                0x00000578       0x20 c:/px4/workspace/PX4Firmware/Build/px4io-v1_default.build/nuttx-export/libs\libnuttx.a(sched-irq_unexpectedisr.o)
 .debug_aranges
                0x00000598       0x20 c:/px4/workspace/PX4Firmware/Build/px4io-v1_default.build/nuttx-export/libs\libnuttx.a(c-lib_abort.o)
 .debug_aranges
                0x000005b8       0x20 c:/px4/workspace/PX4Firmware/Build/px4io-v1_default.build/nuttx-export/libs\libnuttx.a(c-lib_cfsetspeed.o)
 .debug_aranges
                0x000005d8       0x28 c:/px4/workspace/PX4Firmware/Build/px4io-v1_default.build/nuttx-export/libs\libnuttx.a(c-lib_crc32.o)
 .debug_aranges
                0x00000600       0x28 c:/px4/workspace/PX4Firmware/Build/px4io-v1_default.build/nuttx-export/libs\libnuttx.a(c-lib_lowsyslog.o)
 .debug_aranges
                0x00000628       0x20 c:/px4/workspace/PX4Firmware/Build/px4io-v1_default.build/nuttx-export/libs\libnuttx.a(c-lib_memchr.o)
 .debug_aranges
                0x00000648       0x20 c:/px4/workspace/PX4Firmware/Build/px4io-v1_default.build/nuttx-export/libs\libnuttx.a(c-lib_memcpy.o)
 .debug_aranges
                0x00000668       0x20 c:/px4/workspace/PX4Firmware/Build/px4io-v1_default.build/nuttx-export/libs\libnuttx.a(c-lib_memset.o)
 .debug_aranges
                0x00000688       0x20 c:/px4/workspace/PX4Firmware/Build/px4io-v1_default.build/nuttx-export/libs\libnuttx.a(c-lib_printf.o)
 .debug_aranges
                0x000006a8       0x30 c:/px4/workspace/PX4Firmware/Build/px4io-v1_default.build/nuttx-export/libs\libnuttx.a(c-lib_sscanf.o)
 .debug_aranges
                0x000006d8       0x20 c:/px4/workspace/PX4Firmware/Build/px4io-v1_default.build/nuttx-export/libs\libnuttx.a(c-lib_strchr.o)
 .debug_aranges
                0x000006f8       0x20 c:/px4/workspace/PX4Firmware/Build/px4io-v1_default.build/nuttx-export/libs\libnuttx.a(c-lib_strcmp.o)
 .debug_aranges
                0x00000718       0x20 c:/px4/workspace/PX4Firmware/Build/px4io-v1_default.build/nuttx-export/libs\libnuttx.a(c-lib_strcspn.o)
 .debug_aranges
                0x00000738       0x20 c:/px4/workspace/PX4Firmware/Build/px4io-v1_default.build/nuttx-export/libs\libnuttx.a(c-lib_strncpy.o)
 .debug_aranges
                0x00000758       0x20 c:/px4/workspace/PX4Firmware/Build/px4io-v1_default.build/nuttx-export/libs\libnuttx.a(c-lib_strtol.o)
 .debug_aranges
                0x00000778       0x20 c:/px4/workspace/PX4Firmware/Build/px4io-v1_default.build/nuttx-export/libs\libnuttx.a(c-lib_strtoul.o)
 .debug_aranges
                0x00000798       0x28 c:/px4/workspace/PX4Firmware/Build/px4io-v1_default.build/nuttx-export/libs\libnuttx.a(c-lib_syslog.o)
 .debug_aranges
                0x000007c0       0x20 c:/px4/workspace/PX4Firmware/Build/px4io-v1_default.build/nuttx-export/libs\libnuttx.a(c-lib_tcgetattr.o)
 .debug_aranges
                0x000007e0       0x20 c:/px4/workspace/PX4Firmware/Build/px4io-v1_default.build/nuttx-export/libs\libnuttx.a(c-lib_tcsetattr.o)
 .debug_aranges
                0x00000800       0x20 c:/px4/workspace/PX4Firmware/Build/px4io-v1_default.build/nuttx-export/libs\libnuttx.a(c-lib_vsnprintf.o)
 .debug_aranges
                0x00000820       0x20 c:/px4/workspace/PX4Firmware/Build/px4io-v1_default.build/nuttx-export/libs\libnuttx.a(c-sq_addafter.o)
 .debug_aranges
                0x00000840       0x20 c:/px4/workspace/PX4Firmware/Build/px4io-v1_default.build/nuttx-export/libs\libnuttx.a(c-sq_addfirst.o)
 .debug_aranges
                0x00000860       0x20 c:/px4/workspace/PX4Firmware/Build/px4io-v1_default.build/nuttx-export/libs\libnuttx.a(c-sq_addlast.o)
 .debug_aranges
                0x00000880       0x20 c:/px4/workspace/PX4Firmware/Build/px4io-v1_default.build/nuttx-export/libs\libnuttx.a(c-sq_rem.o)
 .debug_aranges
                0x000008a0       0x20 c:/px4/workspace/PX4Firmware/Build/px4io-v1_default.build/nuttx-export/libs\libnuttx.a(c-sq_remafter.o)
 .debug_aranges
                0x000008c0       0x20 c:/px4/workspace/PX4Firmware/Build/px4io-v1_default.build/nuttx-export/libs\libnuttx.a(mm-mm_calloc.o)
 .debug_aranges
                0x000008e0       0x20 c:/px4/workspace/PX4Firmware/Build/px4io-v1_default.build/nuttx-export/libs\libnuttx.a(mm-mm_free.o)
 .debug_aranges
                0x00000900       0x20 c:/px4/workspace/PX4Firmware/Build/px4io-v1_default.build/nuttx-export/libs\libnuttx.a(mm-mm_mallinfo.o)
 .debug_aranges
                0x00000920       0x20 c:/px4/workspace/PX4Firmware/Build/px4io-v1_default.build/nuttx-export/libs\libnuttx.a(mm-mm_malloc.o)
 .debug_aranges
                0x00000940       0x38 c:/px4/workspace/PX4Firmware/Build/px4io-v1_default.build/nuttx-export/libs\libnuttx.a(mm-mm_sem.o)
 .debug_aranges
                0x00000978       0x20 c:/px4/workspace/PX4Firmware/Build/px4io-v1_default.build/nuttx-export/libs\libnuttx.a(mm-mm_size2ndx.o)
 .debug_aranges
                0x00000998       0x38 c:/px4/workspace/PX4Firmware/Build/px4io-v1_default.build/nuttx-export/libs\libnuttx.a(mm-mm_user.o)
 .debug_aranges
                0x000009d0       0x20 c:/px4/workspace/PX4Firmware/Build/px4io-v1_default.build/nuttx-export/libs\libnuttx.a(mm-mm_zalloc.o)
 .debug_aranges
                0x000009f0       0x60 c:/px4/workspace/PX4Firmware/Build/px4io-v1_default.build/nuttx-export/libs\libnuttx.a(arch-stm32_dma.o)
 .debug_aranges
                0x00000a50       0x40 c:/px4/workspace/PX4Firmware/Build/px4io-v1_default.build/nuttx-export/libs\libnuttx.a(arch-stm32_gpio.o)
 .debug_aranges
                0x00000a90       0x48 c:/px4/workspace/PX4Firmware/Build/px4io-v1_default.build/nuttx-export/libs\libnuttx.a(arch-stm32_irq.o)
 .debug_aranges
                0x00000ad8      0x100 c:/px4/workspace/PX4Firmware/Build/px4io-v1_default.build/nuttx-export/libs\libnuttx.a(arch-stm32_serial.o)
 .debug_aranges
                0x00000bd8       0x20 c:/px4/workspace/PX4Firmware/Build/px4io-v1_default.build/nuttx-export/libs\libnuttx.a(arch-stm32_start.o)
 .debug_aranges
                0x00000bf8       0x20 c:/px4/workspace/PX4Firmware/Build/px4io-v1_default.build/nuttx-export/libs\libnuttx.a(arch-up_assert.o)
 .debug_aranges
                0x00000c18       0x20 c:/px4/workspace/PX4Firmware/Build/px4io-v1_default.build/nuttx-export/libs\libnuttx.a(arch-up_hardfault.o)
 .debug_aranges
                0x00000c38       0x20 c:/px4/workspace/PX4Firmware/Build/px4io-v1_default.build/nuttx-export/libs\libnuttx.a(arch-up_modifyreg32.o)
 .debug_aranges
                0x00000c58       0x20 c:/px4/workspace/PX4Firmware/Build/px4io-v1_default.build/nuttx-export/libs\libnuttx.a(arch-up_svcall.o)
 .debug_aranges
                0x00000c78       0x20 c:/px4/workspace/PX4Firmware/Build/px4io-v1_default.build/nuttx-export/libs\libnuttx.a(arch-up_systemreset.o)
 .debug_aranges
                0x00000c98       0x20 c:/px4/workspace/PX4Firmware/Build/px4io-v1_default.build/nuttx-export/libs\libnuttx.a(arch-up_udelay.o)
 .debug_aranges
                0x00000cb8       0x20 c:/px4/workspace/PX4Firmware/Build/px4io-v1_default.build/nuttx-export/libs\libnuttx.a(cxx-libxx_cxa_atexit.o)
 .debug_aranges
                0x00000cd8       0x20 c:/px4/workspace/PX4Firmware/Build/px4io-v1_default.build/nuttx-export/libs\libnuttx.a(cxx-libxx_cxapurevirtual.o)
 .debug_aranges
                0x00000cf8       0x20 c:/px4/workspace/PX4Firmware/Build/px4io-v1_default.build/nuttx-export/libs\libnuttx.a(cxx-libxx_delete.o)
 .debug_aranges
                0x00000d18       0x20 c:/px4/workspace/PX4Firmware/Build/px4io-v1_default.build/nuttx-export/libs\libnuttx.a(cxx-libxx_eabi_atexit.o)
 .debug_aranges
                0x00000d38       0x20 c:/px4/workspace/PX4Firmware/Build/px4io-v1_default.build/nuttx-export/libs\libnuttx.a(cxx-libxx_new.o)
 .debug_aranges
                0x00000d58       0x20 c:/px4/workspace/PX4Firmware/Build/px4io-v1_default.build/nuttx-export/libs\libnuttx.a(fs-fs_ioctl.o)
 .debug_aranges
                0x00000d78       0x28 c:/px4/workspace/PX4Firmware/Build/px4io-v1_default.build/nuttx-export/libs\libnuttx.a(fs-fs_open.o)
 .debug_aranges
                0x00000da0       0x20 c:/px4/workspace/PX4Firmware/Build/px4io-v1_default.build/nuttx-export/libs\libnuttx.a(fs-fs_read.o)
 .debug_aranges
                0x00000dc0       0x68 c:/px4/workspace/PX4Firmware/Build/px4io-v1_default.build/nuttx-export/libs\libnuttx.a(drivers-serial.o)
 .debug_aranges
                0x00000e28       0x28 c:/px4/workspace/PX4Firmware/Build/px4io-v1_default.build/nuttx-export/libs\libnuttx.a(drivers-serialirq.o)
 .debug_aranges
                0x00000e50       0x20 c:/px4/workspace/PX4Firmware/Build/px4io-v1_default.build/nuttx-export/libs\libnuttx.a(sched-errno_getptr.o)
 .debug_aranges
                0x00000e70       0x20 c:/px4/workspace/PX4Firmware/Build/px4io-v1_default.build/nuttx-export/libs\libnuttx.a(sched-exit.o)
 .debug_aranges
                0x00000e90       0x20 c:/px4/workspace/PX4Firmware/Build/px4io-v1_default.build/nuttx-export/libs\libnuttx.a(sched-getpid.o)
 .debug_aranges
                0x00000eb0       0x20 c:/px4/workspace/PX4Firmware/Build/px4io-v1_default.build/nuttx-export/libs\libnuttx.a(sched-os_start.o)
 .debug_aranges
                0x00000ed0       0x20 c:/px4/workspace/PX4Firmware/Build/px4io-v1_default.build/nuttx-export/libs\libnuttx.a(sched-sched_garbage.o)
 .debug_aranges
                0x00000ef0       0x20 c:/px4/workspace/PX4Firmware/Build/px4io-v1_default.build/nuttx-export/libs\libnuttx.a(sched-sched_getfiles.o)
 .debug_aranges
                0x00000f10       0x20 c:/px4/workspace/PX4Firmware/Build/px4io-v1_default.build/nuttx-export/libs\libnuttx.a(sched-sem_post.o)
 .debug_aranges
                0x00000f30       0x20 c:/px4/workspace/PX4Firmware/Build/px4io-v1_default.build/nuttx-export/libs\libnuttx.a(sched-sem_trywait.o)
 .debug_aranges
                0x00000f50       0x20 c:/px4/workspace/PX4Firmware/Build/px4io-v1_default.build/nuttx-export/libs\libnuttx.a(sched-sem_wait.o)
 .debug_aranges
                0x00000f70       0x20 c:/px4/workspace/PX4Firmware/Build/px4io-v1_default.build/nuttx-export/libs\libnuttx.a(sched-task_exithook.o)
 .debug_aranges
                0x00000f90       0x20 c:/px4/workspace/PX4Firmware/Build/px4io-v1_default.build/nuttx-export/libs\libnuttx.a(sched-task_recover.o)
 .debug_aranges
                0x00000fb0       0x20 c:/px4/workspace/PX4Firmware/Build/px4io-v1_default.build/nuttx-export/libs\libnuttx.a(sched-wd_cancel.o)
 .debug_aranges
                0x00000fd0       0x20 c:/px4/workspace/PX4Firmware/Build/px4io-v1_default.build/nuttx-export/libs\libnuttx.a(sched-wd_delete.o)
 .debug_aranges
                0x00000ff0       0x20 c:/px4/workspace/PX4Firmware/Build/px4io-v1_default.build/nuttx-export/libs\libnuttx.a(sched-wd_initialize.o)
 .debug_aranges
                0x00001010       0x20 c:/px4/workspace/PX4Firmware/Build/px4io-v1_default.build/nuttx-export/libs\libnuttx.a(c-dq_addfirst.o)
 .debug_aranges
                0x00001030       0x20 c:/px4/workspace/PX4Firmware/Build/px4io-v1_default.build/nuttx-export/libs\libnuttx.a(c-lib_cfgetspeed.o)
 .debug_aranges
                0x00001050       0x20 c:/px4/workspace/PX4Firmware/Build/px4io-v1_default.build/nuttx-export/libs\libnuttx.a(c-lib_checkbase.o)
 .debug_aranges
                0x00001070       0x20 c:/px4/workspace/PX4Firmware/Build/px4io-v1_default.build/nuttx-export/libs\libnuttx.a(c-lib_isbasedigit.o)
 .debug_aranges
                0x00001090       0x80 c:/px4/workspace/PX4Firmware/Build/px4io-v1_default.build/nuttx-export/libs\libnuttx.a(c-lib_libvsprintf.o)
 .debug_aranges
                0x00001110       0x28 c:/px4/workspace/PX4Firmware/Build/px4io-v1_default.build/nuttx-export/libs\libnuttx.a(c-lib_lowoutstream.o)
 .debug_aranges
                0x00001138       0x28 c:/px4/workspace/PX4Firmware/Build/px4io-v1_default.build/nuttx-export/libs\libnuttx.a(c-lib_memoutstream.o)
 .debug_aranges
                0x00001160       0x28 c:/px4/workspace/PX4Firmware/Build/px4io-v1_default.build/nuttx-export/libs\libnuttx.a(c-lib_nulloutstream.o)
 .debug_aranges
                0x00001188       0x28 c:/px4/workspace/PX4Firmware/Build/px4io-v1_default.build/nuttx-export/libs\libnuttx.a(c-lib_rawoutstream.o)
 .debug_aranges
                0x000011b0       0x20 c:/px4/workspace/PX4Firmware/Build/px4io-v1_default.build/nuttx-export/libs\libnuttx.a(c-lib_skipspace.o)
 .debug_aranges
                0x000011d0       0x20 c:/px4/workspace/PX4Firmware/Build/px4io-v1_default.build/nuttx-export/libs\libnuttx.a(c-lib_strcpy.o)
 .debug_aranges
                0x000011f0       0x20 c:/px4/workspace/PX4Firmware/Build/px4io-v1_default.build/nuttx-export/libs\libnuttx.a(c-lib_strlen.o)
 .debug_aranges
                0x00001210       0x20 c:/px4/workspace/PX4Firmware/Build/px4io-v1_default.build/nuttx-export/libs\libnuttx.a(c-sem_init.o)
 .debug_aranges
                0x00001230       0x20 c:/px4/workspace/PX4Firmware/Build/px4io-v1_default.build/nuttx-export/libs\libnuttx.a(c-sq_remfirst.o)
 .debug_aranges
                0x00001250       0x20 c:/px4/workspace/PX4Firmware/Build/px4io-v1_default.build/nuttx-export/libs\libnuttx.a(mm-mm_addfreechunk.o)
 .debug_aranges
                0x00001270       0x28 c:/px4/workspace/PX4Firmware/Build/px4io-v1_default.build/nuttx-export/libs\libnuttx.a(mm-mm_initialize.o)
 .debug_aranges
                0x00001298       0x20 c:/px4/workspace/PX4Firmware/Build/px4io-v1_default.build/nuttx-export/libs\libnuttx.a(arch-stm32_allocateheap.o)
 .debug_aranges
                0x000012b8       0x20 c:/px4/workspace/PX4Firmware/Build/px4io-v1_default.build/nuttx-export/libs\libnuttx.a(arch-stm32_idle.o)
 .debug_aranges
                0x000012d8       0x28 c:/px4/workspace/PX4Firmware/Build/px4io-v1_default.build/nuttx-export/libs\libnuttx.a(arch-stm32_lowputc.o)
 .debug_aranges
                0x00001300       0x20 c:/px4/workspace/PX4Firmware/Build/px4io-v1_default.build/nuttx-export/libs\libnuttx.a(arch-stm32_rcc.o)
 .debug_aranges
                0x00001320       0x20 c:/px4/workspace/PX4Firmware/Build/px4io-v1_default.build/nuttx-export/libs\libnuttx.a(arch-up_blocktask.o)
 .debug_aranges
                0x00001340       0x20 c:/px4/workspace/PX4Firmware/Build/px4io-v1_default.build/nuttx-export/libs\libnuttx.a(arch-up_copystate.o)
 .debug_aranges
                0x00001360       0x20 c:/px4/workspace/PX4Firmware/Build/px4io-v1_default.build/nuttx-export/libs\libnuttx.a(arch-up_exception.o)
 .debug_aranges
                0x00001380       0x20 c:/px4/workspace/PX4Firmware/Build/px4io-v1_default.build/nuttx-export/libs\libnuttx.a(arch-up_exit.o)
 .debug_aranges
                0x000013a0       0x20 c:/px4/workspace/PX4Firmware/Build/px4io-v1_default.build/nuttx-export/libs\libnuttx.a(arch-up_fullcontextrestore.o)
 .debug_aranges
                0x000013c0       0x20 c:/px4/workspace/PX4Firmware/Build/px4io-v1_default.build/nuttx-export/libs\libnuttx.a(arch-up_initialize.o)
 .debug_aranges
                0x000013e0       0x20 c:/px4/workspace/PX4Firmware/Build/px4io-v1_default.build/nuttx-export/libs\libnuttx.a(arch-up_initialstate.o)
 .debug_aranges
                0x00001400       0x20 c:/px4/workspace/PX4Firmware/Build/px4io-v1_default.build/nuttx-export/libs\libnuttx.a(arch-up_interruptcontext.o)
 .debug_aranges
                0x00001420       0x20 c:/px4/workspace/PX4Firmware/Build/px4io-v1_default.build/nuttx-export/libs\libnuttx.a(arch-up_mdelay.o)
 .debug_aranges
                0x00001440       0x20 c:/px4/workspace/PX4Firmware/Build/px4io-v1_default.build/nuttx-export/libs\libnuttx.a(arch-up_switchcontext.o)
 .debug_aranges
                0x00001460       0x20 c:/px4/workspace/PX4Firmware/Build/px4io-v1_default.build/nuttx-export/libs\libnuttx.a(arch-up_unblocktask.o)
 .debug_aranges
                0x00001480       0x60 c:/px4/workspace/PX4Firmware/Build/px4io-v1_default.build/nuttx-export/libs\libnuttx.a(fs-fs_files.o)
 .debug_aranges
                0x000014e0       0x20 c:/px4/workspace/PX4Firmware/Build/px4io-v1_default.build/nuttx-export/libs\libnuttx.a(fs-fs_inodeaddref.o)
 .debug_aranges
                0x00001500       0x20 c:/px4/workspace/PX4Firmware/Build/px4io-v1_default.build/nuttx-export/libs\libnuttx.a(fs-fs_inodefind.o)
 .debug_aranges
                0x00001520       0x20 c:/px4/workspace/PX4Firmware/Build/px4io-v1_default.build/nuttx-export/libs\libnuttx.a(fs-fs_inoderelease.o)
 .debug_aranges
                0x00001540       0x20 c:/px4/workspace/PX4Firmware/Build/px4io-v1_default.build/nuttx-export/libs\libnuttx.a(fs-fs_registerdriver.o)
 .debug_aranges
                0x00001560       0x20 c:/px4/workspace/PX4Firmware/Build/px4io-v1_default.build/nuttx-export/libs\libnuttx.a(fs-fs_write.o)
 .debug_aranges
                0x00001580       0x28 c:/px4/workspace/PX4Firmware/Build/px4io-v1_default.build/nuttx-export/libs\libnuttx.a(sched-group_create.o)
 .debug_aranges
                0x000015a8       0x20 c:/px4/workspace/PX4Firmware/Build/px4io-v1_default.build/nuttx-export/libs\libnuttx.a(sched-group_leave.o)
 .debug_aranges
                0x000015c8       0x20 c:/px4/workspace/PX4Firmware/Build/px4io-v1_default.build/nuttx-export/libs\libnuttx.a(sched-group_setupidlefiles.o)
 .debug_aranges
                0x000015e8       0x20 c:/px4/workspace/PX4Firmware/Build/px4io-v1_default.build/nuttx-export/libs\libnuttx.a(sched-os_bringup.o)
 .debug_aranges
                0x00001608       0x20 c:/px4/workspace/PX4Firmware/Build/px4io-v1_default.build/nuttx-export/libs\libnuttx.a(sched-sched_addblocked.o)
 .debug_aranges
                0x00001628       0x20 c:/px4/workspace/PX4Firmware/Build/px4io-v1_default.build/nuttx-export/libs\libnuttx.a(sched-sched_addprioritized.o)
 .debug_aranges
                0x00001648       0x20 c:/px4/workspace/PX4Firmware/Build/px4io-v1_default.build/nuttx-export/libs\libnuttx.a(sched-sched_addreadytorun.o)
 .debug_aranges
                0x00001668       0x20 c:/px4/workspace/PX4Firmware/Build/px4io-v1_default.build/nuttx-export/libs\libnuttx.a(sched-sched_free.o)
 .debug_aranges
                0x00001688       0x20 c:/px4/workspace/PX4Firmware/Build/px4io-v1_default.build/nuttx-export/libs\libnuttx.a(sched-sched_mergepending.o)
 .debug_aranges
                0x000016a8       0x20 c:/px4/workspace/PX4Firmware/Build/px4io-v1_default.build/nuttx-export/libs\libnuttx.a(sched-sched_removeblocked.o)
 .debug_aranges
                0x000016c8       0x20 c:/px4/workspace/PX4Firmware/Build/px4io-v1_default.build/nuttx-export/libs\libnuttx.a(sched-sched_removereadytorun.o)
 .debug_aranges
                0x000016e8       0x20 c:/px4/workspace/PX4Firmware/Build/px4io-v1_default.build/nuttx-export/libs\libnuttx.a(sched-sem_destroy.o)
 .debug_aranges
                0x00001708       0x30 c:/px4/workspace/PX4Firmware/Build/px4io-v1_default.build/nuttx-export/libs\libnuttx.a(sched-task_create.o)
 .debug_aranges
                0x00001738       0x20 c:/px4/workspace/PX4Firmware/Build/px4io-v1_default.build/nuttx-export/libs\libnuttx.a(sched-task_exit.o)
 .debug_aranges
                0x00001758       0x28 c:/px4/workspace/PX4Firmware/Build/px4io-v1_default.build/nuttx-export/libs\libnuttx.a(sched-task_setup.o)
 .debug_aranges
                0x00001780       0x20 c:/px4/workspace/PX4Firmware/Build/px4io-v1_default.build/nuttx-export/libs\libnuttx.a(sched-task_start.o)
 .debug_aranges
                0x000017a0       0x20 c:/px4/workspace/PX4Firmware/Build/px4io-v1_default.build/nuttx-export/libs\libnuttx.a(sched-task_terminate.o)
 .debug_aranges
                0x000017c0       0x20 c:/px4/workspace/PX4Firmware/Build/px4io-v1_default.build/nuttx-export/libs\libnuttx.a(c-dq_addlast.o)
 .debug_aranges
                0x000017e0       0x20 c:/px4/workspace/PX4Firmware/Build/px4io-v1_default.build/nuttx-export/libs\libnuttx.a(c-dq_rem.o)
 .debug_aranges
                0x00001800       0x20 c:/px4/workspace/PX4Firmware/Build/px4io-v1_default.build/nuttx-export/libs\libnuttx.a(c-lib_strdup.o)
 .debug_aranges
                0x00001820       0x28 c:/px4/workspace/PX4Firmware/Build/px4io-v1_default.build/nuttx-export/libs\libnuttx.a(arch-stm32_timerisr.o)
 .debug_aranges
                0x00001848       0x20 c:/px4/workspace/PX4Firmware/Build/px4io-v1_default.build/nuttx-export/libs\libnuttx.a(arch-up_createstack.o)
 .debug_aranges
                0x00001868       0x20 c:/px4/workspace/PX4Firmware/Build/px4io-v1_default.build/nuttx-export/libs\libnuttx.a(arch-up_doirq.o)
 .debug_aranges
                0x00001888       0x20 c:/px4/workspace/PX4Firmware/Build/px4io-v1_default.build/nuttx-export/libs\libnuttx.a(arch-up_releasestack.o)
 .debug_aranges
                0x000018a8       0x20 c:/px4/workspace/PX4Firmware/Build/px4io-v1_default.build/nuttx-export/libs\libnuttx.a(fs-fs_close.o)
 .debug_aranges
                0x000018c8       0x20 c:/px4/workspace/PX4Firmware/Build/px4io-v1_default.build/nuttx-export/libs\libnuttx.a(fs-fs_filedup2.o)
 .debug_aranges
                0x000018e8       0x48 c:/px4/workspace/PX4Firmware/Build/px4io-v1_default.build/nuttx-export/libs\libnuttx.a(fs-fs_inode.o)
 .debug_aranges
                0x00001930       0x28 c:/px4/workspace/PX4Firmware/Build/px4io-v1_default.build/nuttx-export/libs\libnuttx.a(fs-fs_inodereserve.o)
 .debug_aranges
                0x00001958       0x20 c:/px4/workspace/PX4Firmware/Build/px4io-v1_default.build/nuttx-export/libs\libnuttx.a(sched-group_setuptaskfiles.o)
 .debug_aranges
                0x00001978       0x20 c:/px4/workspace/PX4Firmware/Build/px4io-v1_default.build/nuttx-export/libs\libnuttx.a(sched-irq_dispatch.o)
 .debug_aranges
                0x00001998       0x20 c:/px4/workspace/PX4Firmware/Build/px4io-v1_default.build/nuttx-export/libs\libnuttx.a(sched-sched_gettcb.o)
 .debug_aranges
                0x000019b8       0x20 c:/px4/workspace/PX4Firmware/Build/px4io-v1_default.build/nuttx-export/libs\libnuttx.a(sched-sched_lock.o)
 .debug_aranges
                0x000019d8       0x20 c:/px4/workspace/PX4Firmware/Build/px4io-v1_default.build/nuttx-export/libs\libnuttx.a(sched-sched_processtimer.o)
 .debug_aranges
                0x000019f8       0x20 c:/px4/workspace/PX4Firmware/Build/px4io-v1_default.build/nuttx-export/libs\libnuttx.a(sched-sched_releasetcb.o)
 .debug_aranges
                0x00001a18       0x20 c:/px4/workspace/PX4Firmware/Build/px4io-v1_default.build/nuttx-export/libs\libnuttx.a(sched-sched_unlock.o)
 .debug_aranges
                0x00001a38       0x20 c:/px4/workspace/PX4Firmware/Build/px4io-v1_default.build/nuttx-export/libs\libnuttx.a(sched-task_activate.o)
 .debug_aranges
                0x00001a58       0x20 c:/px4/workspace/PX4Firmware/Build/px4io-v1_default.build/nuttx-export/libs\libnuttx.a(arch-up_releasepending.o)
START GROUP
LOAD c:/px4/workspace/PX4Firmware/Build/px4io-v1_default.build/c/px4/workspace/PX4Firmware/Build/px4io-v1_default.build/empty.c.o
LOAD c:/px4/workspace/PX4Firmware/Build/px4io-v1_default.build/c/px4/workspace/PX4Firmware/src/drivers/boards/px4io-v1/module.pre.o
LOAD c:/px4/workspace/PX4Firmware/Build/px4io-v1_default.build/c/px4/workspace/PX4Firmware/src/drivers/stm32/module.pre.o
LOAD c:/px4/workspace/PX4Firmware/Build/px4io-v1_default.build/c/px4/workspace/PX4Firmware/src/modules/px4iofirmware/module.pre.o
LOAD c:/px4/workspace/PX4Firmware/Build/px4io-v1_default.build/nuttx-export/libs\libapps.a
LOAD c:/px4/workspace/PX4Firmware/Build/px4io-v1_default.build/nuttx-export/libs\libnuttx.a
LOAD c:/px4/toolchain/bin/../lib/gcc/arm-none-eabi/4.6.2/../../../../arm-none-eabi/lib/armv7-m/libm.a
LOAD c:/px4/toolchain/bin/../lib/gcc/arm-none-eabi/4.6.2/armv7-m/libgcc.a
END GROUP
OUTPUT(c:/px4/workspace/PX4Firmware/Build/px4io-v1_default.build/firmware.elf elf32-littlearm)

.debug_frame    0x00000000     0x2dcc
 .debug_frame   0x00000000       0x28 c:/px4/workspace/PX4Firmware/Build/px4io-v1_default.build/c/px4/workspace/PX4Firmware/src/drivers/boards/px4io-v1/module.pre.o
 .debug_frame   0x00000028      0x27c c:/px4/workspace/PX4Firmware/Build/px4io-v1_default.build/c/px4/workspace/PX4Firmware/src/drivers/stm32/module.pre.o
 .debug_frame   0x000002a4      0xa30 c:/px4/workspace/PX4Firmware/Build/px4io-v1_default.build/c/px4/workspace/PX4Firmware/src/modules/px4iofirmware/module.pre.o
 .debug_frame   0x00000cd4       0x2c c:/px4/workspace/PX4Firmware/Build/px4io-v1_default.build/nuttx-export/libs\libnuttx.a(sched-irq_attach.o)
 .debug_frame   0x00000d00       0x20 c:/px4/workspace/PX4Firmware/Build/px4io-v1_default.build/nuttx-export/libs\libnuttx.a(sched-irq_initialize.o)
 .debug_frame   0x00000d20       0x28 c:/px4/workspace/PX4Firmware/Build/px4io-v1_default.build/nuttx-export/libs\libnuttx.a(sched-irq_unexpectedisr.o)
 .debug_frame   0x00000d48       0x28 c:/px4/workspace/PX4Firmware/Build/px4io-v1_default.build/nuttx-export/libs\libnuttx.a(c-lib_abort.o)
 .debug_frame   0x00000d70       0x20 c:/px4/workspace/PX4Firmware/Build/px4io-v1_default.build/nuttx-export/libs\libnuttx.a(c-lib_cfsetspeed.o)
 .debug_frame   0x00000d90       0x3c c:/px4/workspace/PX4Firmware/Build/px4io-v1_default.build/nuttx-export/libs\libnuttx.a(c-lib_crc32.o)
 .debug_frame   0x00000dcc       0x58 c:/px4/workspace/PX4Firmware/Build/px4io-v1_default.build/nuttx-export/libs\libnuttx.a(c-lib_lowsyslog.o)
 .debug_frame   0x00000e24       0x28 c:/px4/workspace/PX4Firmware/Build/px4io-v1_default.build/nuttx-export/libs\libnuttx.a(c-lib_memchr.o)
 .debug_frame   0x00000e4c       0x28 c:/px4/workspace/PX4Firmware/Build/px4io-v1_default.build/nuttx-export/libs\libnuttx.a(c-lib_memcpy.o)
 .debug_frame   0x00000e74       0x20 c:/px4/workspace/PX4Firmware/Build/px4io-v1_default.build/nuttx-export/libs\libnuttx.a(c-lib_memset.o)
 .debug_frame   0x00000e94       0x38 c:/px4/workspace/PX4Firmware/Build/px4io-v1_default.build/nuttx-export/libs\libnuttx.a(c-lib_printf.o)
 .debug_frame   0x00000ecc       0x78 c:/px4/workspace/PX4Firmware/Build/px4io-v1_default.build/nuttx-export/libs\libnuttx.a(c-lib_sscanf.o)
 .debug_frame   0x00000f44       0x20 c:/px4/workspace/PX4Firmware/Build/px4io-v1_default.build/nuttx-export/libs\libnuttx.a(c-lib_strchr.o)
 .debug_frame   0x00000f64       0x20 c:/px4/workspace/PX4Firmware/Build/px4io-v1_default.build/nuttx-export/libs\libnuttx.a(c-lib_strcmp.o)
 .debug_frame   0x00000f84       0x2c c:/px4/workspace/PX4Firmware/Build/px4io-v1_default.build/nuttx-export/libs\libnuttx.a(c-lib_strcspn.o)
 .debug_frame   0x00000fb0       0x2c c:/px4/workspace/PX4Firmware/Build/px4io-v1_default.build/nuttx-export/libs\libnuttx.a(c-lib_strncpy.o)
 .debug_frame   0x00000fdc       0x30 c:/px4/workspace/PX4Firmware/Build/px4io-v1_default.build/nuttx-export/libs\libnuttx.a(c-lib_strtol.o)
 .debug_frame   0x0000100c       0x34 c:/px4/workspace/PX4Firmware/Build/px4io-v1_default.build/nuttx-export/libs\libnuttx.a(c-lib_strtoul.o)
 .debug_frame   0x00001040       0x54 c:/px4/workspace/PX4Firmware/Build/px4io-v1_default.build/nuttx-export/libs\libnuttx.a(c-lib_syslog.o)
 .debug_frame   0x00001094       0x20 c:/px4/workspace/PX4Firmware/Build/px4io-v1_default.build/nuttx-export/libs\libnuttx.a(c-lib_tcgetattr.o)
 .debug_frame   0x000010b4       0x20 c:/px4/workspace/PX4Firmware/Build/px4io-v1_default.build/nuttx-export/libs\libnuttx.a(c-lib_tcsetattr.o)
 .debug_frame   0x000010d4       0x30 c:/px4/workspace/PX4Firmware/Build/px4io-v1_default.build/nuttx-export/libs\libnuttx.a(c-lib_vsnprintf.o)
 .debug_frame   0x00001104       0x20 c:/px4/workspace/PX4Firmware/Build/px4io-v1_default.build/nuttx-export/libs\libnuttx.a(c-sq_addafter.o)
 .debug_frame   0x00001124       0x20 c:/px4/workspace/PX4Firmware/Build/px4io-v1_default.build/nuttx-export/libs\libnuttx.a(c-sq_addfirst.o)
 .debug_frame   0x00001144       0x20 c:/px4/workspace/PX4Firmware/Build/px4io-v1_default.build/nuttx-export/libs\libnuttx.a(c-sq_addlast.o)
 .debug_frame   0x00001164       0x20 c:/px4/workspace/PX4Firmware/Build/px4io-v1_default.build/nuttx-export/libs\libnuttx.a(c-sq_rem.o)
 .debug_frame   0x00001184       0x20 c:/px4/workspace/PX4Firmware/Build/px4io-v1_default.build/nuttx-export/libs\libnuttx.a(c-sq_remafter.o)
 .debug_frame   0x000011a4       0x20 c:/px4/workspace/PX4Firmware/Build/px4io-v1_default.build/nuttx-export/libs\libnuttx.a(mm-mm_calloc.o)
 .debug_frame   0x000011c4       0x2c c:/px4/workspace/PX4Firmware/Build/px4io-v1_default.build/nuttx-export/libs\libnuttx.a(mm-mm_free.o)
 .debug_frame   0x000011f0       0x34 c:/px4/workspace/PX4Firmware/Build/px4io-v1_default.build/nuttx-export/libs\libnuttx.a(mm-mm_mallinfo.o)
 .debug_frame   0x00001224       0x2c c:/px4/workspace/PX4Firmware/Build/px4io-v1_default.build/nuttx-export/libs\libnuttx.a(mm-mm_malloc.o)
 .debug_frame   0x00001250       0x78 c:/px4/workspace/PX4Firmware/Build/px4io-v1_default.build/nuttx-export/libs\libnuttx.a(mm-mm_sem.o)
 .debug_frame   0x000012c8       0x20 c:/px4/workspace/PX4Firmware/Build/px4io-v1_default.build/nuttx-export/libs\libnuttx.a(mm-mm_size2ndx.o)
 .debug_frame   0x000012e8       0x50 c:/px4/workspace/PX4Firmware/Build/px4io-v1_default.build/nuttx-export/libs\libnuttx.a(mm-mm_user.o)
 .debug_frame   0x00001338       0x2c c:/px4/workspace/PX4Firmware/Build/px4io-v1_default.build/nuttx-export/libs\libnuttx.a(mm-mm_zalloc.o)
 .debug_frame   0x00001364       0xcc c:/px4/workspace/PX4Firmware/Build/px4io-v1_default.build/nuttx-export/libs\libnuttx.a(arch-stm32_dma.o)
 .debug_frame   0x00001430       0x78 c:/px4/workspace/PX4Firmware/Build/px4io-v1_default.build/nuttx-export/libs\libnuttx.a(arch-stm32_gpio.o)
 .debug_frame   0x000014a8       0x98 c:/px4/workspace/PX4Firmware/Build/px4io-v1_default.build/nuttx-export/libs\libnuttx.a(arch-stm32_irq.o)
 .debug_frame   0x00001540      0x2a4 c:/px4/workspace/PX4Firmware/Build/px4io-v1_default.build/nuttx-export/libs\libnuttx.a(arch-stm32_serial.o)
 .debug_frame   0x000017e4       0x28 c:/px4/workspace/PX4Firmware/Build/px4io-v1_default.build/nuttx-export/libs\libnuttx.a(arch-stm32_start.o)
 .debug_frame   0x0000180c       0x34 c:/px4/workspace/PX4Firmware/Build/px4io-v1_default.build/nuttx-export/libs\libnuttx.a(arch-up_assert.o)
 .debug_frame   0x00001840       0x28 c:/px4/workspace/PX4Firmware/Build/px4io-v1_default.build/nuttx-export/libs\libnuttx.a(arch-up_hardfault.o)
 .debug_frame   0x00001868       0x28 c:/px4/workspace/PX4Firmware/Build/px4io-v1_default.build/nuttx-export/libs\libnuttx.a(arch-up_modifyreg32.o)
 .debug_frame   0x00001890       0x28 c:/px4/workspace/PX4Firmware/Build/px4io-v1_default.build/nuttx-export/libs\libnuttx.a(arch-up_svcall.o)
 .debug_frame   0x000018b8       0x20 c:/px4/workspace/PX4Firmware/Build/px4io-v1_default.build/nuttx-export/libs\libnuttx.a(arch-up_systemreset.o)
 .debug_frame   0x000018d8       0x24 c:/px4/workspace/PX4Firmware/Build/px4io-v1_default.build/nuttx-export/libs\libnuttx.a(arch-up_udelay.o)
 .debug_frame   0x000018fc       0x20 c:/px4/workspace/PX4Firmware/Build/px4io-v1_default.build/nuttx-export/libs\libnuttx.a(cxx-libxx_cxa_atexit.o)
 .debug_frame   0x0000191c       0x28 c:/px4/workspace/PX4Firmware/Build/px4io-v1_default.build/nuttx-export/libs\libnuttx.a(cxx-libxx_cxapurevirtual.o)
 .debug_frame   0x00001944       0x20 c:/px4/workspace/PX4Firmware/Build/px4io-v1_default.build/nuttx-export/libs\libnuttx.a(cxx-libxx_delete.o)
 .debug_frame   0x00001964       0x20 c:/px4/workspace/PX4Firmware/Build/px4io-v1_default.build/nuttx-export/libs\libnuttx.a(cxx-libxx_eabi_atexit.o)
 .debug_frame   0x00001984       0x20 c:/px4/workspace/PX4Firmware/Build/px4io-v1_default.build/nuttx-export/libs\libnuttx.a(cxx-libxx_new.o)
 .debug_frame   0x000019a4       0x2c c:/px4/workspace/PX4Firmware/Build/px4io-v1_default.build/nuttx-export/libs\libnuttx.a(fs-fs_ioctl.o)
 .debug_frame   0x000019d0       0x4c c:/px4/workspace/PX4Firmware/Build/px4io-v1_default.build/nuttx-export/libs\libnuttx.a(fs-fs_open.o)
 .debug_frame   0x00001a1c       0x2c c:/px4/workspace/PX4Firmware/Build/px4io-v1_default.build/nuttx-export/libs\libnuttx.a(fs-fs_read.o)
 .debug_frame   0x00001a48      0x138 c:/px4/workspace/PX4Firmware/Build/px4io-v1_default.build/nuttx-export/libs\libnuttx.a(drivers-serial.o)
 .debug_frame   0x00001b80       0x4c c:/px4/workspace/PX4Firmware/Build/px4io-v1_default.build/nuttx-export/libs\libnuttx.a(drivers-serialirq.o)
 .debug_frame   0x00001bcc       0x28 c:/px4/workspace/PX4Firmware/Build/px4io-v1_default.build/nuttx-export/libs\libnuttx.a(sched-errno_getptr.o)
 .debug_frame   0x00001bf4       0x28 c:/px4/workspace/PX4Firmware/Build/px4io-v1_default.build/nuttx-export/libs\libnuttx.a(sched-exit.o)
 .debug_frame   0x00001c1c       0x20 c:/px4/workspace/PX4Firmware/Build/px4io-v1_default.build/nuttx-export/libs\libnuttx.a(sched-getpid.o)
 .debug_frame   0x00001c3c       0x30 c:/px4/workspace/PX4Firmware/Build/px4io-v1_default.build/nuttx-export/libs\libnuttx.a(sched-os_start.o)
 .debug_frame   0x00001c6c       0x2c c:/px4/workspace/PX4Firmware/Build/px4io-v1_default.build/nuttx-export/libs\libnuttx.a(sched-sched_garbage.o)
 .debug_frame   0x00001c98       0x20 c:/px4/workspace/PX4Firmware/Build/px4io-v1_default.build/nuttx-export/libs\libnuttx.a(sched-sched_getfiles.o)
 .debug_frame   0x00001cb8       0x28 c:/px4/workspace/PX4Firmware/Build/px4io-v1_default.build/nuttx-export/libs\libnuttx.a(sched-sem_post.o)
 .debug_frame   0x00001ce0       0x2c c:/px4/workspace/PX4Firmware/Build/px4io-v1_default.build/nuttx-export/libs\libnuttx.a(sched-sem_trywait.o)
 .debug_frame   0x00001d0c       0x30 c:/px4/workspace/PX4Firmware/Build/px4io-v1_default.build/nuttx-export/libs\libnuttx.a(sched-sem_wait.o)
 .debug_frame   0x00001d3c       0x28 c:/px4/workspace/PX4Firmware/Build/px4io-v1_default.build/nuttx-export/libs\libnuttx.a(sched-task_exithook.o)
 .debug_frame   0x00001d64       0x2c c:/px4/workspace/PX4Firmware/Build/px4io-v1_default.build/nuttx-export/libs\libnuttx.a(sched-task_recover.o)
 .debug_frame   0x00001d90       0x2c c:/px4/workspace/PX4Firmware/Build/px4io-v1_default.build/nuttx-export/libs\libnuttx.a(sched-wd_cancel.o)
 .debug_frame   0x00001dbc       0x2c c:/px4/workspace/PX4Firmware/Build/px4io-v1_default.build/nuttx-export/libs\libnuttx.a(sched-wd_delete.o)
 .debug_frame   0x00001de8       0x2c c:/px4/workspace/PX4Firmware/Build/px4io-v1_default.build/nuttx-export/libs\libnuttx.a(sched-wd_initialize.o)
 .debug_frame   0x00001e14       0x20 c:/px4/workspace/PX4Firmware/Build/px4io-v1_default.build/nuttx-export/libs\libnuttx.a(c-dq_addfirst.o)
 .debug_frame   0x00001e34       0x20 c:/px4/workspace/PX4Firmware/Build/px4io-v1_default.build/nuttx-export/libs\libnuttx.a(c-lib_cfgetspeed.o)
 .debug_frame   0x00001e54       0x2c c:/px4/workspace/PX4Firmware/Build/px4io-v1_default.build/nuttx-export/libs\libnuttx.a(c-lib_checkbase.o)
 .debug_frame   0x00001e80       0x20 c:/px4/workspace/PX4Firmware/Build/px4io-v1_default.build/nuttx-export/libs\libnuttx.a(c-lib_isbasedigit.o)
 .debug_frame   0x00001ea0      0x1a4 c:/px4/workspace/PX4Firmware/Build/px4io-v1_default.build/nuttx-export/libs\libnuttx.a(c-lib_libvsprintf.o)
 .debug_frame   0x00002044       0x38 c:/px4/workspace/PX4Firmware/Build/px4io-v1_default.build/nuttx-export/libs\libnuttx.a(c-lib_lowoutstream.o)
 .debug_frame   0x0000207c       0x30 c:/px4/workspace/PX4Firmware/Build/px4io-v1_default.build/nuttx-export/libs\libnuttx.a(c-lib_memoutstream.o)
 .debug_frame   0x000020ac       0x30 c:/px4/workspace/PX4Firmware/Build/px4io-v1_default.build/nuttx-export/libs\libnuttx.a(c-lib_nulloutstream.o)
 .debug_frame   0x000020dc       0x40 c:/px4/workspace/PX4Firmware/Build/px4io-v1_default.build/nuttx-export/libs\libnuttx.a(c-lib_rawoutstream.o)
 .debug_frame   0x0000211c       0x20 c:/px4/workspace/PX4Firmware/Build/px4io-v1_default.build/nuttx-export/libs\libnuttx.a(c-lib_skipspace.o)
 .debug_frame   0x0000213c       0x20 c:/px4/workspace/PX4Firmware/Build/px4io-v1_default.build/nuttx-export/libs\libnuttx.a(c-lib_strcpy.o)
 .debug_frame   0x0000215c       0x20 c:/px4/workspace/PX4Firmware/Build/px4io-v1_default.build/nuttx-export/libs\libnuttx.a(c-lib_strlen.o)
 .debug_frame   0x0000217c       0x28 c:/px4/workspace/PX4Firmware/Build/px4io-v1_default.build/nuttx-export/libs\libnuttx.a(c-sem_init.o)
 .debug_frame   0x000021a4       0x20 c:/px4/workspace/PX4Firmware/Build/px4io-v1_default.build/nuttx-export/libs\libnuttx.a(c-sq_remfirst.o)
 .debug_frame   0x000021c4       0x2c c:/px4/workspace/PX4Firmware/Build/px4io-v1_default.build/nuttx-export/libs\libnuttx.a(mm-mm_addfreechunk.o)
 .debug_frame   0x000021f0       0x4c c:/px4/workspace/PX4Firmware/Build/px4io-v1_default.build/nuttx-export/libs\libnuttx.a(mm-mm_initialize.o)
 .debug_frame   0x0000223c       0x20 c:/px4/workspace/PX4Firmware/Build/px4io-v1_default.build/nuttx-export/libs\libnuttx.a(arch-stm32_allocateheap.o)
 .debug_frame   0x0000225c       0x20 c:/px4/workspace/PX4Firmware/Build/px4io-v1_default.build/nuttx-export/libs\libnuttx.a(arch-stm32_idle.o)
 .debug_frame   0x0000227c       0x38 c:/px4/workspace/PX4Firmware/Build/px4io-v1_default.build/nuttx-export/libs\libnuttx.a(arch-stm32_lowputc.o)
 .debug_frame   0x000022b4       0x2c c:/px4/workspace/PX4Firmware/Build/px4io-v1_default.build/nuttx-export/libs\libnuttx.a(arch-stm32_rcc.o)
 .debug_frame   0x000022e0       0x30 c:/px4/workspace/PX4Firmware/Build/px4io-v1_default.build/nuttx-export/libs\libnuttx.a(arch-up_blocktask.o)
 .debug_frame   0x00002310       0x20 c:/px4/workspace/PX4Firmware/Build/px4io-v1_default.build/nuttx-export/libs\libnuttx.a(arch-up_copystate.o)
 .debug_frame   0x00002330       0x28 c:/px4/workspace/PX4Firmware/Build/px4io-v1_default.build/nuttx-export/libs\libnuttx.a(arch-up_exit.o)
 .debug_frame   0x00002358       0x28 c:/px4/workspace/PX4Firmware/Build/px4io-v1_default.build/nuttx-export/libs\libnuttx.a(arch-up_initialize.o)
 .debug_frame   0x00002380       0x28 c:/px4/workspace/PX4Firmware/Build/px4io-v1_default.build/nuttx-export/libs\libnuttx.a(arch-up_initialstate.o)
 .debug_frame   0x000023a8       0x20 c:/px4/workspace/PX4Firmware/Build/px4io-v1_default.build/nuttx-export/libs\libnuttx.a(arch-up_interruptcontext.o)
 .debug_frame   0x000023c8       0x24 c:/px4/workspace/PX4Firmware/Build/px4io-v1_default.build/nuttx-export/libs\libnuttx.a(arch-up_mdelay.o)
 .debug_frame   0x000023ec       0x2c c:/px4/workspace/PX4Firmware/Build/px4io-v1_default.build/nuttx-export/libs\libnuttx.a(arch-up_unblocktask.o)
 .debug_frame   0x00002418       0xf8 c:/px4/workspace/PX4Firmware/Build/px4io-v1_default.build/nuttx-export/libs\libnuttx.a(fs-fs_files.o)
 .debug_frame   0x00002510       0x28 c:/px4/workspace/PX4Firmware/Build/px4io-v1_default.build/nuttx-export/libs\libnuttx.a(fs-fs_inodeaddref.o)
 .debug_frame   0x00002538       0x2c c:/px4/workspace/PX4Firmware/Build/px4io-v1_default.build/nuttx-export/libs\libnuttx.a(fs-fs_inodefind.o)
 .debug_frame   0x00002564       0x28 c:/px4/workspace/PX4Firmware/Build/px4io-v1_default.build/nuttx-export/libs\libnuttx.a(fs-fs_inoderelease.o)
 .debug_frame   0x0000258c       0x30 c:/px4/workspace/PX4Firmware/Build/px4io-v1_default.build/nuttx-export/libs\libnuttx.a(fs-fs_registerdriver.o)
 .debug_frame   0x000025bc       0x2c c:/px4/workspace/PX4Firmware/Build/px4io-v1_default.build/nuttx-export/libs\libnuttx.a(fs-fs_write.o)
 .debug_frame   0x000025e8       0x38 c:/px4/workspace/PX4Firmware/Build/px4io-v1_default.build/nuttx-export/libs\libnuttx.a(sched-group_create.o)
 .debug_frame   0x00002620       0x2c c:/px4/workspace/PX4Firmware/Build/px4io-v1_default.build/nuttx-export/libs\libnuttx.a(sched-group_leave.o)
 .debug_frame   0x0000264c       0x28 c:/px4/workspace/PX4Firmware/Build/px4io-v1_default.build/nuttx-export/libs\libnuttx.a(sched-group_setupidlefiles.o)
 .debug_frame   0x00002674       0x2c c:/px4/workspace/PX4Firmware/Build/px4io-v1_default.build/nuttx-export/libs\libnuttx.a(sched-os_bringup.o)
 .debug_frame   0x000026a0       0x2c c:/px4/workspace/PX4Firmware/Build/px4io-v1_default.build/nuttx-export/libs\libnuttx.a(sched-sched_addblocked.o)
 .debug_frame   0x000026cc       0x28 c:/px4/workspace/PX4Firmware/Build/px4io-v1_default.build/nuttx-export/libs\libnuttx.a(sched-sched_addprioritized.o)
 .debug_frame   0x000026f4       0x2c c:/px4/workspace/PX4Firmware/Build/px4io-v1_default.build/nuttx-export/libs\libnuttx.a(sched-sched_addreadytorun.o)
 .debug_frame   0x00002720       0x2c c:/px4/workspace/PX4Firmware/Build/px4io-v1_default.build/nuttx-export/libs\libnuttx.a(sched-sched_free.o)
 .debug_frame   0x0000274c       0x30 c:/px4/workspace/PX4Firmware/Build/px4io-v1_default.build/nuttx-export/libs\libnuttx.a(sched-sched_mergepending.o)
 .debug_frame   0x0000277c       0x28 c:/px4/workspace/PX4Firmware/Build/px4io-v1_default.build/nuttx-export/libs\libnuttx.a(sched-sched_removeblocked.o)
 .debug_frame   0x000027a4       0x2c c:/px4/workspace/PX4Firmware/Build/px4io-v1_default.build/nuttx-export/libs\libnuttx.a(sched-sched_removereadytorun.o)
 .debug_frame   0x000027d0       0x28 c:/px4/workspace/PX4Firmware/Build/px4io-v1_default.build/nuttx-export/libs\libnuttx.a(sched-sem_destroy.o)
 .debug_frame   0x000027f8       0x74 c:/px4/workspace/PX4Firmware/Build/px4io-v1_default.build/nuttx-export/libs\libnuttx.a(sched-task_create.o)
 .debug_frame   0x0000286c       0x2c c:/px4/workspace/PX4Firmware/Build/px4io-v1_default.build/nuttx-export/libs\libnuttx.a(sched-task_exit.o)
 .debug_frame   0x00002898       0x54 c:/px4/workspace/PX4Firmware/Build/px4io-v1_default.build/nuttx-export/libs\libnuttx.a(sched-task_setup.o)
 .debug_frame   0x000028ec       0x28 c:/px4/workspace/PX4Firmware/Build/px4io-v1_default.build/nuttx-export/libs\libnuttx.a(sched-task_start.o)
 .debug_frame   0x00002914       0x2c c:/px4/workspace/PX4Firmware/Build/px4io-v1_default.build/nuttx-export/libs\libnuttx.a(sched-task_terminate.o)
 .debug_frame   0x00002940       0x20 c:/px4/workspace/PX4Firmware/Build/px4io-v1_default.build/nuttx-export/libs\libnuttx.a(c-dq_addlast.o)
 .debug_frame   0x00002960       0x20 c:/px4/workspace/PX4Firmware/Build/px4io-v1_default.build/nuttx-export/libs\libnuttx.a(c-dq_rem.o)
 .debug_frame   0x00002980       0x2c c:/px4/workspace/PX4Firmware/Build/px4io-v1_default.build/nuttx-export/libs\libnuttx.a(c-lib_strdup.o)
 .debug_frame   0x000029ac       0x40 c:/px4/workspace/PX4Firmware/Build/px4io-v1_default.build/nuttx-export/libs\libnuttx.a(arch-stm32_timerisr.o)
 .debug_frame   0x000029ec       0x2c c:/px4/workspace/PX4Firmware/Build/px4io-v1_default.build/nuttx-export/libs\libnuttx.a(arch-up_createstack.o)
 .debug_frame   0x00002a18       0x30 c:/px4/workspace/PX4Firmware/Build/px4io-v1_default.build/nuttx-export/libs\libnuttx.a(arch-up_doirq.o)
 .debug_frame   0x00002a48       0x28 c:/px4/workspace/PX4Firmware/Build/px4io-v1_default.build/nuttx-export/libs\libnuttx.a(arch-up_releasestack.o)
 .debug_frame   0x00002a70       0x28 c:/px4/workspace/PX4Firmware/Build/px4io-v1_default.build/nuttx-export/libs\libnuttx.a(fs-fs_close.o)
 .debug_frame   0x00002a98       0x2c c:/px4/workspace/PX4Firmware/Build/px4io-v1_default.build/nuttx-export/libs\libnuttx.a(fs-fs_filedup2.o)
 .debug_frame   0x00002ac4       0x9c c:/px4/workspace/PX4Firmware/Build/px4io-v1_default.build/nuttx-export/libs\libnuttx.a(fs-fs_inode.o)
 .debug_frame   0x00002b60       0x48 c:/px4/workspace/PX4Firmware/Build/px4io-v1_default.build/nuttx-export/libs\libnuttx.a(fs-fs_inodereserve.o)
 .debug_frame   0x00002ba8       0x28 c:/px4/workspace/PX4Firmware/Build/px4io-v1_default.build/nuttx-export/libs\libnuttx.a(sched-group_setuptaskfiles.o)
 .debug_frame   0x00002bd0       0x28 c:/px4/workspace/PX4Firmware/Build/px4io-v1_default.build/nuttx-export/libs\libnuttx.a(sched-irq_dispatch.o)
 .debug_frame   0x00002bf8       0x20 c:/px4/workspace/PX4Firmware/Build/px4io-v1_default.build/nuttx-export/libs\libnuttx.a(sched-sched_gettcb.o)
 .debug_frame   0x00002c18       0x28 c:/px4/workspace/PX4Firmware/Build/px4io-v1_default.build/nuttx-export/libs\libnuttx.a(sched-sched_lock.o)
 .debug_frame   0x00002c40       0x28 c:/px4/workspace/PX4Firmware/Build/px4io-v1_default.build/nuttx-export/libs\libnuttx.a(sched-sched_processtimer.o)
 .debug_frame   0x00002c68       0x2c c:/px4/workspace/PX4Firmware/Build/px4io-v1_default.build/nuttx-export/libs\libnuttx.a(sched-sched_releasetcb.o)
 .debug_frame   0x00002c94       0x2c c:/px4/workspace/PX4Firmware/Build/px4io-v1_default.build/nuttx-export/libs\libnuttx.a(sched-sched_unlock.o)
 .debug_frame   0x00002cc0       0x28 c:/px4/workspace/PX4Firmware/Build/px4io-v1_default.build/nuttx-export/libs\libnuttx.a(sched-task_activate.o)
 .debug_frame   0x00002ce8       0x2c c:/px4/workspace/PX4Firmware/Build/px4io-v1_default.build/nuttx-export/libs\libnuttx.a(arch-up_releasepending.o)
 .debug_frame   0x00002d14       0x50 c:/px4/toolchain/bin/../lib/gcc/arm-none-eabi/4.6.2/armv7-m/libgcc.a(bpabi.o)
 .debug_frame   0x00002d64       0x34 c:/px4/toolchain/bin/../lib/gcc/arm-none-eabi/4.6.2/armv7-m/libgcc.a(_divdi3.o)
 .debug_frame   0x00002d98       0x34 c:/px4/toolchain/bin/../lib/gcc/arm-none-eabi/4.6.2/armv7-m/libgcc.a(_udivdi3.o)

.debug_str      0x00000000     0x465b
 .debug_str     0x00000000      0x27a c:/px4/workspace/PX4Firmware/Build/px4io-v1_default.build/c/px4/workspace/PX4Firmware/src/drivers/boards/px4io-v1/module.pre.o
                                0x3be (size before relaxing)
 .debug_str     0x0000027a      0x542 c:/px4/workspace/PX4Firmware/Build/px4io-v1_default.build/c/px4/workspace/PX4Firmware/src/drivers/stm32/module.pre.o
                                0x926 (size before relaxing)
 .debug_str     0x000007bc     0x188c c:/px4/workspace/PX4Firmware/Build/px4io-v1_default.build/c/px4/workspace/PX4Firmware/src/modules/px4iofirmware/module.pre.o
                               0x4194 (size before relaxing)
 .debug_str     0x00002048       0x51 c:/px4/workspace/PX4Firmware/Build/px4io-v1_default.build/nuttx-export/libs\libnuttx.a(sched-irq_attach.o)
                                0x162 (size before relaxing)
 .debug_str     0x00002099       0x20 c:/px4/workspace/PX4Firmware/Build/px4io-v1_default.build/nuttx-export/libs\libnuttx.a(sched-irq_initialize.o)
                                0x138 (size before relaxing)
 .debug_str     0x000020b9       0x27 c:/px4/workspace/PX4Firmware/Build/px4io-v1_default.build/nuttx-export/libs\libnuttx.a(sched-irq_unexpectedisr.o)
                                0x160 (size before relaxing)
 .debug_str     0x000020e0       0x3e c:/px4/workspace/PX4Firmware/Build/px4io-v1_default.build/nuttx-export/libs\libnuttx.a(c-lib_abort.o)
                                0x10b (size before relaxing)
 .debug_str     0x0000211e       0x2d c:/px4/workspace/PX4Firmware/Build/px4io-v1_default.build/nuttx-export/libs\libnuttx.a(c-lib_cfsetspeed.o)
                                0x18d (size before relaxing)
 .debug_str     0x0000214b       0x34 c:/px4/workspace/PX4Firmware/Build/px4io-v1_default.build/nuttx-export/libs\libnuttx.a(c-lib_crc32.o)
                                0x148 (size before relaxing)
 .debug_str     0x0000217f       0x46 c:/px4/workspace/PX4Firmware/Build/px4io-v1_default.build/nuttx-export/libs\libnuttx.a(c-lib_lowsyslog.o)
                                0x17c (size before relaxing)
 .debug_str     0x000021c5       0x1b c:/px4/workspace/PX4Firmware/Build/px4io-v1_default.build/nuttx-export/libs\libnuttx.a(c-lib_memchr.o)
                                0x11e (size before relaxing)
 .debug_str     0x000021e0       0x25 c:/px4/workspace/PX4Firmware/Build/px4io-v1_default.build/nuttx-export/libs\libnuttx.a(c-lib_memcpy.o)
                                0x128 (size before relaxing)
 .debug_str     0x00002205       0x1b c:/px4/workspace/PX4Firmware/Build/px4io-v1_default.build/nuttx-export/libs\libnuttx.a(c-lib_memset.o)
                                0x11e (size before relaxing)
 .debug_str     0x00002220       0x13 c:/px4/workspace/PX4Firmware/Build/px4io-v1_default.build/nuttx-export/libs\libnuttx.a(c-lib_printf.o)
                                0x14c (size before relaxing)
 .debug_str     0x00002233       0x86 c:/px4/workspace/PX4Firmware/Build/px4io-v1_default.build/nuttx-export/libs\libnuttx.a(c-lib_sscanf.o)
                                0x1f9 (size before relaxing)
 .debug_str     0x000022b9       0x1b c:/px4/workspace/PX4Firmware/Build/px4io-v1_default.build/nuttx-export/libs\libnuttx.a(c-lib_strchr.o)
                                0x104 (size before relaxing)
 .debug_str     0x000022d4       0x1b c:/px4/workspace/PX4Firmware/Build/px4io-v1_default.build/nuttx-export/libs\libnuttx.a(c-lib_strcmp.o)
                                0x10b (size before relaxing)
 .debug_str     0x000022ef       0x24 c:/px4/workspace/PX4Firmware/Build/px4io-v1_default.build/nuttx-export/libs\libnuttx.a(c-lib_strcspn.o)
                                0x127 (size before relaxing)
 .debug_str     0x00002313       0x1d c:/px4/workspace/PX4Firmware/Build/px4io-v1_default.build/nuttx-export/libs\libnuttx.a(c-lib_strncpy.o)
                                0x125 (size before relaxing)
 .debug_str     0x00002330       0x34 c:/px4/workspace/PX4Firmware/Build/px4io-v1_default.build/nuttx-export/libs\libnuttx.a(c-lib_strtol.o)
                                0x155 (size before relaxing)
 .debug_str     0x00002364       0x1d c:/px4/workspace/PX4Firmware/Build/px4io-v1_default.build/nuttx-export/libs\libnuttx.a(c-lib_strtoul.o)
                                0x13e (size before relaxing)
 .debug_str     0x00002381       0x2d c:/px4/workspace/PX4Firmware/Build/px4io-v1_default.build/nuttx-export/libs\libnuttx.a(c-lib_syslog.o)
                                0x193 (size before relaxing)
 .debug_str     0x000023ae       0x22 c:/px4/workspace/PX4Firmware/Build/px4io-v1_default.build/nuttx-export/libs\libnuttx.a(c-lib_tcgetattr.o)
                                0x185 (size before relaxing)
 .debug_str     0x000023d0       0x2a c:/px4/workspace/PX4Firmware/Build/px4io-v1_default.build/nuttx-export/libs\libnuttx.a(c-lib_tcsetattr.o)
                                0x18d (size before relaxing)
 .debug_str     0x000023fa       0x33 c:/px4/workspace/PX4Firmware/Build/px4io-v1_default.build/nuttx-export/libs\libnuttx.a(c-lib_vsnprintf.o)
                                0x1c5 (size before relaxing)
 .debug_str     0x0000242d       0x20 c:/px4/workspace/PX4Firmware/Build/px4io-v1_default.build/nuttx-export/libs\libnuttx.a(c-sq_addafter.o)
                                0x155 (size before relaxing)
 .debug_str     0x0000244d       0x20 c:/px4/workspace/PX4Firmware/Build/px4io-v1_default.build/nuttx-export/libs\libnuttx.a(c-sq_addfirst.o)
                                0x150 (size before relaxing)
 .debug_str     0x0000246d       0x1e c:/px4/workspace/PX4Firmware/Build/px4io-v1_default.build/nuttx-export/libs\libnuttx.a(c-sq_addlast.o)
                                0x14e (size before relaxing)
 .debug_str     0x0000248b       0x16 c:/px4/workspace/PX4Firmware/Build/px4io-v1_default.build/nuttx-export/libs\libnuttx.a(c-sq_rem.o)
                                0x14b (size before relaxing)
 .debug_str     0x000024a1       0x20 c:/px4/workspace/PX4Firmware/Build/px4io-v1_default.build/nuttx-export/libs\libnuttx.a(c-sq_remafter.o)
                                0x150 (size before relaxing)
 .debug_str     0x000024c1       0x40 c:/px4/workspace/PX4Firmware/Build/px4io-v1_default.build/nuttx-export/libs\libnuttx.a(mm-mm_calloc.o)
                                0x11e (size before relaxing)
 .debug_str     0x00002501       0xd0 c:/px4/workspace/PX4Firmware/Build/px4io-v1_default.build/nuttx-export/libs\libnuttx.a(mm-mm_free.o)
                                0x21f (size before relaxing)
 .debug_str     0x000025d1       0x1a c:/px4/workspace/PX4Firmware/Build/px4io-v1_default.build/nuttx-export/libs\libnuttx.a(mm-mm_mallinfo.o)
                                0x245 (size before relaxing)
 .debug_str     0x000025eb       0x2a c:/px4/workspace/PX4Firmware/Build/px4io-v1_default.build/nuttx-export/libs\libnuttx.a(mm-mm_malloc.o)
                                0x22a (size before relaxing)
 .debug_str     0x00002615       0x32 c:/px4/workspace/PX4Firmware/Build/px4io-v1_default.build/nuttx-export/libs\libnuttx.a(mm-mm_sem.o)
                                0x24a (size before relaxing)
 .debug_str     0x00002647       0x1a c:/px4/workspace/PX4Firmware/Build/px4io-v1_default.build/nuttx-export/libs\libnuttx.a(mm-mm_size2ndx.o)
                                0x120 (size before relaxing)
 .debug_str     0x00002661       0x5f c:/px4/workspace/PX4Firmware/Build/px4io-v1_default.build/nuttx-export/libs\libnuttx.a(mm-mm_user.o)
                                0x249 (size before relaxing)
 .debug_str     0x000026c0       0x13 c:/px4/workspace/PX4Firmware/Build/px4io-v1_default.build/nuttx-export/libs\libnuttx.a(mm-mm_zalloc.o)
                                0x11f (size before relaxing)
 .debug_str     0x000026d3      0x212 c:/px4/workspace/PX4Firmware/Build/px4io-v1_default.build/nuttx-export/libs\libnuttx.a(arch-stm32_dma.o)
                                0x37e (size before relaxing)
 .debug_str     0x000028e5       0xa2 c:/px4/workspace/PX4Firmware/Build/px4io-v1_default.build/nuttx-export/libs\libnuttx.a(arch-stm32_gpio.o)
                                0x20f (size before relaxing)
 .debug_str     0x00002987       0xa7 c:/px4/workspace/PX4Firmware/Build/px4io-v1_default.build/nuttx-export/libs\libnuttx.a(arch-stm32_irq.o)
                                0x27d (size before relaxing)
 .debug_str     0x00002a2e      0x53d c:/px4/workspace/PX4Firmware/Build/px4io-v1_default.build/nuttx-export/libs\libnuttx.a(arch-stm32_serial.o)
                                0x8da (size before relaxing)
 .debug_str     0x00002f6b       0x3d c:/px4/workspace/PX4Firmware/Build/px4io-v1_default.build/nuttx-export/libs\libnuttx.a(arch-stm32_start.o)
                                0x158 (size before relaxing)
 .debug_str     0x00002fa8      0x1e5 c:/px4/workspace/PX4Firmware/Build/px4io-v1_default.build/nuttx-export/libs\libnuttx.a(arch-up_assert.o)
                                0x5a5 (size before relaxing)
 .debug_str     0x0000318d       0x29 c:/px4/workspace/PX4Firmware/Build/px4io-v1_default.build/nuttx-export/libs\libnuttx.a(arch-up_hardfault.o)
                                0x1b7 (size before relaxing)
 .debug_str     0x000031b6       0x36 c:/px4/workspace/PX4Firmware/Build/px4io-v1_default.build/nuttx-export/libs\libnuttx.a(arch-up_modifyreg32.o)
                                0x18d (size before relaxing)
 .debug_str     0x000031ec       0x1e c:/px4/workspace/PX4Firmware/Build/px4io-v1_default.build/nuttx-export/libs\libnuttx.a(arch-up_svcall.o)
                                0x157 (size before relaxing)
 .debug_str     0x0000320a       0x28 c:/px4/workspace/PX4Firmware/Build/px4io-v1_default.build/nuttx-export/libs\libnuttx.a(arch-up_systemreset.o)
                                0x121 (size before relaxing)
 .debug_str     0x00003232       0x2b c:/px4/workspace/PX4Firmware/Build/px4io-v1_default.build/nuttx-export/libs\libnuttx.a(arch-up_udelay.o)
                                0x154 (size before relaxing)
 .debug_str     0x0000325d       0x1e c:/px4/workspace/PX4Firmware/Build/px4io-v1_default.build/nuttx-export/libs\libnuttx.a(arch-up_vectors.o)
                                 0xac (size before relaxing)
 .debug_str     0x0000327b       0x94 c:/px4/workspace/PX4Firmware/Build/px4io-v1_default.build/nuttx-export/libs\libnuttx.a(cxx-libxx_cxa_atexit.o)
                                0x204 (size before relaxing)
 .debug_str     0x0000330f       0x2c c:/px4/workspace/PX4Firmware/Build/px4io-v1_default.build/nuttx-export/libs\libnuttx.a(cxx-libxx_cxapurevirtual.o)
                                0x106 (size before relaxing)
 .debug_str     0x0000333b       0x28 c:/px4/workspace/PX4Firmware/Build/px4io-v1_default.build/nuttx-export/libs\libnuttx.a(cxx-libxx_delete.o)
                                0x1dc (size before relaxing)
 .debug_str     0x00003363       0x2c c:/px4/workspace/PX4Firmware/Build/px4io-v1_default.build/nuttx-export/libs\libnuttx.a(cxx-libxx_eabi_atexit.o)
                                0x201 (size before relaxing)
 .debug_str     0x0000338f       0x7a c:/px4/workspace/PX4Firmware/Build/px4io-v1_default.build/nuttx-export/libs\libnuttx.a(cxx-libxx_new.o)
                                0x28a (size before relaxing)
 .debug_str     0x00003409       0x3f c:/px4/workspace/PX4Firmware/Build/px4io-v1_default.build/nuttx-export/libs\libnuttx.a(fs-fs_ioctl.o)
                                0x356 (size before relaxing)
 .debug_str     0x00003448       0x44 c:/px4/workspace/PX4Firmware/Build/px4io-v1_default.build/nuttx-export/libs\libnuttx.a(fs-fs_open.o)
                                0x391 (size before relaxing)
 .debug_str     0x0000348c       0x14 c:/px4/workspace/PX4Firmware/Build/px4io-v1_default.build/nuttx-export/libs\libnuttx.a(fs-fs_read.o)
                                0x35f (size before relaxing)
 .debug_str     0x000034a0      0x10d c:/px4/workspace/PX4Firmware/Build/px4io-v1_default.build/nuttx-export/libs\libnuttx.a(drivers-serial.o)
                                0x5a7 (size before relaxing)
 .debug_str     0x000035ad       0x31 c:/px4/workspace/PX4Firmware/Build/px4io-v1_default.build/nuttx-export/libs\libnuttx.a(drivers-serialirq.o)
                                0x470 (size before relaxing)
 .debug_str     0x000035de       0x28 c:/px4/workspace/PX4Firmware/Build/px4io-v1_default.build/nuttx-export/libs\libnuttx.a(sched-errno_getptr.o)
                                0x56f (size before relaxing)
 .debug_str     0x00000000       0x28 c:/px4/workspace/PX4Firmware/Build/px4io-v1_default.build/nuttx-export/libs\libnuttx.a(sched-exit.o)
                                0x4c4 (size before relaxing)
 .debug_str     0x00003606       0x10 c:/px4/workspace/PX4Firmware/Build/px4io-v1_default.build/nuttx-export/libs\libnuttx.a(sched-getpid.o)
                                0x4c1 (size before relaxing)
 .debug_str     0x00003616       0xec c:/px4/workspace/PX4Firmware/Build/px4io-v1_default.build/nuttx-export/libs\libnuttx.a(sched-os_start.o)
                                0x694 (size before relaxing)
 .debug_str     0x00003702       0x40 c:/px4/workspace/PX4Firmware/Build/px4io-v1_default.build/nuttx-export/libs\libnuttx.a(sched-sched_garbage.o)
                                0x1be (size before relaxing)
 .debug_str     0x00003742       0x20 c:/px4/workspace/PX4Firmware/Build/px4io-v1_default.build/nuttx-export/libs\libnuttx.a(sched-sched_getfiles.o)
                                0x4d6 (size before relaxing)
 .debug_str     0x00003762       0x25 c:/px4/workspace/PX4Firmware/Build/px4io-v1_default.build/nuttx-export/libs\libnuttx.a(sched-sem_post.o)
                                0x505 (size before relaxing)
 .debug_str     0x00003787       0x1a c:/px4/workspace/PX4Firmware/Build/px4io-v1_default.build/nuttx-export/libs\libnuttx.a(sched-sem_trywait.o)
                                0x502 (size before relaxing)
 .debug_str     0x000037a1       0x14 c:/px4/workspace/PX4Firmware/Build/px4io-v1_default.build/nuttx-export/libs\libnuttx.a(sched-sem_wait.o)
                                0x58d (size before relaxing)
 .debug_str     0x000037b5       0x2a c:/px4/workspace/PX4Firmware/Build/px4io-v1_default.build/nuttx-export/libs\libnuttx.a(sched-task_exithook.o)
                                0x49f (size before relaxing)
 .debug_str     0x000037df       0x1c c:/px4/workspace/PX4Firmware/Build/px4io-v1_default.build/nuttx-export/libs\libnuttx.a(sched-task_recover.o)
                                0x4b0 (size before relaxing)
 .debug_str     0x000037fb       0x3e c:/px4/workspace/PX4Firmware/Build/px4io-v1_default.build/nuttx-export/libs\libnuttx.a(sched-wd_cancel.o)
                                0x213 (size before relaxing)
 .debug_str     0x00003839       0x28 c:/px4/workspace/PX4Firmware/Build/px4io-v1_default.build/nuttx-export/libs\libnuttx.a(sched-wd_delete.o)
                                0x200 (size before relaxing)
 .debug_str     0x00003861       0x2c c:/px4/workspace/PX4Firmware/Build/px4io-v1_default.build/nuttx-export/libs\libnuttx.a(sched-wd_initialize.o)
                                0x278 (size before relaxing)
 .debug_str     0x0000388d       0x20 c:/px4/workspace/PX4Firmware/Build/px4io-v1_default.build/nuttx-export/libs\libnuttx.a(c-dq_addfirst.o)
                                0x156 (size before relaxing)
 .debug_str     0x000038ad       0x24 c:/px4/workspace/PX4Firmware/Build/px4io-v1_default.build/nuttx-export/libs\libnuttx.a(c-lib_cfgetspeed.o)
                                0x187 (size before relaxing)
 .debug_str     0x000038d1       0x2a c:/px4/workspace/PX4Firmware/Build/px4io-v1_default.build/nuttx-export/libs\libnuttx.a(c-lib_checkbase.o)
                                0x133 (size before relaxing)
 .debug_str     0x000038fb       0x29 c:/px4/workspace/PX4Firmware/Build/px4io-v1_default.build/nuttx-export/libs\libnuttx.a(c-lib_isbasedigit.o)
                                0x150 (size before relaxing)
 .debug_str     0x00003924       0xff c:/px4/workspace/PX4Firmware/Build/px4io-v1_default.build/nuttx-export/libs\libnuttx.a(c-lib_libvsprintf.o)
                                0x2c2 (size before relaxing)
 .debug_str     0x00003a23       0x3c c:/px4/workspace/PX4Firmware/Build/px4io-v1_default.build/nuttx-export/libs\libnuttx.a(c-lib_lowoutstream.o)
                                0x16c (size before relaxing)
 .debug_str     0x00003a5f       0x42 c:/px4/workspace/PX4Firmware/Build/px4io-v1_default.build/nuttx-export/libs\libnuttx.a(c-lib_memoutstream.o)
                                0x1a9 (size before relaxing)
 .debug_str     0x00003aa1       0x3f c:/px4/workspace/PX4Firmware/Build/px4io-v1_default.build/nuttx-export/libs\libnuttx.a(c-lib_nulloutstream.o)
                                0x176 (size before relaxing)
 .debug_str     0x00003ae0       0x4b c:/px4/workspace/PX4Firmware/Build/px4io-v1_default.build/nuttx-export/libs\libnuttx.a(c-lib_rawoutstream.o)
                                0x1a2 (size before relaxing)
 .debug_str     0x00003b2b       0x25 c:/px4/workspace/PX4Firmware/Build/px4io-v1_default.build/nuttx-export/libs\libnuttx.a(c-lib_skipspace.o)
                                0x12e (size before relaxing)
 .debug_str     0x00003b50       0x1b c:/px4/workspace/PX4Firmware/Build/px4io-v1_default.build/nuttx-export/libs\libnuttx.a(c-lib_strcpy.o)
                                0x109 (size before relaxing)
 .debug_str     0x00003b6b       0x1b c:/px4/workspace/PX4Firmware/Build/px4io-v1_default.build/nuttx-export/libs\libnuttx.a(c-lib_strlen.o)
                                0x11e (size before relaxing)
 .debug_str     0x00003b86       0x26 c:/px4/workspace/PX4Firmware/Build/px4io-v1_default.build/nuttx-export/libs\libnuttx.a(c-sem_init.o)
                                0x13b (size before relaxing)
 .debug_str     0x00003bac       0x20 c:/px4/workspace/PX4Firmware/Build/px4io-v1_default.build/nuttx-export/libs\libnuttx.a(c-sq_remfirst.o)
                                0x14b (size before relaxing)
 .debug_str     0x00003bcc       0x22 c:/px4/workspace/PX4Firmware/Build/px4io-v1_default.build/nuttx-export/libs\libnuttx.a(mm-mm_addfreechunk.o)
                                0x217 (size before relaxing)
 .debug_str     0x00003bee       0x19 c:/px4/workspace/PX4Firmware/Build/px4io-v1_default.build/nuttx-export/libs\libnuttx.a(mm-mm_initialize.o)
                                0x24f (size before relaxing)
 .debug_str     0x00003c07       0x2b c:/px4/workspace/PX4Firmware/Build/px4io-v1_default.build/nuttx-export/libs\libnuttx.a(arch-stm32_allocateheap.o)
                                0x176 (size before relaxing)
 .debug_str     0x00003c32       0x1a c:/px4/workspace/PX4Firmware/Build/px4io-v1_default.build/nuttx-export/libs\libnuttx.a(arch-stm32_idle.o)
                                0x126 (size before relaxing)
 .debug_str     0x00003c4c       0x34 c:/px4/workspace/PX4Firmware/Build/px4io-v1_default.build/nuttx-export/libs\libnuttx.a(arch-stm32_lowputc.o)
                                0x14a (size before relaxing)
 .debug_str     0x00003c80       0x8c c:/px4/workspace/PX4Firmware/Build/px4io-v1_default.build/nuttx-export/libs\libnuttx.a(arch-stm32_rcc.o)
                                0x1c3 (size before relaxing)
 .debug_str     0x00003d0c       0x44 c:/px4/workspace/PX4Firmware/Build/px4io-v1_default.build/nuttx-export/libs\libnuttx.a(arch-up_blocktask.o)
                                0x5ae (size before relaxing)
 .debug_str     0x00003d50       0x24 c:/px4/workspace/PX4Firmware/Build/px4io-v1_default.build/nuttx-export/libs\libnuttx.a(arch-up_copystate.o)
                                0x148 (size before relaxing)
 .debug_str     0x00003d74       0x11 c:/px4/workspace/PX4Firmware/Build/px4io-v1_default.build/nuttx-export/libs\libnuttx.a(arch-up_exit.o)
                                0x4f1 (size before relaxing)
 .debug_str     0x00003d85       0x17 c:/px4/workspace/PX4Firmware/Build/px4io-v1_default.build/nuttx-export/libs\libnuttx.a(arch-up_initialize.o)
                                0x151 (size before relaxing)
 .debug_str     0x00003d9c       0x2b c:/px4/workspace/PX4Firmware/Build/px4io-v1_default.build/nuttx-export/libs\libnuttx.a(arch-up_initialstate.o)
                                0x4a0 (size before relaxing)
 .debug_str     0x00003dc7       0x32 c:/px4/workspace/PX4Firmware/Build/px4io-v1_default.build/nuttx-export/libs\libnuttx.a(arch-up_interruptcontext.o)
                                0x176 (size before relaxing)
 .debug_str     0x00003df9       0x2a c:/px4/workspace/PX4Firmware/Build/px4io-v1_default.build/nuttx-export/libs\libnuttx.a(arch-up_mdelay.o)
                                0x136 (size before relaxing)
 .debug_str     0x00003e23       0x29 c:/px4/workspace/PX4Firmware/Build/px4io-v1_default.build/nuttx-export/libs\libnuttx.a(arch-up_unblocktask.o)
                                0x58c (size before relaxing)
 .debug_str     0x00003e4c       0xac c:/px4/workspace/PX4Firmware/Build/px4io-v1_default.build/nuttx-export/libs\libnuttx.a(fs-fs_files.o)
                                0x418 (size before relaxing)
 .debug_str     0x00003ef8       0x1e c:/px4/workspace/PX4Firmware/Build/px4io-v1_default.build/nuttx-export/libs\libnuttx.a(fs-fs_inodeaddref.o)
                                0x31c (size before relaxing)
 .debug_str     0x00003f16       0x1a c:/px4/workspace/PX4Firmware/Build/px4io-v1_default.build/nuttx-export/libs\libnuttx.a(fs-fs_inodefind.o)
                                0x32a (size before relaxing)
 .debug_str     0x00003f30       0x20 c:/px4/workspace/PX4Firmware/Build/px4io-v1_default.build/nuttx-export/libs\libnuttx.a(fs-fs_inoderelease.o)
                                0x32c (size before relaxing)
 .debug_str     0x00003f50       0x2e c:/px4/workspace/PX4Firmware/Build/px4io-v1_default.build/nuttx-export/libs\libnuttx.a(fs-fs_registerdriver.o)
                                0x33b (size before relaxing)
 .debug_str     0x00003f7e       0x16 c:/px4/workspace/PX4Firmware/Build/px4io-v1_default.build/nuttx-export/libs\libnuttx.a(fs-fs_write.o)
                                0x368 (size before relaxing)
 .debug_str     0x00003f94       0x2f c:/px4/workspace/PX4Firmware/Build/px4io-v1_default.build/nuttx-export/libs\libnuttx.a(sched-group_create.o)
                                0x4bb (size before relaxing)
 .debug_str     0x00003fc3       0x28 c:/px4/workspace/PX4Firmware/Build/px4io-v1_default.build/nuttx-export/libs\libnuttx.a(sched-group_leave.o)
                                0x496 (size before relaxing)
 .debug_str     0x00003feb       0x2c c:/px4/workspace/PX4Firmware/Build/px4io-v1_default.build/nuttx-export/libs\libnuttx.a(sched-group_setupidlefiles.o)
                                0x4b8 (size before relaxing)
 .debug_str     0x00004017       0x1f c:/px4/workspace/PX4Firmware/Build/px4io-v1_default.build/nuttx-export/libs\libnuttx.a(sched-os_bringup.o)
                                0x13c (size before relaxing)
 .debug_str     0x00004036       0x29 c:/px4/workspace/PX4Firmware/Build/px4io-v1_default.build/nuttx-export/libs\libnuttx.a(sched-sched_addblocked.o)
                                0x59e (size before relaxing)
 .debug_str     0x0000405f       0x2c c:/px4/workspace/PX4Firmware/Build/px4io-v1_default.build/nuttx-export/libs\libnuttx.a(sched-sched_addprioritized.o)
                                0x4df (size before relaxing)
 .debug_str     0x0000408b       0x2a c:/px4/workspace/PX4Firmware/Build/px4io-v1_default.build/nuttx-export/libs\libnuttx.a(sched-sched_addreadytorun.o)
                                0x585 (size before relaxing)
 .debug_str     0x000040b5       0x19 c:/px4/workspace/PX4Firmware/Build/px4io-v1_default.build/nuttx-export/libs\libnuttx.a(sched-sched_free.o)
                                0x19f (size before relaxing)
 .debug_str     0x000040ce       0x46 c:/px4/workspace/PX4Firmware/Build/px4io-v1_default.build/nuttx-export/libs\libnuttx.a(sched-sched_mergepending.o)
                                0x597 (size before relaxing)
 .debug_str     0x00004114       0x2a c:/px4/workspace/PX4Firmware/Build/px4io-v1_default.build/nuttx-export/libs\libnuttx.a(sched-sched_removeblocked.o)
                                0x5a4 (size before relaxing)
 .debug_str     0x0000413e       0x30 c:/px4/workspace/PX4Firmware/Build/px4io-v1_default.build/nuttx-export/libs\libnuttx.a(sched-sched_removereadytorun.o)
                                0x577 (size before relaxing)
 .debug_str     0x0000416e       0x1a c:/px4/workspace/PX4Firmware/Build/px4io-v1_default.build/nuttx-export/libs\libnuttx.a(sched-sem_destroy.o)
                                0x145 (size before relaxing)
 .debug_str     0x00004188       0x54 c:/px4/workspace/PX4Firmware/Build/px4io-v1_default.build/nuttx-export/libs\libnuttx.a(sched-task_create.o)
                                0x541 (size before relaxing)
 .debug_str     0x000041dc       0x16 c:/px4/workspace/PX4Firmware/Build/px4io-v1_default.build/nuttx-export/libs\libnuttx.a(sched-task_exit.o)
                                0x571 (size before relaxing)
 .debug_str     0x000041f2       0x8d c:/px4/workspace/PX4Firmware/Build/px4io-v1_default.build/nuttx-export/libs\libnuttx.a(sched-task_setup.o)
                                0x627 (size before relaxing)
 .debug_str     0x0000427f       0x21 c:/px4/workspace/PX4Firmware/Build/px4io-v1_default.build/nuttx-export/libs\libnuttx.a(sched-task_start.o)
                                0x4f5 (size before relaxing)
 .debug_str     0x000042a0       0x20 c:/px4/workspace/PX4Firmware/Build/px4io-v1_default.build/nuttx-export/libs\libnuttx.a(sched-task_terminate.o)
                                0x5cf (size before relaxing)
 .debug_str     0x000042c0       0x1e c:/px4/workspace/PX4Firmware/Build/px4io-v1_default.build/nuttx-export/libs\libnuttx.a(c-dq_addlast.o)
                                0x154 (size before relaxing)
 .debug_str     0x000042de       0x16 c:/px4/workspace/PX4Firmware/Build/px4io-v1_default.build/nuttx-export/libs\libnuttx.a(c-dq_rem.o)
                                0x156 (size before relaxing)
 .debug_str     0x000042f4       0x20 c:/px4/workspace/PX4Firmware/Build/px4io-v1_default.build/nuttx-export/libs\libnuttx.a(c-lib_strdup.o)
                                0x124 (size before relaxing)
 .debug_str     0x00004314       0x2f c:/px4/workspace/PX4Firmware/Build/px4io-v1_default.build/nuttx-export/libs\libnuttx.a(arch-stm32_timerisr.o)
                                0x161 (size before relaxing)
 .debug_str     0x00004343       0x43 c:/px4/workspace/PX4Firmware/Build/px4io-v1_default.build/nuttx-export/libs\libnuttx.a(arch-up_createstack.o)
                                0x4c9 (size before relaxing)
 .debug_str     0x00004386       0x26 c:/px4/workspace/PX4Firmware/Build/px4io-v1_default.build/nuttx-export/libs\libnuttx.a(arch-up_doirq.o)
                                0x157 (size before relaxing)
 .debug_str     0x000043ac       0x2a c:/px4/workspace/PX4Firmware/Build/px4io-v1_default.build/nuttx-export/libs\libnuttx.a(arch-up_releasestack.o)
                                0x4aa (size before relaxing)
 .debug_str     0x000043d6        0xb c:/px4/workspace/PX4Firmware/Build/px4io-v1_default.build/nuttx-export/libs\libnuttx.a(fs-fs_close.o)
                                0x11a (size before relaxing)
 .debug_str     0x000043e1       0x23 c:/px4/workspace/PX4Firmware/Build/px4io-v1_default.build/nuttx-export/libs\libnuttx.a(fs-fs_filedup2.o)
                                0x35d (size before relaxing)
 .debug_str     0x00004404       0x9d c:/px4/workspace/PX4Firmware/Build/px4io-v1_default.build/nuttx-export/libs\libnuttx.a(fs-fs_inode.o)
                                0x3dc (size before relaxing)
 .debug_str     0x000044a1       0x5f c:/px4/workspace/PX4Firmware/Build/px4io-v1_default.build/nuttx-export/libs\libnuttx.a(fs-fs_inodereserve.o)
                                0x39e (size before relaxing)
 .debug_str     0x00004500       0x2c c:/px4/workspace/PX4Firmware/Build/px4io-v1_default.build/nuttx-export/libs\libnuttx.a(sched-group_setuptaskfiles.o)
                                0x4b8 (size before relaxing)
 .debug_str     0x0000452c       0x1c c:/px4/workspace/PX4Firmware/Build/px4io-v1_default.build/nuttx-export/libs\libnuttx.a(sched-irq_dispatch.o)
                                0x143 (size before relaxing)
 .debug_str     0x00004548       0x1c c:/px4/workspace/PX4Firmware/Build/px4io-v1_default.build/nuttx-export/libs\libnuttx.a(sched-sched_gettcb.o)
                                0x4b1 (size before relaxing)
 .debug_str     0x00004564       0x18 c:/px4/workspace/PX4Firmware/Build/px4io-v1_default.build/nuttx-export/libs\libnuttx.a(sched-sched_lock.o)
                                0x4ce (size before relaxing)
 .debug_str     0x0000457c       0x41 c:/px4/workspace/PX4Firmware/Build/px4io-v1_default.build/nuttx-export/libs\libnuttx.a(sched-sched_processtimer.o)
                                0x146 (size before relaxing)
 .debug_str     0x000045bd       0x35 c:/px4/workspace/PX4Firmware/Build/px4io-v1_default.build/nuttx-export/libs\libnuttx.a(sched-sched_releasetcb.o)
                                0x4f3 (size before relaxing)
 .debug_str     0x000045f2       0x1c c:/px4/workspace/PX4Firmware/Build/px4io-v1_default.build/nuttx-export/libs\libnuttx.a(sched-sched_unlock.o)
                                0x507 (size before relaxing)
 .debug_str     0x0000460e       0x1e c:/px4/workspace/PX4Firmware/Build/px4io-v1_default.build/nuttx-export/libs\libnuttx.a(sched-task_activate.o)
                                0x4b2 (size before relaxing)
 .debug_str     0x0000462c       0x2f c:/px4/workspace/PX4Firmware/Build/px4io-v1_default.build/nuttx-export/libs\libnuttx.a(arch-up_releasepending.o)
                                0x501 (size before relaxing)

.debug_loc      0x00000000     0xdfe6
 .debug_loc     0x00000000       0x20 c:/px4/workspace/PX4Firmware/Build/px4io-v1_default.build/c/px4/workspace/PX4Firmware/src/drivers/boards/px4io-v1/module.pre.o
 .debug_loc     0x00000020     0x135c c:/px4/workspace/PX4Firmware/Build/px4io-v1_default.build/c/px4/workspace/PX4Firmware/src/drivers/stm32/module.pre.o
 .debug_loc     0x0000137c     0x4e74 c:/px4/workspace/PX4Firmware/Build/px4io-v1_default.build/c/px4/workspace/PX4Firmware/src/modules/px4iofirmware/module.pre.o
 .debug_loc     0x000061f0       0xbb c:/px4/workspace/PX4Firmware/Build/px4io-v1_default.build/nuttx-export/libs\libnuttx.a(sched-irq_attach.o)
 .debug_loc     0x000062ab       0x14 c:/px4/workspace/PX4Firmware/Build/px4io-v1_default.build/nuttx-export/libs\libnuttx.a(sched-irq_initialize.o)
 .debug_loc     0x000062bf       0x46 c:/px4/workspace/PX4Firmware/Build/px4io-v1_default.build/nuttx-export/libs\libnuttx.a(sched-irq_unexpectedisr.o)
 .debug_loc     0x00006305       0x20 c:/px4/workspace/PX4Firmware/Build/px4io-v1_default.build/nuttx-export/libs\libnuttx.a(c-lib_abort.o)
 .debug_loc     0x00006325       0x13 c:/px4/workspace/PX4Firmware/Build/px4io-v1_default.build/nuttx-export/libs\libnuttx.a(c-lib_cfsetspeed.o)
 .debug_loc     0x00006338       0x9b c:/px4/workspace/PX4Firmware/Build/px4io-v1_default.build/nuttx-export/libs\libnuttx.a(c-lib_crc32.o)
 .debug_loc     0x000063d3       0x88 c:/px4/workspace/PX4Firmware/Build/px4io-v1_default.build/nuttx-export/libs\libnuttx.a(c-lib_lowsyslog.o)
 .debug_loc     0x0000645b       0x77 c:/px4/workspace/PX4Firmware/Build/px4io-v1_default.build/nuttx-export/libs\libnuttx.a(c-lib_memchr.o)
 .debug_loc     0x000064d2       0x59 c:/px4/workspace/PX4Firmware/Build/px4io-v1_default.build/nuttx-export/libs\libnuttx.a(c-lib_memcpy.o)
 .debug_loc     0x0000652b       0x26 c:/px4/workspace/PX4Firmware/Build/px4io-v1_default.build/nuttx-export/libs\libnuttx.a(c-lib_memset.o)
 .debug_loc     0x00006551       0x2c c:/px4/workspace/PX4Firmware/Build/px4io-v1_default.build/nuttx-export/libs\libnuttx.a(c-lib_printf.o)
 .debug_loc     0x0000657d      0x6f9 c:/px4/workspace/PX4Firmware/Build/px4io-v1_default.build/nuttx-export/libs\libnuttx.a(c-lib_sscanf.o)
 .debug_loc     0x00006c76       0x36 c:/px4/workspace/PX4Firmware/Build/px4io-v1_default.build/nuttx-export/libs\libnuttx.a(c-lib_strchr.o)
 .debug_loc     0x00006cac       0x2b c:/px4/workspace/PX4Firmware/Build/px4io-v1_default.build/nuttx-export/libs\libnuttx.a(c-lib_strcmp.o)
 .debug_loc     0x00006cd7       0x7b c:/px4/workspace/PX4Firmware/Build/px4io-v1_default.build/nuttx-export/libs\libnuttx.a(c-lib_strcspn.o)
 .debug_loc     0x00006d52       0x64 c:/px4/workspace/PX4Firmware/Build/px4io-v1_default.build/nuttx-export/libs\libnuttx.a(c-lib_strncpy.o)
 .debug_loc     0x00006db6       0xd1 c:/px4/workspace/PX4Firmware/Build/px4io-v1_default.build/nuttx-export/libs\libnuttx.a(c-lib_strtol.o)
 .debug_loc     0x00006e87       0xb0 c:/px4/workspace/PX4Firmware/Build/px4io-v1_default.build/nuttx-export/libs\libnuttx.a(c-lib_strtoul.o)
 .debug_loc     0x00006f37       0x94 c:/px4/workspace/PX4Firmware/Build/px4io-v1_default.build/nuttx-export/libs\libnuttx.a(c-lib_syslog.o)
 .debug_loc     0x00006fcb       0x31 c:/px4/workspace/PX4Firmware/Build/px4io-v1_default.build/nuttx-export/libs\libnuttx.a(c-lib_tcgetattr.o)
 .debug_loc     0x00006ffc       0x5a c:/px4/workspace/PX4Firmware/Build/px4io-v1_default.build/nuttx-export/libs\libnuttx.a(c-lib_tcsetattr.o)
 .debug_loc     0x00007056       0xa4 c:/px4/workspace/PX4Firmware/Build/px4io-v1_default.build/nuttx-export/libs\libnuttx.a(c-lib_vsnprintf.o)
 .debug_loc     0x000070fa       0x70 c:/px4/workspace/PX4Firmware/Build/px4io-v1_default.build/nuttx-export/libs\libnuttx.a(c-sq_addafter.o)
 .debug_loc     0x0000716a       0x65 c:/px4/workspace/PX4Firmware/Build/px4io-v1_default.build/nuttx-export/libs\libnuttx.a(c-sq_rem.o)
 .debug_loc     0x000071cf       0x31 c:/px4/workspace/PX4Firmware/Build/px4io-v1_default.build/nuttx-export/libs\libnuttx.a(c-sq_remafter.o)
 .debug_loc     0x00007200       0x5b c:/px4/workspace/PX4Firmware/Build/px4io-v1_default.build/nuttx-export/libs\libnuttx.a(mm-mm_calloc.o)
 .debug_loc     0x0000725b       0xb8 c:/px4/workspace/PX4Firmware/Build/px4io-v1_default.build/nuttx-export/libs\libnuttx.a(mm-mm_free.o)
 .debug_loc     0x00007313       0xc8 c:/px4/workspace/PX4Firmware/Build/px4io-v1_default.build/nuttx-export/libs\libnuttx.a(mm-mm_mallinfo.o)
 .debug_loc     0x000073db      0x135 c:/px4/workspace/PX4Firmware/Build/px4io-v1_default.build/nuttx-export/libs\libnuttx.a(mm-mm_malloc.o)
 .debug_loc     0x00007510      0x129 c:/px4/workspace/PX4Firmware/Build/px4io-v1_default.build/nuttx-export/libs\libnuttx.a(mm-mm_sem.o)
 .debug_loc     0x00007639       0x54 c:/px4/workspace/PX4Firmware/Build/px4io-v1_default.build/nuttx-export/libs\libnuttx.a(mm-mm_size2ndx.o)
 .debug_loc     0x0000768d       0x78 c:/px4/workspace/PX4Firmware/Build/px4io-v1_default.build/nuttx-export/libs\libnuttx.a(mm-mm_user.o)
 .debug_loc     0x00007705       0x5c c:/px4/workspace/PX4Firmware/Build/px4io-v1_default.build/nuttx-export/libs\libnuttx.a(mm-mm_zalloc.o)
 .debug_loc     0x00007761      0x46e c:/px4/workspace/PX4Firmware/Build/px4io-v1_default.build/nuttx-export/libs\libnuttx.a(arch-stm32_dma.o)
 .debug_loc     0x00007bcf      0x33e c:/px4/workspace/PX4Firmware/Build/px4io-v1_default.build/nuttx-export/libs\libnuttx.a(arch-stm32_gpio.o)
 .debug_loc     0x00007f0d      0x204 c:/px4/workspace/PX4Firmware/Build/px4io-v1_default.build/nuttx-export/libs\libnuttx.a(arch-stm32_irq.o)
 .debug_loc     0x00008111      0xe2d c:/px4/workspace/PX4Firmware/Build/px4io-v1_default.build/nuttx-export/libs\libnuttx.a(arch-stm32_serial.o)
 .debug_loc     0x00008f3e       0x3e c:/px4/workspace/PX4Firmware/Build/px4io-v1_default.build/nuttx-export/libs\libnuttx.a(arch-stm32_start.o)
 .debug_loc     0x00008f7c      0x163 c:/px4/workspace/PX4Firmware/Build/px4io-v1_default.build/nuttx-export/libs\libnuttx.a(arch-up_assert.o)
 .debug_loc     0x000090df       0x8e c:/px4/workspace/PX4Firmware/Build/px4io-v1_default.build/nuttx-export/libs\libnuttx.a(arch-up_hardfault.o)
 .debug_loc     0x0000916d       0x51 c:/px4/workspace/PX4Firmware/Build/px4io-v1_default.build/nuttx-export/libs\libnuttx.a(arch-up_modifyreg32.o)
 .debug_loc     0x000091be       0x7b c:/px4/workspace/PX4Firmware/Build/px4io-v1_default.build/nuttx-export/libs\libnuttx.a(arch-up_svcall.o)
 .debug_loc     0x00009239       0x1e c:/px4/workspace/PX4Firmware/Build/px4io-v1_default.build/nuttx-export/libs\libnuttx.a(arch-up_systemreset.o)
 .debug_loc     0x00009257       0x90 c:/px4/workspace/PX4Firmware/Build/px4io-v1_default.build/nuttx-export/libs\libnuttx.a(arch-up_udelay.o)
 .debug_loc     0x000092e7       0x13 c:/px4/workspace/PX4Firmware/Build/px4io-v1_default.build/nuttx-export/libs\libnuttx.a(cxx-libxx_cxa_atexit.o)
 .debug_loc     0x000092fa       0x20 c:/px4/workspace/PX4Firmware/Build/px4io-v1_default.build/nuttx-export/libs\libnuttx.a(cxx-libxx_cxapurevirtual.o)
 .debug_loc     0x0000931a       0x13 c:/px4/workspace/PX4Firmware/Build/px4io-v1_default.build/nuttx-export/libs\libnuttx.a(cxx-libxx_delete.o)
 .debug_loc     0x0000932d       0x4f c:/px4/workspace/PX4Firmware/Build/px4io-v1_default.build/nuttx-export/libs\libnuttx.a(cxx-libxx_eabi_atexit.o)
 .debug_loc     0x0000937c       0x13 c:/px4/workspace/PX4Firmware/Build/px4io-v1_default.build/nuttx-export/libs\libnuttx.a(cxx-libxx_new.o)
 .debug_loc     0x0000938f      0x163 c:/px4/workspace/PX4Firmware/Build/px4io-v1_default.build/nuttx-export/libs\libnuttx.a(fs-fs_ioctl.o)
 .debug_loc     0x000094f2      0x1a4 c:/px4/workspace/PX4Firmware/Build/px4io-v1_default.build/nuttx-export/libs\libnuttx.a(fs-fs_open.o)
 .debug_loc     0x00009696      0x175 c:/px4/workspace/PX4Firmware/Build/px4io-v1_default.build/nuttx-export/libs\libnuttx.a(fs-fs_read.o)
 .debug_loc     0x0000980b      0x8dd c:/px4/workspace/PX4Firmware/Build/px4io-v1_default.build/nuttx-export/libs\libnuttx.a(drivers-serial.o)
 .debug_loc     0x0000a0e8      0x119 c:/px4/workspace/PX4Firmware/Build/px4io-v1_default.build/nuttx-export/libs\libnuttx.a(drivers-serialirq.o)
 .debug_loc     0x0000a201       0x4b c:/px4/workspace/PX4Firmware/Build/px4io-v1_default.build/nuttx-export/libs\libnuttx.a(sched-errno_getptr.o)
 .debug_loc     0x0000a24c       0x51 c:/px4/workspace/PX4Firmware/Build/px4io-v1_default.build/nuttx-export/libs\libnuttx.a(sched-exit.o)
 .debug_loc     0x0000a29d       0x58 c:/px4/workspace/PX4Firmware/Build/px4io-v1_default.build/nuttx-export/libs\libnuttx.a(sched-os_start.o)
 .debug_loc     0x0000a2f5       0x59 c:/px4/workspace/PX4Firmware/Build/px4io-v1_default.build/nuttx-export/libs\libnuttx.a(sched-sched_garbage.o)
 .debug_loc     0x0000a34e      0x101 c:/px4/workspace/PX4Firmware/Build/px4io-v1_default.build/nuttx-export/libs\libnuttx.a(sched-sem_post.o)
 .debug_loc     0x0000a44f       0xb5 c:/px4/workspace/PX4Firmware/Build/px4io-v1_default.build/nuttx-export/libs\libnuttx.a(sched-sem_trywait.o)
 .debug_loc     0x0000a504       0xb5 c:/px4/workspace/PX4Firmware/Build/px4io-v1_default.build/nuttx-export/libs\libnuttx.a(sched-sem_wait.o)
 .debug_loc     0x0000a5b9       0x64 c:/px4/workspace/PX4Firmware/Build/px4io-v1_default.build/nuttx-export/libs\libnuttx.a(sched-task_exithook.o)
 .debug_loc     0x0000a61d       0x3e c:/px4/workspace/PX4Firmware/Build/px4io-v1_default.build/nuttx-export/libs\libnuttx.a(sched-task_recover.o)
 .debug_loc     0x0000a65b      0x10c c:/px4/workspace/PX4Firmware/Build/px4io-v1_default.build/nuttx-export/libs\libnuttx.a(sched-wd_cancel.o)
 .debug_loc     0x0000a767       0x3e c:/px4/workspace/PX4Firmware/Build/px4io-v1_default.build/nuttx-export/libs\libnuttx.a(sched-wd_delete.o)
 .debug_loc     0x0000a7a5       0x3e c:/px4/workspace/PX4Firmware/Build/px4io-v1_default.build/nuttx-export/libs\libnuttx.a(sched-wd_initialize.o)
 .debug_loc     0x0000a7e3       0x13 c:/px4/workspace/PX4Firmware/Build/px4io-v1_default.build/nuttx-export/libs\libnuttx.a(c-lib_cfgetspeed.o)
 .debug_loc     0x0000a7f6      0x11c c:/px4/workspace/PX4Firmware/Build/px4io-v1_default.build/nuttx-export/libs\libnuttx.a(c-lib_checkbase.o)
 .debug_loc     0x0000a912      0x121 c:/px4/workspace/PX4Firmware/Build/px4io-v1_default.build/nuttx-export/libs\libnuttx.a(c-lib_isbasedigit.o)
 .debug_loc     0x0000aa33      0xc9a c:/px4/workspace/PX4Firmware/Build/px4io-v1_default.build/nuttx-export/libs\libnuttx.a(c-lib_libvsprintf.o)
 .debug_loc     0x0000b6cd       0x51 c:/px4/workspace/PX4Firmware/Build/px4io-v1_default.build/nuttx-export/libs\libnuttx.a(c-lib_lowoutstream.o)
 .debug_loc     0x0000b71e       0x59 c:/px4/workspace/PX4Firmware/Build/px4io-v1_default.build/nuttx-export/libs\libnuttx.a(c-lib_memoutstream.o)
 .debug_loc     0x0000b777       0x82 c:/px4/workspace/PX4Firmware/Build/px4io-v1_default.build/nuttx-export/libs\libnuttx.a(c-lib_rawoutstream.o)
 .debug_loc     0x0000b7f9       0x2a c:/px4/workspace/PX4Firmware/Build/px4io-v1_default.build/nuttx-export/libs\libnuttx.a(c-lib_skipspace.o)
 .debug_loc     0x0000b823       0x31 c:/px4/workspace/PX4Firmware/Build/px4io-v1_default.build/nuttx-export/libs\libnuttx.a(c-lib_strcpy.o)
 .debug_loc     0x0000b854       0x3c c:/px4/workspace/PX4Firmware/Build/px4io-v1_default.build/nuttx-export/libs\libnuttx.a(c-lib_strlen.o)
 .debug_loc     0x0000b890       0x64 c:/px4/workspace/PX4Firmware/Build/px4io-v1_default.build/nuttx-export/libs\libnuttx.a(c-sem_init.o)
 .debug_loc     0x0000b8f4       0x32 c:/px4/workspace/PX4Firmware/Build/px4io-v1_default.build/nuttx-export/libs\libnuttx.a(c-sq_remfirst.o)
 .debug_loc     0x0000b926       0xc3 c:/px4/workspace/PX4Firmware/Build/px4io-v1_default.build/nuttx-export/libs\libnuttx.a(mm-mm_addfreechunk.o)
 .debug_loc     0x0000b9e9      0x15c c:/px4/workspace/PX4Firmware/Build/px4io-v1_default.build/nuttx-export/libs\libnuttx.a(mm-mm_initialize.o)
 .debug_loc     0x0000bb45       0xa5 c:/px4/workspace/PX4Firmware/Build/px4io-v1_default.build/nuttx-export/libs\libnuttx.a(arch-stm32_lowputc.o)
 .debug_loc     0x0000bbea      0x126 c:/px4/workspace/PX4Firmware/Build/px4io-v1_default.build/nuttx-export/libs\libnuttx.a(arch-stm32_rcc.o)
 .debug_loc     0x0000bd10       0xf1 c:/px4/workspace/PX4Firmware/Build/px4io-v1_default.build/nuttx-export/libs\libnuttx.a(arch-up_blocktask.o)
 .debug_loc     0x0000be01       0x26 c:/px4/workspace/PX4Firmware/Build/px4io-v1_default.build/nuttx-export/libs\libnuttx.a(arch-up_copystate.o)
 .debug_loc     0x0000be27       0x53 c:/px4/workspace/PX4Firmware/Build/px4io-v1_default.build/nuttx-export/libs\libnuttx.a(arch-up_exit.o)
 .debug_loc     0x0000be7a       0x20 c:/px4/workspace/PX4Firmware/Build/px4io-v1_default.build/nuttx-export/libs\libnuttx.a(arch-up_initialize.o)
 .debug_loc     0x0000be9a       0x60 c:/px4/workspace/PX4Firmware/Build/px4io-v1_default.build/nuttx-export/libs\libnuttx.a(arch-up_initialstate.o)
 .debug_loc     0x0000befa       0x76 c:/px4/workspace/PX4Firmware/Build/px4io-v1_default.build/nuttx-export/libs\libnuttx.a(arch-up_mdelay.o)
 .debug_loc     0x0000bf70       0x9f c:/px4/workspace/PX4Firmware/Build/px4io-v1_default.build/nuttx-export/libs\libnuttx.a(arch-up_unblocktask.o)
 .debug_loc     0x0000c00f      0x402 c:/px4/workspace/PX4Firmware/Build/px4io-v1_default.build/nuttx-export/libs\libnuttx.a(fs-fs_files.o)
 .debug_loc     0x0000c411       0x3e c:/px4/workspace/PX4Firmware/Build/px4io-v1_default.build/nuttx-export/libs\libnuttx.a(fs-fs_inodeaddref.o)
 .debug_loc     0x0000c44f       0x7a c:/px4/workspace/PX4Firmware/Build/px4io-v1_default.build/nuttx-export/libs\libnuttx.a(fs-fs_inodefind.o)
 .debug_loc     0x0000c4c9       0x3e c:/px4/workspace/PX4Firmware/Build/px4io-v1_default.build/nuttx-export/libs\libnuttx.a(fs-fs_inoderelease.o)
 .debug_loc     0x0000c507       0xab c:/px4/workspace/PX4Firmware/Build/px4io-v1_default.build/nuttx-export/libs\libnuttx.a(fs-fs_registerdriver.o)
 .debug_loc     0x0000c5b2      0x126 c:/px4/workspace/PX4Firmware/Build/px4io-v1_default.build/nuttx-export/libs\libnuttx.a(fs-fs_write.o)
 .debug_loc     0x0000c6d8       0xae c:/px4/workspace/PX4Firmware/Build/px4io-v1_default.build/nuttx-export/libs\libnuttx.a(sched-group_create.o)
 .debug_loc     0x0000c786       0x94 c:/px4/workspace/PX4Firmware/Build/px4io-v1_default.build/nuttx-export/libs\libnuttx.a(sched-group_leave.o)
 .debug_loc     0x0000c81a       0x65 c:/px4/workspace/PX4Firmware/Build/px4io-v1_default.build/nuttx-export/libs\libnuttx.a(sched-group_setupidlefiles.o)
 .debug_loc     0x0000c87f       0x3e c:/px4/workspace/PX4Firmware/Build/px4io-v1_default.build/nuttx-export/libs\libnuttx.a(sched-os_bringup.o)
 .debug_loc     0x0000c8bd       0x5c c:/px4/workspace/PX4Firmware/Build/px4io-v1_default.build/nuttx-export/libs\libnuttx.a(sched-sched_addblocked.o)
 .debug_loc     0x0000c919      0x164 c:/px4/workspace/PX4Firmware/Build/px4io-v1_default.build/nuttx-export/libs\libnuttx.a(sched-sched_addprioritized.o)
 .debug_loc     0x0000ca7d       0x69 c:/px4/workspace/PX4Firmware/Build/px4io-v1_default.build/nuttx-export/libs\libnuttx.a(sched-sched_addreadytorun.o)
 .debug_loc     0x0000cae6       0x64 c:/px4/workspace/PX4Firmware/Build/px4io-v1_default.build/nuttx-export/libs\libnuttx.a(sched-sched_free.o)
 .debug_loc     0x0000cb4a      0x107 c:/px4/workspace/PX4Firmware/Build/px4io-v1_default.build/nuttx-export/libs\libnuttx.a(sched-sched_mergepending.o)
 .debug_loc     0x0000cc51       0x5c c:/px4/workspace/PX4Firmware/Build/px4io-v1_default.build/nuttx-export/libs\libnuttx.a(sched-sched_removeblocked.o)
 .debug_loc     0x0000ccad       0x75 c:/px4/workspace/PX4Firmware/Build/px4io-v1_default.build/nuttx-export/libs\libnuttx.a(sched-sched_removereadytorun.o)
 .debug_loc     0x0000cd22       0x49 c:/px4/workspace/PX4Firmware/Build/px4io-v1_default.build/nuttx-export/libs\libnuttx.a(sched-sem_destroy.o)
 .debug_loc     0x0000cd6b      0x290 c:/px4/workspace/PX4Firmware/Build/px4io-v1_default.build/nuttx-export/libs\libnuttx.a(sched-task_create.o)
 .debug_loc     0x0000cffb       0x20 c:/px4/workspace/PX4Firmware/Build/px4io-v1_default.build/nuttx-export/libs\libnuttx.a(sched-task_exit.o)
 .debug_loc     0x0000d01b      0x2b6 c:/px4/workspace/PX4Firmware/Build/px4io-v1_default.build/nuttx-export/libs\libnuttx.a(sched-task_setup.o)
 .debug_loc     0x0000d2d1       0x73 c:/px4/workspace/PX4Firmware/Build/px4io-v1_default.build/nuttx-export/libs\libnuttx.a(sched-task_start.o)
 .debug_loc     0x0000d344       0x8a c:/px4/workspace/PX4Firmware/Build/px4io-v1_default.build/nuttx-export/libs\libnuttx.a(sched-task_terminate.o)
 .debug_loc     0x0000d3ce       0x68 c:/px4/workspace/PX4Firmware/Build/px4io-v1_default.build/nuttx-export/libs\libnuttx.a(c-lib_strdup.o)
 .debug_loc     0x0000d436       0x89 c:/px4/workspace/PX4Firmware/Build/px4io-v1_default.build/nuttx-export/libs\libnuttx.a(arch-stm32_timerisr.o)
 .debug_loc     0x0000d4bf       0xc8 c:/px4/workspace/PX4Firmware/Build/px4io-v1_default.build/nuttx-export/libs\libnuttx.a(arch-up_createstack.o)
 .debug_loc     0x0000d587       0x92 c:/px4/workspace/PX4Firmware/Build/px4io-v1_default.build/nuttx-export/libs\libnuttx.a(arch-up_doirq.o)
 .debug_loc     0x0000d619       0x51 c:/px4/workspace/PX4Firmware/Build/px4io-v1_default.build/nuttx-export/libs\libnuttx.a(arch-up_releasestack.o)
 .debug_loc     0x0000d66a       0x7a c:/px4/workspace/PX4Firmware/Build/px4io-v1_default.build/nuttx-export/libs\libnuttx.a(fs-fs_close.o)
 .debug_loc     0x0000d6e4       0x9b c:/px4/workspace/PX4Firmware/Build/px4io-v1_default.build/nuttx-export/libs\libnuttx.a(fs-fs_filedup2.o)
 .debug_loc     0x0000d77f      0x322 c:/px4/workspace/PX4Firmware/Build/px4io-v1_default.build/nuttx-export/libs\libnuttx.a(fs-fs_inode.o)
 .debug_loc     0x0000daa1      0x268 c:/px4/workspace/PX4Firmware/Build/px4io-v1_default.build/nuttx-export/libs\libnuttx.a(fs-fs_inodereserve.o)
 .debug_loc     0x0000dd09       0x47 c:/px4/workspace/PX4Firmware/Build/px4io-v1_default.build/nuttx-export/libs\libnuttx.a(sched-group_setuptaskfiles.o)
 .debug_loc     0x0000dd50       0x59 c:/px4/workspace/PX4Firmware/Build/px4io-v1_default.build/nuttx-export/libs\libnuttx.a(sched-irq_dispatch.o)
 .debug_loc     0x0000dda9       0x83 c:/px4/workspace/PX4Firmware/Build/px4io-v1_default.build/nuttx-export/libs\libnuttx.a(sched-sched_gettcb.o)
 .debug_loc     0x0000de2c       0x20 c:/px4/workspace/PX4Firmware/Build/px4io-v1_default.build/nuttx-export/libs\libnuttx.a(sched-sched_lock.o)
 .debug_loc     0x0000de4c       0x20 c:/px4/workspace/PX4Firmware/Build/px4io-v1_default.build/nuttx-export/libs\libnuttx.a(sched-sched_processtimer.o)
 .debug_loc     0x0000de6c       0x8b c:/px4/workspace/PX4Firmware/Build/px4io-v1_default.build/nuttx-export/libs\libnuttx.a(sched-sched_releasetcb.o)
 .debug_loc     0x0000def7       0x46 c:/px4/workspace/PX4Firmware/Build/px4io-v1_default.build/nuttx-export/libs\libnuttx.a(sched-sched_unlock.o)
 .debug_loc     0x0000df3d       0x33 c:/px4/workspace/PX4Firmware/Build/px4io-v1_default.build/nuttx-export/libs\libnuttx.a(sched-task_activate.o)
 .debug_loc     0x0000df70       0x76 c:/px4/workspace/PX4Firmware/Build/px4io-v1_default.build/nuttx-export/libs\libnuttx.a(arch-up_releasepending.o)

.debug_ranges   0x00000000     0x2ca8
 .debug_ranges  0x00000000       0x10 c:/px4/workspace/PX4Firmware/Build/px4io-v1_default.build/c/px4/workspace/PX4Firmware/src/drivers/boards/px4io-v1/module.pre.o
 .debug_ranges  0x00000010      0x530 c:/px4/workspace/PX4Firmware/Build/px4io-v1_default.build/c/px4/workspace/PX4Firmware/src/drivers/stm32/module.pre.o
 .debug_ranges  0x00000540     0x15e8 c:/px4/workspace/PX4Firmware/Build/px4io-v1_default.build/c/px4/workspace/PX4Firmware/src/modules/px4iofirmware/module.pre.o
 .debug_ranges  0x00001b28       0x10 c:/px4/workspace/PX4Firmware/Build/px4io-v1_default.build/nuttx-export/libs\libnuttx.a(sched-irq_attach.o)
 .debug_ranges  0x00001b38       0x10 c:/px4/workspace/PX4Firmware/Build/px4io-v1_default.build/nuttx-export/libs\libnuttx.a(sched-irq_initialize.o)
 .debug_ranges  0x00001b48       0x10 c:/px4/workspace/PX4Firmware/Build/px4io-v1_default.build/nuttx-export/libs\libnuttx.a(sched-irq_unexpectedisr.o)
 .debug_ranges  0x00001b58       0x10 c:/px4/workspace/PX4Firmware/Build/px4io-v1_default.build/nuttx-export/libs\libnuttx.a(c-lib_abort.o)
 .debug_ranges  0x00001b68       0x10 c:/px4/workspace/PX4Firmware/Build/px4io-v1_default.build/nuttx-export/libs\libnuttx.a(c-lib_cfsetspeed.o)
 .debug_ranges  0x00001b78       0x18 c:/px4/workspace/PX4Firmware/Build/px4io-v1_default.build/nuttx-export/libs\libnuttx.a(c-lib_crc32.o)
 .debug_ranges  0x00001b90       0x18 c:/px4/workspace/PX4Firmware/Build/px4io-v1_default.build/nuttx-export/libs\libnuttx.a(c-lib_lowsyslog.o)
 .debug_ranges  0x00001ba8       0x10 c:/px4/workspace/PX4Firmware/Build/px4io-v1_default.build/nuttx-export/libs\libnuttx.a(c-lib_memchr.o)
 .debug_ranges  0x00001bb8       0x10 c:/px4/workspace/PX4Firmware/Build/px4io-v1_default.build/nuttx-export/libs\libnuttx.a(c-lib_memcpy.o)
 .debug_ranges  0x00001bc8       0x10 c:/px4/workspace/PX4Firmware/Build/px4io-v1_default.build/nuttx-export/libs\libnuttx.a(c-lib_memset.o)
 .debug_ranges  0x00001bd8       0x10 c:/px4/workspace/PX4Firmware/Build/px4io-v1_default.build/nuttx-export/libs\libnuttx.a(c-lib_printf.o)
 .debug_ranges  0x00001be8       0x90 c:/px4/workspace/PX4Firmware/Build/px4io-v1_default.build/nuttx-export/libs\libnuttx.a(c-lib_sscanf.o)
 .debug_ranges  0x00001c78       0x10 c:/px4/workspace/PX4Firmware/Build/px4io-v1_default.build/nuttx-export/libs\libnuttx.a(c-lib_strchr.o)
 .debug_ranges  0x00001c88       0x10 c:/px4/workspace/PX4Firmware/Build/px4io-v1_default.build/nuttx-export/libs\libnuttx.a(c-lib_strcmp.o)
 .debug_ranges  0x00001c98       0x10 c:/px4/workspace/PX4Firmware/Build/px4io-v1_default.build/nuttx-export/libs\libnuttx.a(c-lib_strcspn.o)
 .debug_ranges  0x00001ca8       0x10 c:/px4/workspace/PX4Firmware/Build/px4io-v1_default.build/nuttx-export/libs\libnuttx.a(c-lib_strncpy.o)
 .debug_ranges  0x00001cb8       0x10 c:/px4/workspace/PX4Firmware/Build/px4io-v1_default.build/nuttx-export/libs\libnuttx.a(c-lib_strtol.o)
 .debug_ranges  0x00001cc8       0x10 c:/px4/workspace/PX4Firmware/Build/px4io-v1_default.build/nuttx-export/libs\libnuttx.a(c-lib_strtoul.o)
 .debug_ranges  0x00001cd8       0x18 c:/px4/workspace/PX4Firmware/Build/px4io-v1_default.build/nuttx-export/libs\libnuttx.a(c-lib_syslog.o)
 .debug_ranges  0x00001cf0       0x10 c:/px4/workspace/PX4Firmware/Build/px4io-v1_default.build/nuttx-export/libs\libnuttx.a(c-lib_tcgetattr.o)
 .debug_ranges  0x00001d00       0x10 c:/px4/workspace/PX4Firmware/Build/px4io-v1_default.build/nuttx-export/libs\libnuttx.a(c-lib_tcsetattr.o)
 .debug_ranges  0x00001d10       0x10 c:/px4/workspace/PX4Firmware/Build/px4io-v1_default.build/nuttx-export/libs\libnuttx.a(c-lib_vsnprintf.o)
 .debug_ranges  0x00001d20       0x10 c:/px4/workspace/PX4Firmware/Build/px4io-v1_default.build/nuttx-export/libs\libnuttx.a(c-sq_addafter.o)
 .debug_ranges  0x00001d30       0x10 c:/px4/workspace/PX4Firmware/Build/px4io-v1_default.build/nuttx-export/libs\libnuttx.a(c-sq_addfirst.o)
 .debug_ranges  0x00001d40       0x10 c:/px4/workspace/PX4Firmware/Build/px4io-v1_default.build/nuttx-export/libs\libnuttx.a(c-sq_addlast.o)
 .debug_ranges  0x00001d50       0x28 c:/px4/workspace/PX4Firmware/Build/px4io-v1_default.build/nuttx-export/libs\libnuttx.a(c-sq_rem.o)
 .debug_ranges  0x00001d78       0x10 c:/px4/workspace/PX4Firmware/Build/px4io-v1_default.build/nuttx-export/libs\libnuttx.a(c-sq_remafter.o)
 .debug_ranges  0x00001d88       0x10 c:/px4/workspace/PX4Firmware/Build/px4io-v1_default.build/nuttx-export/libs\libnuttx.a(mm-mm_calloc.o)
 .debug_ranges  0x00001d98       0x40 c:/px4/workspace/PX4Firmware/Build/px4io-v1_default.build/nuttx-export/libs\libnuttx.a(mm-mm_free.o)
 .debug_ranges  0x00001dd8       0x40 c:/px4/workspace/PX4Firmware/Build/px4io-v1_default.build/nuttx-export/libs\libnuttx.a(mm-mm_mallinfo.o)
 .debug_ranges  0x00001e18       0x58 c:/px4/workspace/PX4Firmware/Build/px4io-v1_default.build/nuttx-export/libs\libnuttx.a(mm-mm_malloc.o)
 .debug_ranges  0x00001e70       0x28 c:/px4/workspace/PX4Firmware/Build/px4io-v1_default.build/nuttx-export/libs\libnuttx.a(mm-mm_sem.o)
 .debug_ranges  0x00001e98       0x10 c:/px4/workspace/PX4Firmware/Build/px4io-v1_default.build/nuttx-export/libs\libnuttx.a(mm-mm_size2ndx.o)
 .debug_ranges  0x00001ea8       0x28 c:/px4/workspace/PX4Firmware/Build/px4io-v1_default.build/nuttx-export/libs\libnuttx.a(mm-mm_user.o)
 .debug_ranges  0x00001ed0       0x10 c:/px4/workspace/PX4Firmware/Build/px4io-v1_default.build/nuttx-export/libs\libnuttx.a(mm-mm_zalloc.o)
 .debug_ranges  0x00001ee0       0x98 c:/px4/workspace/PX4Firmware/Build/px4io-v1_default.build/nuttx-export/libs\libnuttx.a(arch-stm32_dma.o)
 .debug_ranges  0x00001f78       0x30 c:/px4/workspace/PX4Firmware/Build/px4io-v1_default.build/nuttx-export/libs\libnuttx.a(arch-stm32_gpio.o)
 .debug_ranges  0x00001fa8       0x38 c:/px4/workspace/PX4Firmware/Build/px4io-v1_default.build/nuttx-export/libs\libnuttx.a(arch-stm32_irq.o)
 .debug_ranges  0x00001fe0      0x258 c:/px4/workspace/PX4Firmware/Build/px4io-v1_default.build/nuttx-export/libs\libnuttx.a(arch-stm32_serial.o)
 .debug_ranges  0x00002238       0x10 c:/px4/workspace/PX4Firmware/Build/px4io-v1_default.build/nuttx-export/libs\libnuttx.a(arch-stm32_start.o)
 .debug_ranges  0x00002248       0x10 c:/px4/workspace/PX4Firmware/Build/px4io-v1_default.build/nuttx-export/libs\libnuttx.a(arch-up_assert.o)
 .debug_ranges  0x00002258       0x28 c:/px4/workspace/PX4Firmware/Build/px4io-v1_default.build/nuttx-export/libs\libnuttx.a(arch-up_hardfault.o)
 .debug_ranges  0x00002280       0x10 c:/px4/workspace/PX4Firmware/Build/px4io-v1_default.build/nuttx-export/libs\libnuttx.a(arch-up_modifyreg32.o)
 .debug_ranges  0x00002290       0x10 c:/px4/workspace/PX4Firmware/Build/px4io-v1_default.build/nuttx-export/libs\libnuttx.a(arch-up_svcall.o)
 .debug_ranges  0x000022a0       0x10 c:/px4/workspace/PX4Firmware/Build/px4io-v1_default.build/nuttx-export/libs\libnuttx.a(arch-up_systemreset.o)
 .debug_ranges  0x000022b0       0x10 c:/px4/workspace/PX4Firmware/Build/px4io-v1_default.build/nuttx-export/libs\libnuttx.a(arch-up_udelay.o)
 .debug_ranges  0x000022c0       0x10 c:/px4/workspace/PX4Firmware/Build/px4io-v1_default.build/nuttx-export/libs\libnuttx.a(cxx-libxx_cxa_atexit.o)
 .debug_ranges  0x000022d0       0x10 c:/px4/workspace/PX4Firmware/Build/px4io-v1_default.build/nuttx-export/libs\libnuttx.a(cxx-libxx_cxapurevirtual.o)
 .debug_ranges  0x000022e0       0x10 c:/px4/workspace/PX4Firmware/Build/px4io-v1_default.build/nuttx-export/libs\libnuttx.a(cxx-libxx_delete.o)
 .debug_ranges  0x000022f0       0x10 c:/px4/workspace/PX4Firmware/Build/px4io-v1_default.build/nuttx-export/libs\libnuttx.a(cxx-libxx_eabi_atexit.o)
 .debug_ranges  0x00002300       0x28 c:/px4/workspace/PX4Firmware/Build/px4io-v1_default.build/nuttx-export/libs\libnuttx.a(cxx-libxx_new.o)
 .debug_ranges  0x00002328       0x10 c:/px4/workspace/PX4Firmware/Build/px4io-v1_default.build/nuttx-export/libs\libnuttx.a(fs-fs_ioctl.o)
 .debug_ranges  0x00002338       0x18 c:/px4/workspace/PX4Firmware/Build/px4io-v1_default.build/nuttx-export/libs\libnuttx.a(fs-fs_open.o)
 .debug_ranges  0x00002350       0x60 c:/px4/workspace/PX4Firmware/Build/px4io-v1_default.build/nuttx-export/libs\libnuttx.a(fs-fs_read.o)
 .debug_ranges  0x000023b0       0x88 c:/px4/workspace/PX4Firmware/Build/px4io-v1_default.build/nuttx-export/libs\libnuttx.a(drivers-serial.o)
 .debug_ranges  0x00002438       0x18 c:/px4/workspace/PX4Firmware/Build/px4io-v1_default.build/nuttx-export/libs\libnuttx.a(drivers-serialirq.o)
 .debug_ranges  0x00002450       0x28 c:/px4/workspace/PX4Firmware/Build/px4io-v1_default.build/nuttx-export/libs\libnuttx.a(sched-errno_getptr.o)
 .debug_ranges  0x00002478       0x10 c:/px4/workspace/PX4Firmware/Build/px4io-v1_default.build/nuttx-export/libs\libnuttx.a(sched-exit.o)
 .debug_ranges  0x00002488       0x10 c:/px4/workspace/PX4Firmware/Build/px4io-v1_default.build/nuttx-export/libs\libnuttx.a(sched-getpid.o)
 .debug_ranges  0x00002498       0x10 c:/px4/workspace/PX4Firmware/Build/px4io-v1_default.build/nuttx-export/libs\libnuttx.a(sched-os_start.o)
 .debug_ranges  0x000024a8       0x10 c:/px4/workspace/PX4Firmware/Build/px4io-v1_default.build/nuttx-export/libs\libnuttx.a(sched-sched_garbage.o)
 .debug_ranges  0x000024b8       0x10 c:/px4/workspace/PX4Firmware/Build/px4io-v1_default.build/nuttx-export/libs\libnuttx.a(sched-sched_getfiles.o)
 .debug_ranges  0x000024c8       0x10 c:/px4/workspace/PX4Firmware/Build/px4io-v1_default.build/nuttx-export/libs\libnuttx.a(sched-sem_post.o)
 .debug_ranges  0x000024d8       0x10 c:/px4/workspace/PX4Firmware/Build/px4io-v1_default.build/nuttx-export/libs\libnuttx.a(sched-sem_trywait.o)
 .debug_ranges  0x000024e8       0x10 c:/px4/workspace/PX4Firmware/Build/px4io-v1_default.build/nuttx-export/libs\libnuttx.a(sched-sem_wait.o)
 .debug_ranges  0x000024f8       0x10 c:/px4/workspace/PX4Firmware/Build/px4io-v1_default.build/nuttx-export/libs\libnuttx.a(sched-task_exithook.o)
 .debug_ranges  0x00002508       0x10 c:/px4/workspace/PX4Firmware/Build/px4io-v1_default.build/nuttx-export/libs\libnuttx.a(sched-task_recover.o)
 .debug_ranges  0x00002518       0x10 c:/px4/workspace/PX4Firmware/Build/px4io-v1_default.build/nuttx-export/libs\libnuttx.a(sched-wd_cancel.o)
 .debug_ranges  0x00002528       0x10 c:/px4/workspace/PX4Firmware/Build/px4io-v1_default.build/nuttx-export/libs\libnuttx.a(sched-wd_delete.o)
 .debug_ranges  0x00002538       0x10 c:/px4/workspace/PX4Firmware/Build/px4io-v1_default.build/nuttx-export/libs\libnuttx.a(sched-wd_initialize.o)
 .debug_ranges  0x00002548       0x10 c:/px4/workspace/PX4Firmware/Build/px4io-v1_default.build/nuttx-export/libs\libnuttx.a(c-dq_addfirst.o)
 .debug_ranges  0x00002558       0x10 c:/px4/workspace/PX4Firmware/Build/px4io-v1_default.build/nuttx-export/libs\libnuttx.a(c-lib_cfgetspeed.o)
 .debug_ranges  0x00002568       0x10 c:/px4/workspace/PX4Firmware/Build/px4io-v1_default.build/nuttx-export/libs\libnuttx.a(c-lib_checkbase.o)
 .debug_ranges  0x00002578       0x10 c:/px4/workspace/PX4Firmware/Build/px4io-v1_default.build/nuttx-export/libs\libnuttx.a(c-lib_isbasedigit.o)
 .debug_ranges  0x00002588       0xb8 c:/px4/workspace/PX4Firmware/Build/px4io-v1_default.build/nuttx-export/libs\libnuttx.a(c-lib_libvsprintf.o)
 .debug_ranges  0x00002640       0x18 c:/px4/workspace/PX4Firmware/Build/px4io-v1_default.build/nuttx-export/libs\libnuttx.a(c-lib_lowoutstream.o)
 .debug_ranges  0x00002658       0x18 c:/px4/workspace/PX4Firmware/Build/px4io-v1_default.build/nuttx-export/libs\libnuttx.a(c-lib_memoutstream.o)
 .debug_ranges  0x00002670       0x18 c:/px4/workspace/PX4Firmware/Build/px4io-v1_default.build/nuttx-export/libs\libnuttx.a(c-lib_nulloutstream.o)
 .debug_ranges  0x00002688       0x18 c:/px4/workspace/PX4Firmware/Build/px4io-v1_default.build/nuttx-export/libs\libnuttx.a(c-lib_rawoutstream.o)
 .debug_ranges  0x000026a0       0x10 c:/px4/workspace/PX4Firmware/Build/px4io-v1_default.build/nuttx-export/libs\libnuttx.a(c-lib_skipspace.o)
 .debug_ranges  0x000026b0       0x10 c:/px4/workspace/PX4Firmware/Build/px4io-v1_default.build/nuttx-export/libs\libnuttx.a(c-lib_strcpy.o)
 .debug_ranges  0x000026c0       0x10 c:/px4/workspace/PX4Firmware/Build/px4io-v1_default.build/nuttx-export/libs\libnuttx.a(c-lib_strlen.o)
 .debug_ranges  0x000026d0       0x10 c:/px4/workspace/PX4Firmware/Build/px4io-v1_default.build/nuttx-export/libs\libnuttx.a(c-sem_init.o)
 .debug_ranges  0x000026e0       0x10 c:/px4/workspace/PX4Firmware/Build/px4io-v1_default.build/nuttx-export/libs\libnuttx.a(c-sq_remfirst.o)
 .debug_ranges  0x000026f0       0x10 c:/px4/workspace/PX4Firmware/Build/px4io-v1_default.build/nuttx-export/libs\libnuttx.a(mm-mm_addfreechunk.o)
 .debug_ranges  0x00002700       0x18 c:/px4/workspace/PX4Firmware/Build/px4io-v1_default.build/nuttx-export/libs\libnuttx.a(mm-mm_initialize.o)
 .debug_ranges  0x00002718       0x10 c:/px4/workspace/PX4Firmware/Build/px4io-v1_default.build/nuttx-export/libs\libnuttx.a(arch-stm32_allocateheap.o)
 .debug_ranges  0x00002728       0x10 c:/px4/workspace/PX4Firmware/Build/px4io-v1_default.build/nuttx-export/libs\libnuttx.a(arch-stm32_idle.o)
 .debug_ranges  0x00002738       0x18 c:/px4/workspace/PX4Firmware/Build/px4io-v1_default.build/nuttx-export/libs\libnuttx.a(arch-stm32_lowputc.o)
 .debug_ranges  0x00002750       0x10 c:/px4/workspace/PX4Firmware/Build/px4io-v1_default.build/nuttx-export/libs\libnuttx.a(arch-stm32_rcc.o)
 .debug_ranges  0x00002760       0x28 c:/px4/workspace/PX4Firmware/Build/px4io-v1_default.build/nuttx-export/libs\libnuttx.a(arch-up_blocktask.o)
 .debug_ranges  0x00002788       0x10 c:/px4/workspace/PX4Firmware/Build/px4io-v1_default.build/nuttx-export/libs\libnuttx.a(arch-up_copystate.o)
 .debug_ranges  0x00002798       0x10 c:/px4/workspace/PX4Firmware/Build/px4io-v1_default.build/nuttx-export/libs\libnuttx.a(arch-up_exit.o)
 .debug_ranges  0x000027a8       0x10 c:/px4/workspace/PX4Firmware/Build/px4io-v1_default.build/nuttx-export/libs\libnuttx.a(arch-up_initialize.o)
 .debug_ranges  0x000027b8       0x10 c:/px4/workspace/PX4Firmware/Build/px4io-v1_default.build/nuttx-export/libs\libnuttx.a(arch-up_initialstate.o)
 .debug_ranges  0x000027c8       0x10 c:/px4/workspace/PX4Firmware/Build/px4io-v1_default.build/nuttx-export/libs\libnuttx.a(arch-up_interruptcontext.o)
 .debug_ranges  0x000027d8       0x10 c:/px4/workspace/PX4Firmware/Build/px4io-v1_default.build/nuttx-export/libs\libnuttx.a(arch-up_mdelay.o)
 .debug_ranges  0x000027e8       0x28 c:/px4/workspace/PX4Firmware/Build/px4io-v1_default.build/nuttx-export/libs\libnuttx.a(arch-up_unblocktask.o)
 .debug_ranges  0x00002810       0x50 c:/px4/workspace/PX4Firmware/Build/px4io-v1_default.build/nuttx-export/libs\libnuttx.a(fs-fs_files.o)
 .debug_ranges  0x00002860       0x10 c:/px4/workspace/PX4Firmware/Build/px4io-v1_default.build/nuttx-export/libs\libnuttx.a(fs-fs_inodeaddref.o)
 .debug_ranges  0x00002870       0x10 c:/px4/workspace/PX4Firmware/Build/px4io-v1_default.build/nuttx-export/libs\libnuttx.a(fs-fs_inodefind.o)
 .debug_ranges  0x00002880       0x10 c:/px4/workspace/PX4Firmware/Build/px4io-v1_default.build/nuttx-export/libs\libnuttx.a(fs-fs_inoderelease.o)
 .debug_ranges  0x00002890       0x10 c:/px4/workspace/PX4Firmware/Build/px4io-v1_default.build/nuttx-export/libs\libnuttx.a(fs-fs_registerdriver.o)
 .debug_ranges  0x000028a0       0x10 c:/px4/workspace/PX4Firmware/Build/px4io-v1_default.build/nuttx-export/libs\libnuttx.a(fs-fs_write.o)
 .debug_ranges  0x000028b0       0x18 c:/px4/workspace/PX4Firmware/Build/px4io-v1_default.build/nuttx-export/libs\libnuttx.a(sched-group_create.o)
 .debug_ranges  0x000028c8       0x10 c:/px4/workspace/PX4Firmware/Build/px4io-v1_default.build/nuttx-export/libs\libnuttx.a(sched-group_leave.o)
 .debug_ranges  0x000028d8       0x10 c:/px4/workspace/PX4Firmware/Build/px4io-v1_default.build/nuttx-export/libs\libnuttx.a(sched-group_setupidlefiles.o)
 .debug_ranges  0x000028e8       0x10 c:/px4/workspace/PX4Firmware/Build/px4io-v1_default.build/nuttx-export/libs\libnuttx.a(sched-os_bringup.o)
 .debug_ranges  0x000028f8       0x10 c:/px4/workspace/PX4Firmware/Build/px4io-v1_default.build/nuttx-export/libs\libnuttx.a(sched-sched_addblocked.o)
 .debug_ranges  0x00002908       0x10 c:/px4/workspace/PX4Firmware/Build/px4io-v1_default.build/nuttx-export/libs\libnuttx.a(sched-sched_addprioritized.o)
 .debug_ranges  0x00002918       0x10 c:/px4/workspace/PX4Firmware/Build/px4io-v1_default.build/nuttx-export/libs\libnuttx.a(sched-sched_addreadytorun.o)
 .debug_ranges  0x00002928       0x10 c:/px4/workspace/PX4Firmware/Build/px4io-v1_default.build/nuttx-export/libs\libnuttx.a(sched-sched_free.o)
 .debug_ranges  0x00002938       0x10 c:/px4/workspace/PX4Firmware/Build/px4io-v1_default.build/nuttx-export/libs\libnuttx.a(sched-sched_mergepending.o)
 .debug_ranges  0x00002948       0x10 c:/px4/workspace/PX4Firmware/Build/px4io-v1_default.build/nuttx-export/libs\libnuttx.a(sched-sched_removeblocked.o)
 .debug_ranges  0x00002958       0x10 c:/px4/workspace/PX4Firmware/Build/px4io-v1_default.build/nuttx-export/libs\libnuttx.a(sched-sched_removereadytorun.o)
 .debug_ranges  0x00002968       0x10 c:/px4/workspace/PX4Firmware/Build/px4io-v1_default.build/nuttx-export/libs\libnuttx.a(sched-sem_destroy.o)
 .debug_ranges  0x00002978       0x20 c:/px4/workspace/PX4Firmware/Build/px4io-v1_default.build/nuttx-export/libs\libnuttx.a(sched-task_create.o)
 .debug_ranges  0x00002998       0x10 c:/px4/workspace/PX4Firmware/Build/px4io-v1_default.build/nuttx-export/libs\libnuttx.a(sched-task_exit.o)
 .debug_ranges  0x000029a8       0x90 c:/px4/workspace/PX4Firmware/Build/px4io-v1_default.build/nuttx-export/libs\libnuttx.a(sched-task_setup.o)
 .debug_ranges  0x00002a38       0x10 c:/px4/workspace/PX4Firmware/Build/px4io-v1_default.build/nuttx-export/libs\libnuttx.a(sched-task_start.o)
 .debug_ranges  0x00002a48       0x10 c:/px4/workspace/PX4Firmware/Build/px4io-v1_default.build/nuttx-export/libs\libnuttx.a(sched-task_terminate.o)
 .debug_ranges  0x00002a58       0x10 c:/px4/workspace/PX4Firmware/Build/px4io-v1_default.build/nuttx-export/libs\libnuttx.a(c-dq_addlast.o)
 .debug_ranges  0x00002a68       0x10 c:/px4/workspace/PX4Firmware/Build/px4io-v1_default.build/nuttx-export/libs\libnuttx.a(c-dq_rem.o)
 .debug_ranges  0x00002a78       0x10 c:/px4/workspace/PX4Firmware/Build/px4io-v1_default.build/nuttx-export/libs\libnuttx.a(c-lib_strdup.o)
 .debug_ranges  0x00002a88       0x18 c:/px4/workspace/PX4Firmware/Build/px4io-v1_default.build/nuttx-export/libs\libnuttx.a(arch-stm32_timerisr.o)
 .debug_ranges  0x00002aa0       0x10 c:/px4/workspace/PX4Firmware/Build/px4io-v1_default.build/nuttx-export/libs\libnuttx.a(arch-up_createstack.o)
 .debug_ranges  0x00002ab0       0x10 c:/px4/workspace/PX4Firmware/Build/px4io-v1_default.build/nuttx-export/libs\libnuttx.a(arch-up_doirq.o)
 .debug_ranges  0x00002ac0       0x10 c:/px4/workspace/PX4Firmware/Build/px4io-v1_default.build/nuttx-export/libs\libnuttx.a(arch-up_releasestack.o)
 .debug_ranges  0x00002ad0       0x10 c:/px4/workspace/PX4Firmware/Build/px4io-v1_default.build/nuttx-export/libs\libnuttx.a(fs-fs_close.o)
 .debug_ranges  0x00002ae0       0x10 c:/px4/workspace/PX4Firmware/Build/px4io-v1_default.build/nuttx-export/libs\libnuttx.a(fs-fs_filedup2.o)
 .debug_ranges  0x00002af0       0x90 c:/px4/workspace/PX4Firmware/Build/px4io-v1_default.build/nuttx-export/libs\libnuttx.a(fs-fs_inode.o)
 .debug_ranges  0x00002b80       0x80 c:/px4/workspace/PX4Firmware/Build/px4io-v1_default.build/nuttx-export/libs\libnuttx.a(fs-fs_inodereserve.o)
 .debug_ranges  0x00002c00       0x10 c:/px4/workspace/PX4Firmware/Build/px4io-v1_default.build/nuttx-export/libs\libnuttx.a(sched-group_setuptaskfiles.o)
 .debug_ranges  0x00002c10       0x10 c:/px4/workspace/PX4Firmware/Build/px4io-v1_default.build/nuttx-export/libs\libnuttx.a(sched-irq_dispatch.o)
 .debug_ranges  0x00002c20       0x10 c:/px4/workspace/PX4Firmware/Build/px4io-v1_default.build/nuttx-export/libs\libnuttx.a(sched-sched_gettcb.o)
 .debug_ranges  0x00002c30       0x10 c:/px4/workspace/PX4Firmware/Build/px4io-v1_default.build/nuttx-export/libs\libnuttx.a(sched-sched_lock.o)
 .debug_ranges  0x00002c40       0x10 c:/px4/workspace/PX4Firmware/Build/px4io-v1_default.build/nuttx-export/libs\libnuttx.a(sched-sched_processtimer.o)
 .debug_ranges  0x00002c50       0x10 c:/px4/workspace/PX4Firmware/Build/px4io-v1_default.build/nuttx-export/libs\libnuttx.a(sched-sched_releasetcb.o)
 .debug_ranges  0x00002c60       0x10 c:/px4/workspace/PX4Firmware/Build/px4io-v1_default.build/nuttx-export/libs\libnuttx.a(sched-sched_unlock.o)
 .debug_ranges  0x00002c70       0x10 c:/px4/workspace/PX4Firmware/Build/px4io-v1_default.build/nuttx-export/libs\libnuttx.a(sched-task_activate.o)
 .debug_ranges  0x00002c80       0x28 c:/px4/workspace/PX4Firmware/Build/px4io-v1_default.build/nuttx-export/libs\libnuttx.a(arch-up_releasepending.o)
