Archive member included because of file (symbol)

c:/px4/workspace/PX4Firmware/Build/px4io-v2_default.build/nuttx-export/libs\libnuttx.a(sched-irq_attach.o)
                              c:/px4/workspace/PX4Firmware/Build/px4io-v2_default.build/c/px4/workspace/PX4Firmware/src/drivers/stm32/module.pre.o (irq_attach)
c:/px4/workspace/PX4Firmware/Build/px4io-v2_default.build/nuttx-export/libs\libnuttx.a(sched-irq_initialize.o)
                              c:/px4/workspace/PX4Firmware/Build/px4io-v2_default.build/nuttx-export/libs\libnuttx.a(sched-irq_attach.o) (g_irqvector)
c:/px4/workspace/PX4Firmware/Build/px4io-v2_default.build/nuttx-export/libs\libnuttx.a(sched-irq_unexpectedisr.o)
                              c:/px4/workspace/PX4Firmware/Build/px4io-v2_default.build/nuttx-export/libs\libnuttx.a(sched-irq_attach.o) (irq_unexpected_isr)
c:/px4/workspace/PX4Firmware/Build/px4io-v2_default.build/nuttx-export/libs\libnuttx.a(c-lib_abort.o)
                              (abort)
c:/px4/workspace/PX4Firmware/Build/px4io-v2_default.build/nuttx-export/libs\libnuttx.a(c-lib_cfsetspeed.o)
                              c:/px4/workspace/PX4Firmware/Build/px4io-v2_default.build/c/px4/workspace/PX4Firmware/src/modules/px4iofirmware/module.pre.o (cfsetspeed)
c:/px4/workspace/PX4Firmware/Build/px4io-v2_default.build/nuttx-export/libs\libnuttx.a(c-lib_crc32.o)
                              c:/px4/workspace/PX4Firmware/Build/px4io-v2_default.build/c/px4/workspace/PX4Firmware/src/modules/px4iofirmware/module.pre.o (crc32part)
c:/px4/workspace/PX4Firmware/Build/px4io-v2_default.build/nuttx-export/libs\libnuttx.a(c-lib_lowsyslog.o)
                              c:/px4/workspace/PX4Firmware/Build/px4io-v2_default.build/c/px4/workspace/PX4Firmware/src/modules/px4iofirmware/module.pre.o (lowsyslog)
c:/px4/workspace/PX4Firmware/Build/px4io-v2_default.build/nuttx-export/libs\libnuttx.a(c-lib_memchr.o)
                              c:/px4/workspace/PX4Firmware/Build/px4io-v2_default.build/c/px4/workspace/PX4Firmware/src/modules/px4iofirmware/module.pre.o (memchr)
c:/px4/workspace/PX4Firmware/Build/px4io-v2_default.build/nuttx-export/libs\libnuttx.a(c-lib_memcpy.o)
                              c:/px4/workspace/PX4Firmware/Build/px4io-v2_default.build/c/px4/workspace/PX4Firmware/src/modules/px4iofirmware/module.pre.o (memcpy)
c:/px4/workspace/PX4Firmware/Build/px4io-v2_default.build/nuttx-export/libs\libnuttx.a(c-lib_memset.o)
                              c:/px4/workspace/PX4Firmware/Build/px4io-v2_default.build/c/px4/workspace/PX4Firmware/src/drivers/stm32/module.pre.o (memset)
c:/px4/workspace/PX4Firmware/Build/px4io-v2_default.build/nuttx-export/libs\libnuttx.a(c-lib_printf.o)
                              c:/px4/workspace/PX4Firmware/Build/px4io-v2_default.build/c/px4/workspace/PX4Firmware/src/modules/px4iofirmware/module.pre.o (printf)
c:/px4/workspace/PX4Firmware/Build/px4io-v2_default.build/nuttx-export/libs\libnuttx.a(c-lib_sscanf.o)
                              c:/px4/workspace/PX4Firmware/Build/px4io-v2_default.build/c/px4/workspace/PX4Firmware/src/modules/px4iofirmware/module.pre.o (sscanf)
c:/px4/workspace/PX4Firmware/Build/px4io-v2_default.build/nuttx-export/libs\libnuttx.a(c-lib_strchr.o)
                              c:/px4/workspace/PX4Firmware/Build/px4io-v2_default.build/nuttx-export/libs\libnuttx.a(c-lib_sscanf.o) (strchr)
c:/px4/workspace/PX4Firmware/Build/px4io-v2_default.build/nuttx-export/libs\libnuttx.a(c-lib_strcmp.o)
                              c:/px4/workspace/PX4Firmware/Build/px4io-v2_default.build/c/px4/workspace/PX4Firmware/src/modules/px4iofirmware/module.pre.o (strcmp)
c:/px4/workspace/PX4Firmware/Build/px4io-v2_default.build/nuttx-export/libs\libnuttx.a(c-lib_strcspn.o)
                              c:/px4/workspace/PX4Firmware/Build/px4io-v2_default.build/nuttx-export/libs\libnuttx.a(c-lib_sscanf.o) (strcspn)
c:/px4/workspace/PX4Firmware/Build/px4io-v2_default.build/nuttx-export/libs\libnuttx.a(c-lib_strncpy.o)
                              c:/px4/workspace/PX4Firmware/Build/px4io-v2_default.build/nuttx-export/libs\libnuttx.a(c-lib_sscanf.o) (strncpy)
c:/px4/workspace/PX4Firmware/Build/px4io-v2_default.build/nuttx-export/libs\libnuttx.a(c-lib_strtol.o)
                              c:/px4/workspace/PX4Firmware/Build/px4io-v2_default.build/nuttx-export/libs\libnuttx.a(c-lib_sscanf.o) (strtol)
c:/px4/workspace/PX4Firmware/Build/px4io-v2_default.build/nuttx-export/libs\libnuttx.a(c-lib_strtoul.o)
                              c:/px4/workspace/PX4Firmware/Build/px4io-v2_default.build/nuttx-export/libs\libnuttx.a(c-lib_strtol.o) (strtoul)
c:/px4/workspace/PX4Firmware/Build/px4io-v2_default.build/nuttx-export/libs\libnuttx.a(c-lib_syslog.o)
                              c:/px4/workspace/PX4Firmware/Build/px4io-v2_default.build/nuttx-export/libs\libnuttx.a(c-lib_printf.o) (vsyslog)
c:/px4/workspace/PX4Firmware/Build/px4io-v2_default.build/nuttx-export/libs\libnuttx.a(c-lib_tcgetattr.o)
                              c:/px4/workspace/PX4Firmware/Build/px4io-v2_default.build/c/px4/workspace/PX4Firmware/src/modules/px4iofirmware/module.pre.o (tcgetattr)
c:/px4/workspace/PX4Firmware/Build/px4io-v2_default.build/nuttx-export/libs\libnuttx.a(c-lib_tcsetattr.o)
                              c:/px4/workspace/PX4Firmware/Build/px4io-v2_default.build/c/px4/workspace/PX4Firmware/src/modules/px4iofirmware/module.pre.o (tcsetattr)
c:/px4/workspace/PX4Firmware/Build/px4io-v2_default.build/nuttx-export/libs\libnuttx.a(c-lib_vsnprintf.o)
                              c:/px4/workspace/PX4Firmware/Build/px4io-v2_default.build/c/px4/workspace/PX4Firmware/src/modules/px4iofirmware/module.pre.o (vsnprintf)
c:/px4/workspace/PX4Firmware/Build/px4io-v2_default.build/nuttx-export/libs\libnuttx.a(c-sq_addafter.o)
                              c:/px4/workspace/PX4Firmware/Build/px4io-v2_default.build/c/px4/workspace/PX4Firmware/src/drivers/stm32/module.pre.o (sq_addafter)
c:/px4/workspace/PX4Firmware/Build/px4io-v2_default.build/nuttx-export/libs\libnuttx.a(c-sq_addfirst.o)
                              c:/px4/workspace/PX4Firmware/Build/px4io-v2_default.build/c/px4/workspace/PX4Firmware/src/drivers/stm32/module.pre.o (sq_addfirst)
c:/px4/workspace/PX4Firmware/Build/px4io-v2_default.build/nuttx-export/libs\libnuttx.a(c-sq_addlast.o)
                              c:/px4/workspace/PX4Firmware/Build/px4io-v2_default.build/nuttx-export/libs\libnuttx.a(c-sq_addafter.o) (sq_addlast)
c:/px4/workspace/PX4Firmware/Build/px4io-v2_default.build/nuttx-export/libs\libnuttx.a(c-sq_rem.o)
                              c:/px4/workspace/PX4Firmware/Build/px4io-v2_default.build/c/px4/workspace/PX4Firmware/src/drivers/stm32/module.pre.o (sq_rem)
c:/px4/workspace/PX4Firmware/Build/px4io-v2_default.build/nuttx-export/libs\libnuttx.a(c-sq_remafter.o)
                              c:/px4/workspace/PX4Firmware/Build/px4io-v2_default.build/nuttx-export/libs\libnuttx.a(c-sq_rem.o) (sq_remafter)
c:/px4/workspace/PX4Firmware/Build/px4io-v2_default.build/nuttx-export/libs\libnuttx.a(mm-mm_calloc.o)
                              c:/px4/workspace/PX4Firmware/Build/px4io-v2_default.build/c/px4/workspace/PX4Firmware/src/modules/px4iofirmware/module.pre.o (calloc)
c:/px4/workspace/PX4Firmware/Build/px4io-v2_default.build/nuttx-export/libs\libnuttx.a(mm-mm_free.o)
                              c:/px4/workspace/PX4Firmware/Build/px4io-v2_default.build/c/px4/workspace/PX4Firmware/src/modules/px4iofirmware/module.pre.o (free)
c:/px4/workspace/PX4Firmware/Build/px4io-v2_default.build/nuttx-export/libs\libnuttx.a(mm-mm_mallinfo.o)
                              c:/px4/workspace/PX4Firmware/Build/px4io-v2_default.build/c/px4/workspace/PX4Firmware/src/modules/px4iofirmware/module.pre.o (mallinfo)
c:/px4/workspace/PX4Firmware/Build/px4io-v2_default.build/nuttx-export/libs\libnuttx.a(mm-mm_malloc.o)
                              c:/px4/workspace/PX4Firmware/Build/px4io-v2_default.build/c/px4/workspace/PX4Firmware/src/modules/px4iofirmware/module.pre.o (malloc)
c:/px4/workspace/PX4Firmware/Build/px4io-v2_default.build/nuttx-export/libs\libnuttx.a(mm-mm_sem.o)
                              c:/px4/workspace/PX4Firmware/Build/px4io-v2_default.build/nuttx-export/libs\libnuttx.a(mm-mm_free.o) (mm_takesemaphore)
c:/px4/workspace/PX4Firmware/Build/px4io-v2_default.build/nuttx-export/libs\libnuttx.a(mm-mm_size2ndx.o)
                              c:/px4/workspace/PX4Firmware/Build/px4io-v2_default.build/nuttx-export/libs\libnuttx.a(mm-mm_malloc.o) (mm_size2ndx)
c:/px4/workspace/PX4Firmware/Build/px4io-v2_default.build/nuttx-export/libs\libnuttx.a(mm-mm_user.o)
                              c:/px4/workspace/PX4Firmware/Build/px4io-v2_default.build/nuttx-export/libs\libnuttx.a(mm-mm_free.o) (g_mmheap)
c:/px4/workspace/PX4Firmware/Build/px4io-v2_default.build/nuttx-export/libs\libnuttx.a(mm-mm_zalloc.o)
                              c:/px4/workspace/PX4Firmware/Build/px4io-v2_default.build/nuttx-export/libs\libnuttx.a(mm-mm_calloc.o) (zalloc)
c:/px4/workspace/PX4Firmware/Build/px4io-v2_default.build/nuttx-export/libs\libnuttx.a(arch-stm32_dma.o)
                              c:/px4/workspace/PX4Firmware/Build/px4io-v2_default.build/c/px4/workspace/PX4Firmware/src/modules/px4iofirmware/module.pre.o (stm32_dmachannel)
c:/px4/workspace/PX4Firmware/Build/px4io-v2_default.build/nuttx-export/libs\libnuttx.a(arch-stm32_gpio.o)
                              c:/px4/workspace/PX4Firmware/Build/px4io-v2_default.build/c/px4/workspace/PX4Firmware/src/drivers/boards/px4io-v2/module.pre.o (stm32_configgpio)
c:/px4/workspace/PX4Firmware/Build/px4io-v2_default.build/nuttx-export/libs\libnuttx.a(arch-stm32_irq.o)
                              c:/px4/workspace/PX4Firmware/Build/px4io-v2_default.build/nuttx-export/libs\libnuttx.a(sched-irq_attach.o) (up_disable_irq)
c:/px4/workspace/PX4Firmware/Build/px4io-v2_default.build/nuttx-export/libs\libnuttx.a(arch-stm32_serial.o)
                              c:/px4/workspace/PX4Firmware/Build/px4io-v2_default.build/c/px4/workspace/PX4Firmware/src/modules/px4iofirmware/module.pre.o (stm32_serial_dma_poll)
c:/px4/workspace/PX4Firmware/Build/px4io-v2_default.build/nuttx-export/libs\libnuttx.a(arch-stm32_start.o)
                              (__start)
c:/px4/workspace/PX4Firmware/Build/px4io-v2_default.build/nuttx-export/libs\libnuttx.a(arch-up_assert.o)
                              c:/px4/workspace/PX4Firmware/Build/px4io-v2_default.build/nuttx-export/libs\libnuttx.a(sched-irq_unexpectedisr.o) (up_assert)
c:/px4/workspace/PX4Firmware/Build/px4io-v2_default.build/nuttx-export/libs\libnuttx.a(arch-up_hardfault.o)
                              c:/px4/workspace/PX4Firmware/Build/px4io-v2_default.build/nuttx-export/libs\libnuttx.a(arch-stm32_irq.o) (up_hardfault)
c:/px4/workspace/PX4Firmware/Build/px4io-v2_default.build/nuttx-export/libs\libnuttx.a(arch-up_modifyreg32.o)
                              c:/px4/workspace/PX4Firmware/Build/px4io-v2_default.build/c/px4/workspace/PX4Firmware/src/drivers/stm32/module.pre.o (modifyreg32)
c:/px4/workspace/PX4Firmware/Build/px4io-v2_default.build/nuttx-export/libs\libnuttx.a(arch-up_svcall.o)
                              c:/px4/workspace/PX4Firmware/Build/px4io-v2_default.build/nuttx-export/libs\libnuttx.a(arch-stm32_irq.o) (up_svcall)
c:/px4/workspace/PX4Firmware/Build/px4io-v2_default.build/nuttx-export/libs\libnuttx.a(arch-up_systemreset.o)
                              c:/px4/workspace/PX4Firmware/Build/px4io-v2_default.build/c/px4/workspace/PX4Firmware/src/modules/px4iofirmware/module.pre.o (up_systemreset)
c:/px4/workspace/PX4Firmware/Build/px4io-v2_default.build/nuttx-export/libs\libnuttx.a(arch-up_udelay.o)
                              c:/px4/workspace/PX4Firmware/Build/px4io-v2_default.build/c/px4/workspace/PX4Firmware/src/modules/px4iofirmware/module.pre.o (up_udelay)
c:/px4/workspace/PX4Firmware/Build/px4io-v2_default.build/nuttx-export/libs\libnuttx.a(arch-up_vectors.o)
                              (_vectors)
c:/px4/workspace/PX4Firmware/Build/px4io-v2_default.build/nuttx-export/libs\libnuttx.a(cxx-libxx_cxa_atexit.o)
                              c:/px4/workspace/PX4Firmware/Build/px4io-v2_default.build/c/px4/workspace/PX4Firmware/src/modules/px4iofirmware/module.pre.o (__dso_handle)
c:/px4/workspace/PX4Firmware/Build/px4io-v2_default.build/nuttx-export/libs\libnuttx.a(cxx-libxx_cxapurevirtual.o)
                              c:/px4/workspace/PX4Firmware/Build/px4io-v2_default.build/c/px4/workspace/PX4Firmware/src/modules/px4iofirmware/module.pre.o (__cxa_pure_virtual)
c:/px4/workspace/PX4Firmware/Build/px4io-v2_default.build/nuttx-export/libs\libnuttx.a(cxx-libxx_delete.o)
                              c:/px4/workspace/PX4Firmware/Build/px4io-v2_default.build/c/px4/workspace/PX4Firmware/src/modules/px4iofirmware/module.pre.o (operator delete(void*))
c:/px4/workspace/PX4Firmware/Build/px4io-v2_default.build/nuttx-export/libs\libnuttx.a(cxx-libxx_eabi_atexit.o)
                              c:/px4/workspace/PX4Firmware/Build/px4io-v2_default.build/c/px4/workspace/PX4Firmware/src/modules/px4iofirmware/module.pre.o (__aeabi_atexit)
c:/px4/workspace/PX4Firmware/Build/px4io-v2_default.build/nuttx-export/libs\libnuttx.a(cxx-libxx_new.o)
                              c:/px4/workspace/PX4Firmware/Build/px4io-v2_default.build/c/px4/workspace/PX4Firmware/src/modules/px4iofirmware/module.pre.o (operator new(unsigned int))
c:/px4/workspace/PX4Firmware/Build/px4io-v2_default.build/nuttx-export/libs\libnuttx.a(fs-fs_ioctl.o)
                              c:/px4/workspace/PX4Firmware/Build/px4io-v2_default.build/nuttx-export/libs\libnuttx.a(c-lib_tcgetattr.o) (ioctl)
c:/px4/workspace/PX4Firmware/Build/px4io-v2_default.build/nuttx-export/libs\libnuttx.a(fs-fs_open.o)
                              c:/px4/workspace/PX4Firmware/Build/px4io-v2_default.build/c/px4/workspace/PX4Firmware/src/modules/px4iofirmware/module.pre.o (open)
c:/px4/workspace/PX4Firmware/Build/px4io-v2_default.build/nuttx-export/libs\libnuttx.a(fs-fs_read.o)
                              c:/px4/workspace/PX4Firmware/Build/px4io-v2_default.build/c/px4/workspace/PX4Firmware/src/modules/px4iofirmware/module.pre.o (read)
c:/px4/workspace/PX4Firmware/Build/px4io-v2_default.build/nuttx-export/libs\libnuttx.a(fs-fs_write.o)
                              c:/px4/workspace/PX4Firmware/Build/px4io-v2_default.build/c/px4/workspace/PX4Firmware/src/modules/px4iofirmware/module.pre.o (write)
c:/px4/workspace/PX4Firmware/Build/px4io-v2_default.build/nuttx-export/libs\libnuttx.a(drivers-serial.o)
                              c:/px4/workspace/PX4Firmware/Build/px4io-v2_default.build/nuttx-export/libs\libnuttx.a(arch-stm32_serial.o) (uart_register)
c:/px4/workspace/PX4Firmware/Build/px4io-v2_default.build/nuttx-export/libs\libnuttx.a(drivers-serialirq.o)
                              c:/px4/workspace/PX4Firmware/Build/px4io-v2_default.build/nuttx-export/libs\libnuttx.a(arch-stm32_serial.o) (uart_xmitchars)
c:/px4/workspace/PX4Firmware/Build/px4io-v2_default.build/nuttx-export/libs\libnuttx.a(sched-errno_getptr.o)
                              c:/px4/workspace/PX4Firmware/Build/px4io-v2_default.build/nuttx-export/libs\libnuttx.a(mm-mm_sem.o) (get_errno_ptr)
c:/px4/workspace/PX4Firmware/Build/px4io-v2_default.build/nuttx-export/libs\libnuttx.a(sched-exit.o)
                              c:/px4/workspace/PX4Firmware/Build/px4io-v2_default.build/nuttx-export/libs\libnuttx.a(c-lib_abort.o) (exit)
c:/px4/workspace/PX4Firmware/Build/px4io-v2_default.build/nuttx-export/libs\libnuttx.a(sched-getpid.o)
                              c:/px4/workspace/PX4Firmware/Build/px4io-v2_default.build/nuttx-export/libs\libnuttx.a(mm-mm_sem.o) (getpid)
c:/px4/workspace/PX4Firmware/Build/px4io-v2_default.build/nuttx-export/libs\libnuttx.a(sched-os_start.o)
                              c:/px4/workspace/PX4Firmware/Build/px4io-v2_default.build/nuttx-export/libs\libnuttx.a(arch-stm32_start.o) (os_start)
c:/px4/workspace/PX4Firmware/Build/px4io-v2_default.build/nuttx-export/libs\libnuttx.a(sched-sched_garbage.o)
                              c:/px4/workspace/PX4Firmware/Build/px4io-v2_default.build/nuttx-export/libs\libnuttx.a(sched-os_start.o) (sched_garbagecollection)
c:/px4/workspace/PX4Firmware/Build/px4io-v2_default.build/nuttx-export/libs\libnuttx.a(sched-sched_getfiles.o)
                              c:/px4/workspace/PX4Firmware/Build/px4io-v2_default.build/nuttx-export/libs\libnuttx.a(fs-fs_ioctl.o) (sched_getfiles)
c:/px4/workspace/PX4Firmware/Build/px4io-v2_default.build/nuttx-export/libs\libnuttx.a(sched-sem_post.o)
                              c:/px4/workspace/PX4Firmware/Build/px4io-v2_default.build/nuttx-export/libs\libnuttx.a(mm-mm_sem.o) (sem_post)
c:/px4/workspace/PX4Firmware/Build/px4io-v2_default.build/nuttx-export/libs\libnuttx.a(sched-sem_trywait.o)
                              c:/px4/workspace/PX4Firmware/Build/px4io-v2_default.build/nuttx-export/libs\libnuttx.a(mm-mm_sem.o) (sem_trywait)
c:/px4/workspace/PX4Firmware/Build/px4io-v2_default.build/nuttx-export/libs\libnuttx.a(sched-sem_wait.o)
                              c:/px4/workspace/PX4Firmware/Build/px4io-v2_default.build/nuttx-export/libs\libnuttx.a(mm-mm_sem.o) (sem_wait)
c:/px4/workspace/PX4Firmware/Build/px4io-v2_default.build/nuttx-export/libs\libnuttx.a(sched-task_exithook.o)
                              c:/px4/workspace/PX4Firmware/Build/px4io-v2_default.build/nuttx-export/libs\libnuttx.a(sched-exit.o) (task_exithook)
c:/px4/workspace/PX4Firmware/Build/px4io-v2_default.build/nuttx-export/libs\libnuttx.a(sched-task_recover.o)
                              c:/px4/workspace/PX4Firmware/Build/px4io-v2_default.build/nuttx-export/libs\libnuttx.a(sched-task_exithook.o) (task_recover)
c:/px4/workspace/PX4Firmware/Build/px4io-v2_default.build/nuttx-export/libs\libnuttx.a(sched-wd_cancel.o)
                              c:/px4/workspace/PX4Firmware/Build/px4io-v2_default.build/nuttx-export/libs\libnuttx.a(sched-task_recover.o) (wd_cancel)
c:/px4/workspace/PX4Firmware/Build/px4io-v2_default.build/nuttx-export/libs\libnuttx.a(sched-wd_delete.o)
                              c:/px4/workspace/PX4Firmware/Build/px4io-v2_default.build/nuttx-export/libs\libnuttx.a(sched-task_recover.o) (wd_delete)
c:/px4/workspace/PX4Firmware/Build/px4io-v2_default.build/nuttx-export/libs\libnuttx.a(sched-wd_initialize.o)
                              c:/px4/workspace/PX4Firmware/Build/px4io-v2_default.build/nuttx-export/libs\libnuttx.a(sched-wd_cancel.o) (g_wdactivelist)
c:/px4/workspace/PX4Firmware/Build/px4io-v2_default.build/nuttx-export/libs\libnuttx.a(c-dq_addfirst.o)
                              c:/px4/workspace/PX4Firmware/Build/px4io-v2_default.build/nuttx-export/libs\libnuttx.a(sched-os_start.o) (dq_addfirst)
c:/px4/workspace/PX4Firmware/Build/px4io-v2_default.build/nuttx-export/libs\libnuttx.a(c-lib_cfgetspeed.o)
                              c:/px4/workspace/PX4Firmware/Build/px4io-v2_default.build/nuttx-export/libs\libnuttx.a(arch-stm32_serial.o) (cfgetspeed)
c:/px4/workspace/PX4Firmware/Build/px4io-v2_default.build/nuttx-export/libs\libnuttx.a(c-lib_checkbase.o)
                              c:/px4/workspace/PX4Firmware/Build/px4io-v2_default.build/nuttx-export/libs\libnuttx.a(c-lib_strtoul.o) (lib_checkbase)
c:/px4/workspace/PX4Firmware/Build/px4io-v2_default.build/nuttx-export/libs\libnuttx.a(c-lib_isbasedigit.o)
                              c:/px4/workspace/PX4Firmware/Build/px4io-v2_default.build/nuttx-export/libs\libnuttx.a(c-lib_strtoul.o) (lib_isbasedigit)
c:/px4/workspace/PX4Firmware/Build/px4io-v2_default.build/nuttx-export/libs\libnuttx.a(c-lib_libvsprintf.o)
                              c:/px4/workspace/PX4Firmware/Build/px4io-v2_default.build/nuttx-export/libs\libnuttx.a(c-lib_lowsyslog.o) (lib_vsprintf)
c:/px4/workspace/PX4Firmware/Build/px4io-v2_default.build/nuttx-export/libs\libnuttx.a(c-lib_lowoutstream.o)
                              c:/px4/workspace/PX4Firmware/Build/px4io-v2_default.build/nuttx-export/libs\libnuttx.a(c-lib_lowsyslog.o) (lib_lowoutstream)
c:/px4/workspace/PX4Firmware/Build/px4io-v2_default.build/nuttx-export/libs\libnuttx.a(c-lib_memoutstream.o)
                              c:/px4/workspace/PX4Firmware/Build/px4io-v2_default.build/nuttx-export/libs\libnuttx.a(c-lib_vsnprintf.o) (lib_memoutstream)
c:/px4/workspace/PX4Firmware/Build/px4io-v2_default.build/nuttx-export/libs\libnuttx.a(c-lib_nulloutstream.o)
                              c:/px4/workspace/PX4Firmware/Build/px4io-v2_default.build/nuttx-export/libs\libnuttx.a(c-lib_libvsprintf.o) (lib_nulloutstream)
c:/px4/workspace/PX4Firmware/Build/px4io-v2_default.build/nuttx-export/libs\libnuttx.a(c-lib_rawoutstream.o)
                              c:/px4/workspace/PX4Firmware/Build/px4io-v2_default.build/nuttx-export/libs\libnuttx.a(c-lib_syslog.o) (lib_rawoutstream)
c:/px4/workspace/PX4Firmware/Build/px4io-v2_default.build/nuttx-export/libs\libnuttx.a(c-lib_skipspace.o)
                              c:/px4/workspace/PX4Firmware/Build/px4io-v2_default.build/nuttx-export/libs\libnuttx.a(c-lib_strtol.o) (lib_skipspace)
c:/px4/workspace/PX4Firmware/Build/px4io-v2_default.build/nuttx-export/libs\libnuttx.a(c-lib_strcpy.o)
                              c:/px4/workspace/PX4Firmware/Build/px4io-v2_default.build/nuttx-export/libs\libnuttx.a(arch-stm32_serial.o) (strcpy)
c:/px4/workspace/PX4Firmware/Build/px4io-v2_default.build/nuttx-export/libs\libnuttx.a(c-lib_strlen.o)
                              c:/px4/workspace/PX4Firmware/Build/px4io-v2_default.build/nuttx-export/libs\libnuttx.a(c-lib_libvsprintf.o) (strlen)
c:/px4/workspace/PX4Firmware/Build/px4io-v2_default.build/nuttx-export/libs\libnuttx.a(c-sem_init.o)
                              c:/px4/workspace/PX4Firmware/Build/px4io-v2_default.build/nuttx-export/libs\libnuttx.a(mm-mm_sem.o) (sem_init)
c:/px4/workspace/PX4Firmware/Build/px4io-v2_default.build/nuttx-export/libs\libnuttx.a(c-sq_remfirst.o)
                              c:/px4/workspace/PX4Firmware/Build/px4io-v2_default.build/nuttx-export/libs\libnuttx.a(sched-sched_garbage.o) (sq_remfirst)
c:/px4/workspace/PX4Firmware/Build/px4io-v2_default.build/nuttx-export/libs\libnuttx.a(mm-mm_addfreechunk.o)
                              c:/px4/workspace/PX4Firmware/Build/px4io-v2_default.build/nuttx-export/libs\libnuttx.a(mm-mm_free.o) (mm_addfreechunk)
c:/px4/workspace/PX4Firmware/Build/px4io-v2_default.build/nuttx-export/libs\libnuttx.a(mm-mm_initialize.o)
                              c:/px4/workspace/PX4Firmware/Build/px4io-v2_default.build/nuttx-export/libs\libnuttx.a(mm-mm_user.o) (mm_addregion)
c:/px4/workspace/PX4Firmware/Build/px4io-v2_default.build/nuttx-export/libs\libnuttx.a(arch-stm32_allocateheap.o)
                              c:/px4/workspace/PX4Firmware/Build/px4io-v2_default.build/nuttx-export/libs\libnuttx.a(sched-os_start.o) (up_allocate_heap)
c:/px4/workspace/PX4Firmware/Build/px4io-v2_default.build/nuttx-export/libs\libnuttx.a(arch-stm32_idle.o)
                              c:/px4/workspace/PX4Firmware/Build/px4io-v2_default.build/nuttx-export/libs\libnuttx.a(sched-os_start.o) (up_idle)
c:/px4/workspace/PX4Firmware/Build/px4io-v2_default.build/nuttx-export/libs\libnuttx.a(arch-stm32_lowputc.o)
                              c:/px4/workspace/PX4Firmware/Build/px4io-v2_default.build/nuttx-export/libs\libnuttx.a(arch-stm32_serial.o) (up_lowputc)
c:/px4/workspace/PX4Firmware/Build/px4io-v2_default.build/nuttx-export/libs\libnuttx.a(arch-stm32_rcc.o)
                              c:/px4/workspace/PX4Firmware/Build/px4io-v2_default.build/nuttx-export/libs\libnuttx.a(arch-stm32_start.o) (stm32_clockconfig)
c:/px4/workspace/PX4Firmware/Build/px4io-v2_default.build/nuttx-export/libs\libnuttx.a(arch-stm32_vectors.o)
                              c:/px4/workspace/PX4Firmware/Build/px4io-v2_default.build/nuttx-export/libs\libnuttx.a(arch-up_assert.o) (g_idle_topstack)
c:/px4/workspace/PX4Firmware/Build/px4io-v2_default.build/nuttx-export/libs\libnuttx.a(arch-up_blocktask.o)
                              c:/px4/workspace/PX4Firmware/Build/px4io-v2_default.build/nuttx-export/libs\libnuttx.a(sched-sem_wait.o) (up_block_task)
c:/px4/workspace/PX4Firmware/Build/px4io-v2_default.build/nuttx-export/libs\libnuttx.a(arch-up_copystate.o)
                              c:/px4/workspace/PX4Firmware/Build/px4io-v2_default.build/nuttx-export/libs\libnuttx.a(arch-up_blocktask.o) (up_copystate)
c:/px4/workspace/PX4Firmware/Build/px4io-v2_default.build/nuttx-export/libs\libnuttx.a(arch-up_exception.o)
                              c:/px4/workspace/PX4Firmware/Build/px4io-v2_default.build/nuttx-export/libs\libnuttx.a(arch-up_vectors.o) (exception_common)
c:/px4/workspace/PX4Firmware/Build/px4io-v2_default.build/nuttx-export/libs\libnuttx.a(arch-up_exit.o)
                              c:/px4/workspace/PX4Firmware/Build/px4io-v2_default.build/nuttx-export/libs\libnuttx.a(sched-exit.o) (_exit)
c:/px4/workspace/PX4Firmware/Build/px4io-v2_default.build/nuttx-export/libs\libnuttx.a(arch-up_fullcontextrestore.o)
                              c:/px4/workspace/PX4Firmware/Build/px4io-v2_default.build/nuttx-export/libs\libnuttx.a(arch-up_exit.o) (up_fullcontextrestore)
c:/px4/workspace/PX4Firmware/Build/px4io-v2_default.build/nuttx-export/libs\libnuttx.a(arch-up_initialize.o)
                              c:/px4/workspace/PX4Firmware/Build/px4io-v2_default.build/nuttx-export/libs\libnuttx.a(sched-os_start.o) (up_initialize)
c:/px4/workspace/PX4Firmware/Build/px4io-v2_default.build/nuttx-export/libs\libnuttx.a(arch-up_initialstate.o)
                              c:/px4/workspace/PX4Firmware/Build/px4io-v2_default.build/nuttx-export/libs\libnuttx.a(sched-os_start.o) (up_initial_state)
c:/px4/workspace/PX4Firmware/Build/px4io-v2_default.build/nuttx-export/libs\libnuttx.a(arch-up_interruptcontext.o)
                              c:/px4/workspace/PX4Firmware/Build/px4io-v2_default.build/nuttx-export/libs\libnuttx.a(drivers-serial.o) (up_interrupt_context)
c:/px4/workspace/PX4Firmware/Build/px4io-v2_default.build/nuttx-export/libs\libnuttx.a(arch-up_mdelay.o)
                              c:/px4/workspace/PX4Firmware/Build/px4io-v2_default.build/nuttx-export/libs\libnuttx.a(drivers-serial.o) (up_mdelay)
c:/px4/workspace/PX4Firmware/Build/px4io-v2_default.build/nuttx-export/libs\libnuttx.a(arch-up_switchcontext.o)
                              c:/px4/workspace/PX4Firmware/Build/px4io-v2_default.build/nuttx-export/libs\libnuttx.a(arch-up_blocktask.o) (up_switchcontext)
c:/px4/workspace/PX4Firmware/Build/px4io-v2_default.build/nuttx-export/libs\libnuttx.a(arch-up_unblocktask.o)
                              c:/px4/workspace/PX4Firmware/Build/px4io-v2_default.build/nuttx-export/libs\libnuttx.a(sched-sem_post.o) (up_unblock_task)
c:/px4/workspace/PX4Firmware/Build/px4io-v2_default.build/nuttx-export/libs\libnuttx.a(fs-fs_files.o)
                              c:/px4/workspace/PX4Firmware/Build/px4io-v2_default.build/nuttx-export/libs\libnuttx.a(fs-fs_open.o) (files_allocate)
c:/px4/workspace/PX4Firmware/Build/px4io-v2_default.build/nuttx-export/libs\libnuttx.a(fs-fs_inodeaddref.o)
                              c:/px4/workspace/PX4Firmware/Build/px4io-v2_default.build/nuttx-export/libs\libnuttx.a(fs-fs_files.o) (inode_addref)
c:/px4/workspace/PX4Firmware/Build/px4io-v2_default.build/nuttx-export/libs\libnuttx.a(fs-fs_inodefind.o)
                              c:/px4/workspace/PX4Firmware/Build/px4io-v2_default.build/nuttx-export/libs\libnuttx.a(fs-fs_open.o) (inode_find)
c:/px4/workspace/PX4Firmware/Build/px4io-v2_default.build/nuttx-export/libs\libnuttx.a(fs-fs_inoderelease.o)
                              c:/px4/workspace/PX4Firmware/Build/px4io-v2_default.build/nuttx-export/libs\libnuttx.a(fs-fs_open.o) (inode_release)
c:/px4/workspace/PX4Firmware/Build/px4io-v2_default.build/nuttx-export/libs\libnuttx.a(fs-fs_registerdriver.o)
                              c:/px4/workspace/PX4Firmware/Build/px4io-v2_default.build/nuttx-export/libs\libnuttx.a(drivers-serial.o) (register_driver)
c:/px4/workspace/PX4Firmware/Build/px4io-v2_default.build/nuttx-export/libs\libnuttx.a(sched-group_create.o)
                              c:/px4/workspace/PX4Firmware/Build/px4io-v2_default.build/nuttx-export/libs\libnuttx.a(sched-os_start.o) (group_allocate)
c:/px4/workspace/PX4Firmware/Build/px4io-v2_default.build/nuttx-export/libs\libnuttx.a(sched-group_leave.o)
                              c:/px4/workspace/PX4Firmware/Build/px4io-v2_default.build/nuttx-export/libs\libnuttx.a(sched-task_exithook.o) (group_leave)
c:/px4/workspace/PX4Firmware/Build/px4io-v2_default.build/nuttx-export/libs\libnuttx.a(sched-group_setupidlefiles.o)
                              c:/px4/workspace/PX4Firmware/Build/px4io-v2_default.build/nuttx-export/libs\libnuttx.a(sched-os_start.o) (group_setupidlefiles)
c:/px4/workspace/PX4Firmware/Build/px4io-v2_default.build/nuttx-export/libs\libnuttx.a(sched-os_bringup.o)
                              c:/px4/workspace/PX4Firmware/Build/px4io-v2_default.build/nuttx-export/libs\libnuttx.a(sched-os_start.o) (os_bringup)
c:/px4/workspace/PX4Firmware/Build/px4io-v2_default.build/nuttx-export/libs\libnuttx.a(sched-sched_addblocked.o)
                              c:/px4/workspace/PX4Firmware/Build/px4io-v2_default.build/nuttx-export/libs\libnuttx.a(arch-up_blocktask.o) (sched_addblocked)
c:/px4/workspace/PX4Firmware/Build/px4io-v2_default.build/nuttx-export/libs\libnuttx.a(sched-sched_addprioritized.o)
                              c:/px4/workspace/PX4Firmware/Build/px4io-v2_default.build/nuttx-export/libs\libnuttx.a(sched-sched_addblocked.o) (sched_addprioritized)
c:/px4/workspace/PX4Firmware/Build/px4io-v2_default.build/nuttx-export/libs\libnuttx.a(sched-sched_addreadytorun.o)
                              c:/px4/workspace/PX4Firmware/Build/px4io-v2_default.build/nuttx-export/libs\libnuttx.a(arch-up_unblocktask.o) (sched_addreadytorun)
c:/px4/workspace/PX4Firmware/Build/px4io-v2_default.build/nuttx-export/libs\libnuttx.a(sched-sched_free.o)
                              c:/px4/workspace/PX4Firmware/Build/px4io-v2_default.build/nuttx-export/libs\libnuttx.a(sched-group_leave.o) (sched_ufree)
c:/px4/workspace/PX4Firmware/Build/px4io-v2_default.build/nuttx-export/libs\libnuttx.a(sched-sched_mergepending.o)
                              c:/px4/workspace/PX4Firmware/Build/px4io-v2_default.build/nuttx-export/libs\libnuttx.a(arch-up_blocktask.o) (sched_mergepending)
c:/px4/workspace/PX4Firmware/Build/px4io-v2_default.build/nuttx-export/libs\libnuttx.a(sched-sched_removeblocked.o)
                              c:/px4/workspace/PX4Firmware/Build/px4io-v2_default.build/nuttx-export/libs\libnuttx.a(arch-up_unblocktask.o) (sched_removeblocked)
c:/px4/workspace/PX4Firmware/Build/px4io-v2_default.build/nuttx-export/libs\libnuttx.a(sched-sched_removereadytorun.o)
                              c:/px4/workspace/PX4Firmware/Build/px4io-v2_default.build/nuttx-export/libs\libnuttx.a(arch-up_blocktask.o) (sched_removereadytorun)
c:/px4/workspace/PX4Firmware/Build/px4io-v2_default.build/nuttx-export/libs\libnuttx.a(sched-sem_destroy.o)
                              c:/px4/workspace/PX4Firmware/Build/px4io-v2_default.build/nuttx-export/libs\libnuttx.a(fs-fs_files.o) (sem_destroy)
c:/px4/workspace/PX4Firmware/Build/px4io-v2_default.build/nuttx-export/libs\libnuttx.a(sched-task_create.o)
                              c:/px4/workspace/PX4Firmware/Build/px4io-v2_default.build/nuttx-export/libs\libnuttx.a(sched-os_bringup.o) (task_create)
c:/px4/workspace/PX4Firmware/Build/px4io-v2_default.build/nuttx-export/libs\libnuttx.a(sched-task_exit.o)
                              c:/px4/workspace/PX4Firmware/Build/px4io-v2_default.build/nuttx-export/libs\libnuttx.a(arch-up_exit.o) (task_exit)
c:/px4/workspace/PX4Firmware/Build/px4io-v2_default.build/nuttx-export/libs\libnuttx.a(sched-task_setup.o)
                              c:/px4/workspace/PX4Firmware/Build/px4io-v2_default.build/nuttx-export/libs\libnuttx.a(sched-task_create.o) (task_schedsetup)
c:/px4/workspace/PX4Firmware/Build/px4io-v2_default.build/nuttx-export/libs\libnuttx.a(sched-task_start.o)
                              c:/px4/workspace/PX4Firmware/Build/px4io-v2_default.build/nuttx-export/libs\libnuttx.a(sched-task_create.o) (task_start)
c:/px4/workspace/PX4Firmware/Build/px4io-v2_default.build/nuttx-export/libs\libnuttx.a(sched-task_terminate.o)
                              c:/px4/workspace/PX4Firmware/Build/px4io-v2_default.build/nuttx-export/libs\libnuttx.a(sched-task_exit.o) (task_terminate)
c:/px4/workspace/PX4Firmware/Build/px4io-v2_default.build/nuttx-export/libs\libnuttx.a(c-dq_addlast.o)
                              c:/px4/workspace/PX4Firmware/Build/px4io-v2_default.build/nuttx-export/libs\libnuttx.a(sched-sched_addblocked.o) (dq_addlast)
c:/px4/workspace/PX4Firmware/Build/px4io-v2_default.build/nuttx-export/libs\libnuttx.a(c-dq_rem.o)
                              c:/px4/workspace/PX4Firmware/Build/px4io-v2_default.build/nuttx-export/libs\libnuttx.a(sched-sched_removeblocked.o) (dq_rem)
c:/px4/workspace/PX4Firmware/Build/px4io-v2_default.build/nuttx-export/libs\libnuttx.a(c-lib_strdup.o)
                              c:/px4/workspace/PX4Firmware/Build/px4io-v2_default.build/nuttx-export/libs\libnuttx.a(sched-task_setup.o) (strdup)
c:/px4/workspace/PX4Firmware/Build/px4io-v2_default.build/nuttx-export/libs\libnuttx.a(arch-stm32_timerisr.o)
                              c:/px4/workspace/PX4Firmware/Build/px4io-v2_default.build/nuttx-export/libs\libnuttx.a(arch-up_initialize.o) (up_timerinit)
c:/px4/workspace/PX4Firmware/Build/px4io-v2_default.build/nuttx-export/libs\libnuttx.a(arch-up_createstack.o)
                              c:/px4/workspace/PX4Firmware/Build/px4io-v2_default.build/nuttx-export/libs\libnuttx.a(sched-task_create.o) (up_create_stack)
c:/px4/workspace/PX4Firmware/Build/px4io-v2_default.build/nuttx-export/libs\libnuttx.a(arch-up_doirq.o)
                              c:/px4/workspace/PX4Firmware/Build/px4io-v2_default.build/nuttx-export/libs\libnuttx.a(arch-up_exception.o) (up_doirq)
c:/px4/workspace/PX4Firmware/Build/px4io-v2_default.build/nuttx-export/libs\libnuttx.a(arch-up_releasestack.o)
                              c:/px4/workspace/PX4Firmware/Build/px4io-v2_default.build/nuttx-export/libs\libnuttx.a(arch-up_createstack.o) (up_release_stack)
c:/px4/workspace/PX4Firmware/Build/px4io-v2_default.build/nuttx-export/libs\libnuttx.a(fs-fs_close.o)
                              c:/px4/workspace/PX4Firmware/Build/px4io-v2_default.build/nuttx-export/libs\libnuttx.a(sched-group_setupidlefiles.o) (close)
c:/px4/workspace/PX4Firmware/Build/px4io-v2_default.build/nuttx-export/libs\libnuttx.a(fs-fs_filedup2.o)
                              c:/px4/workspace/PX4Firmware/Build/px4io-v2_default.build/nuttx-export/libs\libnuttx.a(sched-group_setupidlefiles.o) (dup2)
c:/px4/workspace/PX4Firmware/Build/px4io-v2_default.build/nuttx-export/libs\libnuttx.a(fs-fs_inode.o)
                              c:/px4/workspace/PX4Firmware/Build/px4io-v2_default.build/nuttx-export/libs\libnuttx.a(fs-fs_inodeaddref.o) (inode_semtake)
c:/px4/workspace/PX4Firmware/Build/px4io-v2_default.build/nuttx-export/libs\libnuttx.a(fs-fs_inodereserve.o)
                              c:/px4/workspace/PX4Firmware/Build/px4io-v2_default.build/nuttx-export/libs\libnuttx.a(fs-fs_registerdriver.o) (inode_reserve)
c:/px4/workspace/PX4Firmware/Build/px4io-v2_default.build/nuttx-export/libs\libnuttx.a(sched-group_setuptaskfiles.o)
                              c:/px4/workspace/PX4Firmware/Build/px4io-v2_default.build/nuttx-export/libs\libnuttx.a(sched-task_create.o) (group_setuptaskfiles)
c:/px4/workspace/PX4Firmware/Build/px4io-v2_default.build/nuttx-export/libs\libnuttx.a(sched-irq_dispatch.o)
                              c:/px4/workspace/PX4Firmware/Build/px4io-v2_default.build/nuttx-export/libs\libnuttx.a(arch-up_doirq.o) (irq_dispatch)
c:/px4/workspace/PX4Firmware/Build/px4io-v2_default.build/nuttx-export/libs\libnuttx.a(sched-sched_gettcb.o)
                              c:/px4/workspace/PX4Firmware/Build/px4io-v2_default.build/nuttx-export/libs\libnuttx.a(sched-task_terminate.o) (sched_gettcb)
c:/px4/workspace/PX4Firmware/Build/px4io-v2_default.build/nuttx-export/libs\libnuttx.a(sched-sched_lock.o)
                              c:/px4/workspace/PX4Firmware/Build/px4io-v2_default.build/nuttx-export/libs\libnuttx.a(sched-task_setup.o) (sched_lock)
c:/px4/workspace/PX4Firmware/Build/px4io-v2_default.build/nuttx-export/libs\libnuttx.a(sched-sched_processtimer.o)
                              c:/px4/workspace/PX4Firmware/Build/px4io-v2_default.build/nuttx-export/libs\libnuttx.a(arch-stm32_timerisr.o) (sched_process_timer)
c:/px4/workspace/PX4Firmware/Build/px4io-v2_default.build/nuttx-export/libs\libnuttx.a(sched-sched_releasetcb.o)
                              c:/px4/workspace/PX4Firmware/Build/px4io-v2_default.build/nuttx-export/libs\libnuttx.a(sched-task_create.o) (sched_releasetcb)
c:/px4/workspace/PX4Firmware/Build/px4io-v2_default.build/nuttx-export/libs\libnuttx.a(sched-sched_unlock.o)
                              c:/px4/workspace/PX4Firmware/Build/px4io-v2_default.build/nuttx-export/libs\libnuttx.a(sched-task_setup.o) (sched_unlock)
c:/px4/workspace/PX4Firmware/Build/px4io-v2_default.build/nuttx-export/libs\libnuttx.a(sched-task_activate.o)
                              c:/px4/workspace/PX4Firmware/Build/px4io-v2_default.build/nuttx-export/libs\libnuttx.a(sched-task_create.o) (task_activate)
c:/px4/workspace/PX4Firmware/Build/px4io-v2_default.build/nuttx-export/libs\libnuttx.a(arch-up_releasepending.o)
                              c:/px4/workspace/PX4Firmware/Build/px4io-v2_default.build/nuttx-export/libs\libnuttx.a(sched-sched_unlock.o) (up_release_pending)
c:/px4/toolchain/bin/../lib/gcc/arm-none-eabi/4.6.2/armv7-m/libgcc.a(_lshrdi3.o)
                              c:/px4/workspace/PX4Firmware/Build/px4io-v2_default.build/nuttx-export/libs\libnuttx.a(c-lib_libvsprintf.o) (__aeabi_llsr)
c:/px4/toolchain/bin/../lib/gcc/arm-none-eabi/4.6.2/armv7-m/libgcc.a(_arm_addsubsf3.o)
                              c:/px4/workspace/PX4Firmware/Build/px4io-v2_default.build/c/px4/workspace/PX4Firmware/src/modules/px4iofirmware/module.pre.o (__aeabi_fsub)
c:/px4/toolchain/bin/../lib/gcc/arm-none-eabi/4.6.2/armv7-m/libgcc.a(_arm_muldivsf3.o)
                              c:/px4/workspace/PX4Firmware/Build/px4io-v2_default.build/c/px4/workspace/PX4Firmware/src/modules/px4iofirmware/module.pre.o (__aeabi_fmul)
c:/px4/toolchain/bin/../lib/gcc/arm-none-eabi/4.6.2/armv7-m/libgcc.a(_arm_cmpsf2.o)
                              c:/px4/workspace/PX4Firmware/Build/px4io-v2_default.build/c/px4/workspace/PX4Firmware/src/modules/px4iofirmware/module.pre.o (__aeabi_fcmplt)
c:/px4/toolchain/bin/../lib/gcc/arm-none-eabi/4.6.2/armv7-m/libgcc.a(_arm_fixsfsi.o)
                              c:/px4/workspace/PX4Firmware/Build/px4io-v2_default.build/c/px4/workspace/PX4Firmware/src/modules/px4iofirmware/module.pre.o (__aeabi_f2iz)
c:/px4/toolchain/bin/../lib/gcc/arm-none-eabi/4.6.2/armv7-m/libgcc.a(_arm_fixunssfsi.o)
                              c:/px4/workspace/PX4Firmware/Build/px4io-v2_default.build/c/px4/workspace/PX4Firmware/src/modules/px4iofirmware/module.pre.o (__aeabi_f2uiz)
c:/px4/toolchain/bin/../lib/gcc/arm-none-eabi/4.6.2/armv7-m/libgcc.a(_aeabi_uldivmod.o)
                              c:/px4/workspace/PX4Firmware/Build/px4io-v2_default.build/c/px4/workspace/PX4Firmware/src/drivers/stm32/module.pre.o (__aeabi_uldivmod)
c:/px4/toolchain/bin/../lib/gcc/arm-none-eabi/4.6.2/armv7-m/libgcc.a(bpabi.o)
                              c:/px4/toolchain/bin/../lib/gcc/arm-none-eabi/4.6.2/armv7-m/libgcc.a(_aeabi_uldivmod.o) (__gnu_uldivmod_helper)
c:/px4/toolchain/bin/../lib/gcc/arm-none-eabi/4.6.2/armv7-m/libgcc.a(_dvmd_tls.o)
                              c:/px4/toolchain/bin/../lib/gcc/arm-none-eabi/4.6.2/armv7-m/libgcc.a(_aeabi_uldivmod.o) (__aeabi_ldiv0)
c:/px4/toolchain/bin/../lib/gcc/arm-none-eabi/4.6.2/armv7-m/libgcc.a(_divdi3.o)
                              c:/px4/toolchain/bin/../lib/gcc/arm-none-eabi/4.6.2/armv7-m/libgcc.a(bpabi.o) (__divdi3)
c:/px4/toolchain/bin/../lib/gcc/arm-none-eabi/4.6.2/armv7-m/libgcc.a(_udivdi3.o)
                              c:/px4/toolchain/bin/../lib/gcc/arm-none-eabi/4.6.2/armv7-m/libgcc.a(bpabi.o) (__udivdi3)

Discarded input sections

 .text          0x00000000        0x0 c:/px4/workspace/PX4Firmware/Build/px4io-v2_default.build/c/px4/workspace/PX4Firmware/Build/px4io-v2_default.build/empty.c.o
 .data          0x00000000        0x0 c:/px4/workspace/PX4Firmware/Build/px4io-v2_default.build/c/px4/workspace/PX4Firmware/Build/px4io-v2_default.build/empty.c.o
 .bss           0x00000000        0x0 c:/px4/workspace/PX4Firmware/Build/px4io-v2_default.build/c/px4/workspace/PX4Firmware/Build/px4io-v2_default.build/empty.c.o
 .text          0x00000000        0x0 c:/px4/workspace/PX4Firmware/Build/px4io-v2_default.build/c/px4/workspace/PX4Firmware/src/drivers/boards/px4io-v2/module.pre.o
 .data          0x00000000        0x0 c:/px4/workspace/PX4Firmware/Build/px4io-v2_default.build/c/px4/workspace/PX4Firmware/src/drivers/boards/px4io-v2/module.pre.o
 .bss           0x00000000        0x0 c:/px4/workspace/PX4Firmware/Build/px4io-v2_default.build/c/px4/workspace/PX4Firmware/src/drivers/boards/px4io-v2/module.pre.o
 .text          0x00000000        0x0 c:/px4/workspace/PX4Firmware/Build/px4io-v2_default.build/c/px4/workspace/PX4Firmware/src/drivers/stm32/module.pre.o
 .text.ts_to_abstime
                0x00000000       0x30 c:/px4/workspace/PX4Firmware/Build/px4io-v2_default.build/c/px4/workspace/PX4Firmware/src/drivers/stm32/module.pre.o
 .text.abstime_to_ts
                0x00000000       0x3c c:/px4/workspace/PX4Firmware/Build/px4io-v2_default.build/c/px4/workspace/PX4Firmware/src/drivers/stm32/module.pre.o
 .text.hrt_store_absolute_time
                0x00000000       0x60 c:/px4/workspace/PX4Firmware/Build/px4io-v2_default.build/c/px4/workspace/PX4Firmware/src/drivers/stm32/module.pre.o
 .text.hrt_call_after
                0x00000000       0xa0 c:/px4/workspace/PX4Firmware/Build/px4io-v2_default.build/c/px4/workspace/PX4Firmware/src/drivers/stm32/module.pre.o
 .text.hrt_call_at
                0x00000000       0x48 c:/px4/workspace/PX4Firmware/Build/px4io-v2_default.build/c/px4/workspace/PX4Firmware/src/drivers/stm32/module.pre.o
 .text.hrt_called
                0x00000000       0x10 c:/px4/workspace/PX4Firmware/Build/px4io-v2_default.build/c/px4/workspace/PX4Firmware/src/drivers/stm32/module.pre.o
 .text.hrt_cancel
                0x00000000       0x2c c:/px4/workspace/PX4Firmware/Build/px4io-v2_default.build/c/px4/workspace/PX4Firmware/src/drivers/stm32/module.pre.o
 .text.hrt_call_init
                0x00000000        0x8 c:/px4/workspace/PX4Firmware/Build/px4io-v2_default.build/c/px4/workspace/PX4Firmware/src/drivers/stm32/module.pre.o
 .text.hrt_call_delay
                0x00000000       0x68 c:/px4/workspace/PX4Firmware/Build/px4io-v2_default.build/c/px4/workspace/PX4Firmware/src/drivers/stm32/module.pre.o
 .text.up_pwm_servo_get
                0x00000000       0x5c c:/px4/workspace/PX4Firmware/Build/px4io-v2_default.build/c/px4/workspace/PX4Firmware/src/drivers/stm32/module.pre.o
 .text.up_pwm_servo_deinit
                0x00000000       0x28 c:/px4/workspace/PX4Firmware/Build/px4io-v2_default.build/c/px4/workspace/PX4Firmware/src/drivers/stm32/module.pre.o
 .text.up_pwm_servo_set_rate
                0x00000000       0x6c c:/px4/workspace/PX4Firmware/Build/px4io-v2_default.build/c/px4/workspace/PX4Firmware/src/drivers/stm32/module.pre.o
 .data          0x00000000        0x0 c:/px4/workspace/PX4Firmware/Build/px4io-v2_default.build/c/px4/workspace/PX4Firmware/src/drivers/stm32/module.pre.o
 .bss           0x00000000        0x0 c:/px4/workspace/PX4Firmware/Build/px4io-v2_default.build/c/px4/workspace/PX4Firmware/src/drivers/stm32/module.pre.o
 .group         0x00000000        0xc c:/px4/workspace/PX4Firmware/Build/px4io-v2_default.build/c/px4/workspace/PX4Firmware/src/modules/px4iofirmware/module.pre.o
 .group         0x00000000        0xc c:/px4/workspace/PX4Firmware/Build/px4io-v2_default.build/c/px4/workspace/PX4Firmware/src/modules/px4iofirmware/module.pre.o
 .group         0x00000000        0x8 c:/px4/workspace/PX4Firmware/Build/px4io-v2_default.build/c/px4/workspace/PX4Firmware/src/modules/px4iofirmware/module.pre.o
 .text          0x00000000        0x0 c:/px4/workspace/PX4Firmware/Build/px4io-v2_default.build/c/px4/workspace/PX4Firmware/src/modules/px4iofirmware/module.pre.o
 .text.perf_free
                0x00000000       0x1c c:/px4/workspace/PX4Firmware/Build/px4io-v2_default.build/c/px4/workspace/PX4Firmware/src/modules/px4iofirmware/module.pre.o
 .text.perf_cancel
                0x00000000       0x14 c:/px4/workspace/PX4Firmware/Build/px4io-v2_default.build/c/px4/workspace/PX4Firmware/src/modules/px4iofirmware/module.pre.o
 .text.perf_reset
                0x00000000       0x50 c:/px4/workspace/PX4Firmware/Build/px4io-v2_default.build/c/px4/workspace/PX4Firmware/src/modules/px4iofirmware/module.pre.o
 .text.perf_print_counter
                0x00000000       0xb8 c:/px4/workspace/PX4Firmware/Build/px4io-v2_default.build/c/px4/workspace/PX4Firmware/src/modules/px4iofirmware/module.pre.o
 .text.perf_event_count
                0x00000000       0x24 c:/px4/workspace/PX4Firmware/Build/px4io-v2_default.build/c/px4/workspace/PX4Firmware/src/modules/px4iofirmware/module.pre.o
 .text.perf_print_all
                0x00000000       0x1c c:/px4/workspace/PX4Firmware/Build/px4io-v2_default.build/c/px4/workspace/PX4Firmware/src/modules/px4iofirmware/module.pre.o
 .text.perf_reset_all
                0x00000000       0x5c c:/px4/workspace/PX4Firmware/Build/px4io-v2_default.build/c/px4/workspace/PX4Firmware/src/modules/px4iofirmware/module.pre.o
 .text._ZN5Mixer11scale_checkER14mixer_scaler_s
                0x00000000       0x6c c:/px4/workspace/PX4Firmware/Build/px4io-v2_default.build/c/px4/workspace/PX4Firmware/src/modules/px4iofirmware/module.pre.o
 .text._ZN9NullMixerC2Ev
                0x00000000       0x14 c:/px4/workspace/PX4Firmware/Build/px4io-v2_default.build/c/px4/workspace/PX4Firmware/src/modules/px4iofirmware/module.pre.o
 .text._ZN10MixerGroup9add_mixerEP5Mixer
                0x00000000       0x18 c:/px4/workspace/PX4Firmware/Build/px4io-v2_default.build/c/px4/workspace/PX4Firmware/src/modules/px4iofirmware/module.pre.o
 .text._ZN10MixerGroup5countEv
                0x00000000       0x14 c:/px4/workspace/PX4Firmware/Build/px4io-v2_default.build/c/px4/workspace/PX4Firmware/src/modules/px4iofirmware/module.pre.o
 .text._ZN15MultirotorMixerC2EPFijhhRfEjNS_8GeometryEffff
                0x00000000       0x4c c:/px4/workspace/PX4Firmware/Build/px4io-v2_default.build/c/px4/workspace/PX4Firmware/src/modules/px4iofirmware/module.pre.o
 .text._ZN11SimpleMixerC2EPFijhhRfEjP14mixer_simple_s
                0x00000000       0x18 c:/px4/workspace/PX4Firmware/Build/px4io-v2_default.build/c/px4/workspace/PX4Firmware/src/modules/px4iofirmware/module.pre.o
 .text._ZN11SimpleMixer9pwm_inputEPFijhhRfEjjttt
                0x00000000       0xb8 c:/px4/workspace/PX4Firmware/Build/px4io-v2_default.build/c/px4/workspace/PX4Firmware/src/modules/px4iofirmware/module.pre.o
 .text._ZN11SimpleMixer5checkEv
                0x00000000       0x78 c:/px4/workspace/PX4Firmware/Build/px4io-v2_default.build/c/px4/workspace/PX4Firmware/src/modules/px4iofirmware/module.pre.o
 .text.hx_stream_init
                0x00000000       0x24 c:/px4/workspace/PX4Firmware/Build/px4io-v2_default.build/c/px4/workspace/PX4Firmware/src/modules/px4iofirmware/module.pre.o
 .text.hx_stream_free
                0x00000000       0x20 c:/px4/workspace/PX4Firmware/Build/px4io-v2_default.build/c/px4/workspace/PX4Firmware/src/modules/px4iofirmware/module.pre.o
 .text.hx_stream_set_counters
                0x00000000        0x8 c:/px4/workspace/PX4Firmware/Build/px4io-v2_default.build/c/px4/workspace/PX4Firmware/src/modules/px4iofirmware/module.pre.o
 .text.hx_stream_reset
                0x00000000       0x14 c:/px4/workspace/PX4Firmware/Build/px4io-v2_default.build/c/px4/workspace/PX4Firmware/src/modules/px4iofirmware/module.pre.o
 .text.hx_stream_start
                0x00000000       0x28 c:/px4/workspace/PX4Firmware/Build/px4io-v2_default.build/c/px4/workspace/PX4Firmware/src/modules/px4iofirmware/module.pre.o
 .text.hx_stream_send_next
                0x00000000       0x7c c:/px4/workspace/PX4Firmware/Build/px4io-v2_default.build/c/px4/workspace/PX4Firmware/src/modules/px4iofirmware/module.pre.o
 .text.hx_stream_send
                0x00000000       0x68 c:/px4/workspace/PX4Firmware/Build/px4io-v2_default.build/c/px4/workspace/PX4Firmware/src/modules/px4iofirmware/module.pre.o
 .text.hx_stream_rx
                0x00000000       0x98 c:/px4/workspace/PX4Firmware/Build/px4io-v2_default.build/c/px4/workspace/PX4Firmware/src/modules/px4iofirmware/module.pre.o
 .data          0x00000000        0x0 c:/px4/workspace/PX4Firmware/Build/px4io-v2_default.build/c/px4/workspace/PX4Firmware/src/modules/px4iofirmware/module.pre.o
 .bss           0x00000000        0x0 c:/px4/workspace/PX4Firmware/Build/px4io-v2_default.build/c/px4/workspace/PX4Firmware/src/modules/px4iofirmware/module.pre.o
 .text          0x00000000        0x0 c:/px4/workspace/PX4Firmware/Build/px4io-v2_default.build/nuttx-export/libs\libnuttx.a(sched-irq_attach.o)
 .data          0x00000000        0x0 c:/px4/workspace/PX4Firmware/Build/px4io-v2_default.build/nuttx-export/libs\libnuttx.a(sched-irq_attach.o)
 .bss           0x00000000        0x0 c:/px4/workspace/PX4Firmware/Build/px4io-v2_default.build/nuttx-export/libs\libnuttx.a(sched-irq_attach.o)
 .text          0x00000000        0x0 c:/px4/workspace/PX4Firmware/Build/px4io-v2_default.build/nuttx-export/libs\libnuttx.a(sched-irq_initialize.o)
 .data          0x00000000        0x0 c:/px4/workspace/PX4Firmware/Build/px4io-v2_default.build/nuttx-export/libs\libnuttx.a(sched-irq_initialize.o)
 .bss           0x00000000        0x0 c:/px4/workspace/PX4Firmware/Build/px4io-v2_default.build/nuttx-export/libs\libnuttx.a(sched-irq_initialize.o)
 .text          0x00000000        0x0 c:/px4/workspace/PX4Firmware/Build/px4io-v2_default.build/nuttx-export/libs\libnuttx.a(sched-irq_unexpectedisr.o)
 .data          0x00000000        0x0 c:/px4/workspace/PX4Firmware/Build/px4io-v2_default.build/nuttx-export/libs\libnuttx.a(sched-irq_unexpectedisr.o)
 .bss           0x00000000        0x0 c:/px4/workspace/PX4Firmware/Build/px4io-v2_default.build/nuttx-export/libs\libnuttx.a(sched-irq_unexpectedisr.o)
 .text          0x00000000        0x0 c:/px4/workspace/PX4Firmware/Build/px4io-v2_default.build/nuttx-export/libs\libnuttx.a(c-lib_abort.o)
 .data          0x00000000        0x0 c:/px4/workspace/PX4Firmware/Build/px4io-v2_default.build/nuttx-export/libs\libnuttx.a(c-lib_abort.o)
 .bss           0x00000000        0x0 c:/px4/workspace/PX4Firmware/Build/px4io-v2_default.build/nuttx-export/libs\libnuttx.a(c-lib_abort.o)
 .text          0x00000000        0x0 c:/px4/workspace/PX4Firmware/Build/px4io-v2_default.build/nuttx-export/libs\libnuttx.a(c-lib_cfsetspeed.o)
 .data          0x00000000        0x0 c:/px4/workspace/PX4Firmware/Build/px4io-v2_default.build/nuttx-export/libs\libnuttx.a(c-lib_cfsetspeed.o)
 .bss           0x00000000        0x0 c:/px4/workspace/PX4Firmware/Build/px4io-v2_default.build/nuttx-export/libs\libnuttx.a(c-lib_cfsetspeed.o)
 .text          0x00000000        0x0 c:/px4/workspace/PX4Firmware/Build/px4io-v2_default.build/nuttx-export/libs\libnuttx.a(c-lib_crc32.o)
 .data          0x00000000        0x0 c:/px4/workspace/PX4Firmware/Build/px4io-v2_default.build/nuttx-export/libs\libnuttx.a(c-lib_crc32.o)
 .bss           0x00000000        0x0 c:/px4/workspace/PX4Firmware/Build/px4io-v2_default.build/nuttx-export/libs\libnuttx.a(c-lib_crc32.o)
 .text.crc32    0x00000000        0x6 c:/px4/workspace/PX4Firmware/Build/px4io-v2_default.build/nuttx-export/libs\libnuttx.a(c-lib_crc32.o)
 .text          0x00000000        0x0 c:/px4/workspace/PX4Firmware/Build/px4io-v2_default.build/nuttx-export/libs\libnuttx.a(c-lib_lowsyslog.o)
 .data          0x00000000        0x0 c:/px4/workspace/PX4Firmware/Build/px4io-v2_default.build/nuttx-export/libs\libnuttx.a(c-lib_lowsyslog.o)
 .bss           0x00000000        0x0 c:/px4/workspace/PX4Firmware/Build/px4io-v2_default.build/nuttx-export/libs\libnuttx.a(c-lib_lowsyslog.o)
 .text          0x00000000        0x0 c:/px4/workspace/PX4Firmware/Build/px4io-v2_default.build/nuttx-export/libs\libnuttx.a(c-lib_memchr.o)
 .data          0x00000000        0x0 c:/px4/workspace/PX4Firmware/Build/px4io-v2_default.build/nuttx-export/libs\libnuttx.a(c-lib_memchr.o)
 .bss           0x00000000        0x0 c:/px4/workspace/PX4Firmware/Build/px4io-v2_default.build/nuttx-export/libs\libnuttx.a(c-lib_memchr.o)
 .text          0x00000000        0x0 c:/px4/workspace/PX4Firmware/Build/px4io-v2_default.build/nuttx-export/libs\libnuttx.a(c-lib_memcpy.o)
 .data          0x00000000        0x0 c:/px4/workspace/PX4Firmware/Build/px4io-v2_default.build/nuttx-export/libs\libnuttx.a(c-lib_memcpy.o)
 .bss           0x00000000        0x0 c:/px4/workspace/PX4Firmware/Build/px4io-v2_default.build/nuttx-export/libs\libnuttx.a(c-lib_memcpy.o)
 .text          0x00000000        0x0 c:/px4/workspace/PX4Firmware/Build/px4io-v2_default.build/nuttx-export/libs\libnuttx.a(c-lib_memset.o)
 .data          0x00000000        0x0 c:/px4/workspace/PX4Firmware/Build/px4io-v2_default.build/nuttx-export/libs\libnuttx.a(c-lib_memset.o)
 .bss           0x00000000        0x0 c:/px4/workspace/PX4Firmware/Build/px4io-v2_default.build/nuttx-export/libs\libnuttx.a(c-lib_memset.o)
 .text          0x00000000        0x0 c:/px4/workspace/PX4Firmware/Build/px4io-v2_default.build/nuttx-export/libs\libnuttx.a(c-lib_printf.o)
 .data          0x00000000        0x0 c:/px4/workspace/PX4Firmware/Build/px4io-v2_default.build/nuttx-export/libs\libnuttx.a(c-lib_printf.o)
 .bss           0x00000000        0x0 c:/px4/workspace/PX4Firmware/Build/px4io-v2_default.build/nuttx-export/libs\libnuttx.a(c-lib_printf.o)
 .text.printf   0x00000000       0x18 c:/px4/workspace/PX4Firmware/Build/px4io-v2_default.build/nuttx-export/libs\libnuttx.a(c-lib_printf.o)
 .text          0x00000000        0x0 c:/px4/workspace/PX4Firmware/Build/px4io-v2_default.build/nuttx-export/libs\libnuttx.a(c-lib_sscanf.o)
 .data          0x00000000        0x0 c:/px4/workspace/PX4Firmware/Build/px4io-v2_default.build/nuttx-export/libs\libnuttx.a(c-lib_sscanf.o)
 .bss           0x00000000        0x0 c:/px4/workspace/PX4Firmware/Build/px4io-v2_default.build/nuttx-export/libs\libnuttx.a(c-lib_sscanf.o)
 .text          0x00000000        0x0 c:/px4/workspace/PX4Firmware/Build/px4io-v2_default.build/nuttx-export/libs\libnuttx.a(c-lib_strchr.o)
 .data          0x00000000        0x0 c:/px4/workspace/PX4Firmware/Build/px4io-v2_default.build/nuttx-export/libs\libnuttx.a(c-lib_strchr.o)
 .bss           0x00000000        0x0 c:/px4/workspace/PX4Firmware/Build/px4io-v2_default.build/nuttx-export/libs\libnuttx.a(c-lib_strchr.o)
 .text          0x00000000        0x0 c:/px4/workspace/PX4Firmware/Build/px4io-v2_default.build/nuttx-export/libs\libnuttx.a(c-lib_strcmp.o)
 .data          0x00000000        0x0 c:/px4/workspace/PX4Firmware/Build/px4io-v2_default.build/nuttx-export/libs\libnuttx.a(c-lib_strcmp.o)
 .bss           0x00000000        0x0 c:/px4/workspace/PX4Firmware/Build/px4io-v2_default.build/nuttx-export/libs\libnuttx.a(c-lib_strcmp.o)
 .text          0x00000000        0x0 c:/px4/workspace/PX4Firmware/Build/px4io-v2_default.build/nuttx-export/libs\libnuttx.a(c-lib_strcspn.o)
 .data          0x00000000        0x0 c:/px4/workspace/PX4Firmware/Build/px4io-v2_default.build/nuttx-export/libs\libnuttx.a(c-lib_strcspn.o)
 .bss           0x00000000        0x0 c:/px4/workspace/PX4Firmware/Build/px4io-v2_default.build/nuttx-export/libs\libnuttx.a(c-lib_strcspn.o)
 .text          0x00000000        0x0 c:/px4/workspace/PX4Firmware/Build/px4io-v2_default.build/nuttx-export/libs\libnuttx.a(c-lib_strncpy.o)
 .data          0x00000000        0x0 c:/px4/workspace/PX4Firmware/Build/px4io-v2_default.build/nuttx-export/libs\libnuttx.a(c-lib_strncpy.o)
 .bss           0x00000000        0x0 c:/px4/workspace/PX4Firmware/Build/px4io-v2_default.build/nuttx-export/libs\libnuttx.a(c-lib_strncpy.o)
 .text          0x00000000        0x0 c:/px4/workspace/PX4Firmware/Build/px4io-v2_default.build/nuttx-export/libs\libnuttx.a(c-lib_strtol.o)
 .data          0x00000000        0x0 c:/px4/workspace/PX4Firmware/Build/px4io-v2_default.build/nuttx-export/libs\libnuttx.a(c-lib_strtol.o)
 .bss           0x00000000        0x0 c:/px4/workspace/PX4Firmware/Build/px4io-v2_default.build/nuttx-export/libs\libnuttx.a(c-lib_strtol.o)
 .text          0x00000000        0x0 c:/px4/workspace/PX4Firmware/Build/px4io-v2_default.build/nuttx-export/libs\libnuttx.a(c-lib_strtoul.o)
 .data          0x00000000        0x0 c:/px4/workspace/PX4Firmware/Build/px4io-v2_default.build/nuttx-export/libs\libnuttx.a(c-lib_strtoul.o)
 .bss           0x00000000        0x0 c:/px4/workspace/PX4Firmware/Build/px4io-v2_default.build/nuttx-export/libs\libnuttx.a(c-lib_strtoul.o)
 .text          0x00000000        0x0 c:/px4/workspace/PX4Firmware/Build/px4io-v2_default.build/nuttx-export/libs\libnuttx.a(c-lib_syslog.o)
 .data          0x00000000        0x0 c:/px4/workspace/PX4Firmware/Build/px4io-v2_default.build/nuttx-export/libs\libnuttx.a(c-lib_syslog.o)
 .bss           0x00000000        0x0 c:/px4/workspace/PX4Firmware/Build/px4io-v2_default.build/nuttx-export/libs\libnuttx.a(c-lib_syslog.o)
 .text.vsyslog  0x00000000       0x1e c:/px4/workspace/PX4Firmware/Build/px4io-v2_default.build/nuttx-export/libs\libnuttx.a(c-lib_syslog.o)
 .text.syslog   0x00000000       0x18 c:/px4/workspace/PX4Firmware/Build/px4io-v2_default.build/nuttx-export/libs\libnuttx.a(c-lib_syslog.o)
 .text          0x00000000        0x0 c:/px4/workspace/PX4Firmware/Build/px4io-v2_default.build/nuttx-export/libs\libnuttx.a(c-lib_tcgetattr.o)
 .data          0x00000000        0x0 c:/px4/workspace/PX4Firmware/Build/px4io-v2_default.build/nuttx-export/libs\libnuttx.a(c-lib_tcgetattr.o)
 .bss           0x00000000        0x0 c:/px4/workspace/PX4Firmware/Build/px4io-v2_default.build/nuttx-export/libs\libnuttx.a(c-lib_tcgetattr.o)
 .text          0x00000000        0x0 c:/px4/workspace/PX4Firmware/Build/px4io-v2_default.build/nuttx-export/libs\libnuttx.a(c-lib_tcsetattr.o)
 .data          0x00000000        0x0 c:/px4/workspace/PX4Firmware/Build/px4io-v2_default.build/nuttx-export/libs\libnuttx.a(c-lib_tcsetattr.o)
 .bss           0x00000000        0x0 c:/px4/workspace/PX4Firmware/Build/px4io-v2_default.build/nuttx-export/libs\libnuttx.a(c-lib_tcsetattr.o)
 .text          0x00000000        0x0 c:/px4/workspace/PX4Firmware/Build/px4io-v2_default.build/nuttx-export/libs\libnuttx.a(c-lib_vsnprintf.o)
 .data          0x00000000        0x0 c:/px4/workspace/PX4Firmware/Build/px4io-v2_default.build/nuttx-export/libs\libnuttx.a(c-lib_vsnprintf.o)
 .bss           0x00000000        0x0 c:/px4/workspace/PX4Firmware/Build/px4io-v2_default.build/nuttx-export/libs\libnuttx.a(c-lib_vsnprintf.o)
 .text          0x00000000        0x0 c:/px4/workspace/PX4Firmware/Build/px4io-v2_default.build/nuttx-export/libs\libnuttx.a(c-sq_addafter.o)
 .data          0x00000000        0x0 c:/px4/workspace/PX4Firmware/Build/px4io-v2_default.build/nuttx-export/libs\libnuttx.a(c-sq_addafter.o)
 .bss           0x00000000        0x0 c:/px4/workspace/PX4Firmware/Build/px4io-v2_default.build/nuttx-export/libs\libnuttx.a(c-sq_addafter.o)
 .text          0x00000000        0x0 c:/px4/workspace/PX4Firmware/Build/px4io-v2_default.build/nuttx-export/libs\libnuttx.a(c-sq_addfirst.o)
 .data          0x00000000        0x0 c:/px4/workspace/PX4Firmware/Build/px4io-v2_default.build/nuttx-export/libs\libnuttx.a(c-sq_addfirst.o)
 .bss           0x00000000        0x0 c:/px4/workspace/PX4Firmware/Build/px4io-v2_default.build/nuttx-export/libs\libnuttx.a(c-sq_addfirst.o)
 .text          0x00000000        0x0 c:/px4/workspace/PX4Firmware/Build/px4io-v2_default.build/nuttx-export/libs\libnuttx.a(c-sq_addlast.o)
 .data          0x00000000        0x0 c:/px4/workspace/PX4Firmware/Build/px4io-v2_default.build/nuttx-export/libs\libnuttx.a(c-sq_addlast.o)
 .bss           0x00000000        0x0 c:/px4/workspace/PX4Firmware/Build/px4io-v2_default.build/nuttx-export/libs\libnuttx.a(c-sq_addlast.o)
 .text          0x00000000        0x0 c:/px4/workspace/PX4Firmware/Build/px4io-v2_default.build/nuttx-export/libs\libnuttx.a(c-sq_rem.o)
 .data          0x00000000        0x0 c:/px4/workspace/PX4Firmware/Build/px4io-v2_default.build/nuttx-export/libs\libnuttx.a(c-sq_rem.o)
 .bss           0x00000000        0x0 c:/px4/workspace/PX4Firmware/Build/px4io-v2_default.build/nuttx-export/libs\libnuttx.a(c-sq_rem.o)
 .text          0x00000000        0x0 c:/px4/workspace/PX4Firmware/Build/px4io-v2_default.build/nuttx-export/libs\libnuttx.a(c-sq_remafter.o)
 .data          0x00000000        0x0 c:/px4/workspace/PX4Firmware/Build/px4io-v2_default.build/nuttx-export/libs\libnuttx.a(c-sq_remafter.o)
 .bss           0x00000000        0x0 c:/px4/workspace/PX4Firmware/Build/px4io-v2_default.build/nuttx-export/libs\libnuttx.a(c-sq_remafter.o)
 .text          0x00000000        0x0 c:/px4/workspace/PX4Firmware/Build/px4io-v2_default.build/nuttx-export/libs\libnuttx.a(mm-mm_calloc.o)
 .data          0x00000000        0x0 c:/px4/workspace/PX4Firmware/Build/px4io-v2_default.build/nuttx-export/libs\libnuttx.a(mm-mm_calloc.o)
 .bss           0x00000000        0x0 c:/px4/workspace/PX4Firmware/Build/px4io-v2_default.build/nuttx-export/libs\libnuttx.a(mm-mm_calloc.o)
 .text          0x00000000        0x0 c:/px4/workspace/PX4Firmware/Build/px4io-v2_default.build/nuttx-export/libs\libnuttx.a(mm-mm_free.o)
 .data          0x00000000        0x0 c:/px4/workspace/PX4Firmware/Build/px4io-v2_default.build/nuttx-export/libs\libnuttx.a(mm-mm_free.o)
 .bss           0x00000000        0x0 c:/px4/workspace/PX4Firmware/Build/px4io-v2_default.build/nuttx-export/libs\libnuttx.a(mm-mm_free.o)
 .text          0x00000000        0x0 c:/px4/workspace/PX4Firmware/Build/px4io-v2_default.build/nuttx-export/libs\libnuttx.a(mm-mm_mallinfo.o)
 .data          0x00000000        0x0 c:/px4/workspace/PX4Firmware/Build/px4io-v2_default.build/nuttx-export/libs\libnuttx.a(mm-mm_mallinfo.o)
 .bss           0x00000000        0x0 c:/px4/workspace/PX4Firmware/Build/px4io-v2_default.build/nuttx-export/libs\libnuttx.a(mm-mm_mallinfo.o)
 .text          0x00000000        0x0 c:/px4/workspace/PX4Firmware/Build/px4io-v2_default.build/nuttx-export/libs\libnuttx.a(mm-mm_malloc.o)
 .data          0x00000000        0x0 c:/px4/workspace/PX4Firmware/Build/px4io-v2_default.build/nuttx-export/libs\libnuttx.a(mm-mm_malloc.o)
 .bss           0x00000000        0x0 c:/px4/workspace/PX4Firmware/Build/px4io-v2_default.build/nuttx-export/libs\libnuttx.a(mm-mm_malloc.o)
 .text          0x00000000        0x0 c:/px4/workspace/PX4Firmware/Build/px4io-v2_default.build/nuttx-export/libs\libnuttx.a(mm-mm_sem.o)
 .data          0x00000000        0x0 c:/px4/workspace/PX4Firmware/Build/px4io-v2_default.build/nuttx-export/libs\libnuttx.a(mm-mm_sem.o)
 .bss           0x00000000        0x0 c:/px4/workspace/PX4Firmware/Build/px4io-v2_default.build/nuttx-export/libs\libnuttx.a(mm-mm_sem.o)
 .text          0x00000000        0x0 c:/px4/workspace/PX4Firmware/Build/px4io-v2_default.build/nuttx-export/libs\libnuttx.a(mm-mm_size2ndx.o)
 .data          0x00000000        0x0 c:/px4/workspace/PX4Firmware/Build/px4io-v2_default.build/nuttx-export/libs\libnuttx.a(mm-mm_size2ndx.o)
 .bss           0x00000000        0x0 c:/px4/workspace/PX4Firmware/Build/px4io-v2_default.build/nuttx-export/libs\libnuttx.a(mm-mm_size2ndx.o)
 .text          0x00000000        0x0 c:/px4/workspace/PX4Firmware/Build/px4io-v2_default.build/nuttx-export/libs\libnuttx.a(mm-mm_user.o)
 .data          0x00000000        0x0 c:/px4/workspace/PX4Firmware/Build/px4io-v2_default.build/nuttx-export/libs\libnuttx.a(mm-mm_user.o)
 .bss           0x00000000        0x0 c:/px4/workspace/PX4Firmware/Build/px4io-v2_default.build/nuttx-export/libs\libnuttx.a(mm-mm_user.o)
 .text.umm_addregion
                0x00000000       0x10 c:/px4/workspace/PX4Firmware/Build/px4io-v2_default.build/nuttx-export/libs\libnuttx.a(mm-mm_user.o)
 .text          0x00000000        0x0 c:/px4/workspace/PX4Firmware/Build/px4io-v2_default.build/nuttx-export/libs\libnuttx.a(mm-mm_zalloc.o)
 .data          0x00000000        0x0 c:/px4/workspace/PX4Firmware/Build/px4io-v2_default.build/nuttx-export/libs\libnuttx.a(mm-mm_zalloc.o)
 .bss           0x00000000        0x0 c:/px4/workspace/PX4Firmware/Build/px4io-v2_default.build/nuttx-export/libs\libnuttx.a(mm-mm_zalloc.o)
 .text          0x00000000        0x0 c:/px4/workspace/PX4Firmware/Build/px4io-v2_default.build/nuttx-export/libs\libnuttx.a(arch-stm32_dma.o)
 .data          0x00000000        0x0 c:/px4/workspace/PX4Firmware/Build/px4io-v2_default.build/nuttx-export/libs\libnuttx.a(arch-stm32_dma.o)
 .bss           0x00000000        0x0 c:/px4/workspace/PX4Firmware/Build/px4io-v2_default.build/nuttx-export/libs\libnuttx.a(arch-stm32_dma.o)
 .text          0x00000000        0x0 c:/px4/workspace/PX4Firmware/Build/px4io-v2_default.build/nuttx-export/libs\libnuttx.a(arch-stm32_gpio.o)
 .data          0x00000000        0x0 c:/px4/workspace/PX4Firmware/Build/px4io-v2_default.build/nuttx-export/libs\libnuttx.a(arch-stm32_gpio.o)
 .bss           0x00000000        0x0 c:/px4/workspace/PX4Firmware/Build/px4io-v2_default.build/nuttx-export/libs\libnuttx.a(arch-stm32_gpio.o)
 .text.stm32_unconfiggpio
                0x00000000        0xc c:/px4/workspace/PX4Firmware/Build/px4io-v2_default.build/nuttx-export/libs\libnuttx.a(arch-stm32_gpio.o)
 .text          0x00000000        0x0 c:/px4/workspace/PX4Firmware/Build/px4io-v2_default.build/nuttx-export/libs\libnuttx.a(arch-stm32_irq.o)
 .data          0x00000000        0x0 c:/px4/workspace/PX4Firmware/Build/px4io-v2_default.build/nuttx-export/libs\libnuttx.a(arch-stm32_irq.o)
 .bss           0x00000000        0x0 c:/px4/workspace/PX4Firmware/Build/px4io-v2_default.build/nuttx-export/libs\libnuttx.a(arch-stm32_irq.o)
 .text          0x00000000        0x0 c:/px4/workspace/PX4Firmware/Build/px4io-v2_default.build/nuttx-export/libs\libnuttx.a(arch-stm32_serial.o)
 .data          0x00000000        0x0 c:/px4/workspace/PX4Firmware/Build/px4io-v2_default.build/nuttx-export/libs\libnuttx.a(arch-stm32_serial.o)
 .bss           0x00000000        0x0 c:/px4/workspace/PX4Firmware/Build/px4io-v2_default.build/nuttx-export/libs\libnuttx.a(arch-stm32_serial.o)
 .text          0x00000000        0x0 c:/px4/workspace/PX4Firmware/Build/px4io-v2_default.build/nuttx-export/libs\libnuttx.a(arch-stm32_start.o)
 .data          0x00000000        0x0 c:/px4/workspace/PX4Firmware/Build/px4io-v2_default.build/nuttx-export/libs\libnuttx.a(arch-stm32_start.o)
 .bss           0x00000000        0x0 c:/px4/workspace/PX4Firmware/Build/px4io-v2_default.build/nuttx-export/libs\libnuttx.a(arch-stm32_start.o)
 .text          0x00000000        0x0 c:/px4/workspace/PX4Firmware/Build/px4io-v2_default.build/nuttx-export/libs\libnuttx.a(arch-up_assert.o)
 .data          0x00000000        0x0 c:/px4/workspace/PX4Firmware/Build/px4io-v2_default.build/nuttx-export/libs\libnuttx.a(arch-up_assert.o)
 .bss           0x00000000        0x0 c:/px4/workspace/PX4Firmware/Build/px4io-v2_default.build/nuttx-export/libs\libnuttx.a(arch-up_assert.o)
 .text          0x00000000        0x0 c:/px4/workspace/PX4Firmware/Build/px4io-v2_default.build/nuttx-export/libs\libnuttx.a(arch-up_hardfault.o)
 .data          0x00000000        0x0 c:/px4/workspace/PX4Firmware/Build/px4io-v2_default.build/nuttx-export/libs\libnuttx.a(arch-up_hardfault.o)
 .bss           0x00000000        0x0 c:/px4/workspace/PX4Firmware/Build/px4io-v2_default.build/nuttx-export/libs\libnuttx.a(arch-up_hardfault.o)
 .text          0x00000000        0x0 c:/px4/workspace/PX4Firmware/Build/px4io-v2_default.build/nuttx-export/libs\libnuttx.a(arch-up_modifyreg32.o)
 .data          0x00000000        0x0 c:/px4/workspace/PX4Firmware/Build/px4io-v2_default.build/nuttx-export/libs\libnuttx.a(arch-up_modifyreg32.o)
 .bss           0x00000000        0x0 c:/px4/workspace/PX4Firmware/Build/px4io-v2_default.build/nuttx-export/libs\libnuttx.a(arch-up_modifyreg32.o)
 .text          0x00000000        0x0 c:/px4/workspace/PX4Firmware/Build/px4io-v2_default.build/nuttx-export/libs\libnuttx.a(arch-up_svcall.o)
 .data          0x00000000        0x0 c:/px4/workspace/PX4Firmware/Build/px4io-v2_default.build/nuttx-export/libs\libnuttx.a(arch-up_svcall.o)
 .bss           0x00000000        0x0 c:/px4/workspace/PX4Firmware/Build/px4io-v2_default.build/nuttx-export/libs\libnuttx.a(arch-up_svcall.o)
 .text          0x00000000        0x0 c:/px4/workspace/PX4Firmware/Build/px4io-v2_default.build/nuttx-export/libs\libnuttx.a(arch-up_systemreset.o)
 .data          0x00000000        0x0 c:/px4/workspace/PX4Firmware/Build/px4io-v2_default.build/nuttx-export/libs\libnuttx.a(arch-up_systemreset.o)
 .bss           0x00000000        0x0 c:/px4/workspace/PX4Firmware/Build/px4io-v2_default.build/nuttx-export/libs\libnuttx.a(arch-up_systemreset.o)
 .text          0x00000000        0x0 c:/px4/workspace/PX4Firmware/Build/px4io-v2_default.build/nuttx-export/libs\libnuttx.a(arch-up_udelay.o)
 .data          0x00000000        0x0 c:/px4/workspace/PX4Firmware/Build/px4io-v2_default.build/nuttx-export/libs\libnuttx.a(arch-up_udelay.o)
 .bss           0x00000000        0x0 c:/px4/workspace/PX4Firmware/Build/px4io-v2_default.build/nuttx-export/libs\libnuttx.a(arch-up_udelay.o)
 .text          0x00000000        0x0 c:/px4/workspace/PX4Firmware/Build/px4io-v2_default.build/nuttx-export/libs\libnuttx.a(arch-up_vectors.o)
 .data          0x00000000        0x0 c:/px4/workspace/PX4Firmware/Build/px4io-v2_default.build/nuttx-export/libs\libnuttx.a(arch-up_vectors.o)
 .bss           0x00000000        0x0 c:/px4/workspace/PX4Firmware/Build/px4io-v2_default.build/nuttx-export/libs\libnuttx.a(arch-up_vectors.o)
 .text          0x00000000        0x0 c:/px4/workspace/PX4Firmware/Build/px4io-v2_default.build/nuttx-export/libs\libnuttx.a(cxx-libxx_cxa_atexit.o)
 .data          0x00000000        0x0 c:/px4/workspace/PX4Firmware/Build/px4io-v2_default.build/nuttx-export/libs\libnuttx.a(cxx-libxx_cxa_atexit.o)
 .bss           0x00000000        0x0 c:/px4/workspace/PX4Firmware/Build/px4io-v2_default.build/nuttx-export/libs\libnuttx.a(cxx-libxx_cxa_atexit.o)
 .text          0x00000000        0x0 c:/px4/workspace/PX4Firmware/Build/px4io-v2_default.build/nuttx-export/libs\libnuttx.a(cxx-libxx_cxapurevirtual.o)
 .data          0x00000000        0x0 c:/px4/workspace/PX4Firmware/Build/px4io-v2_default.build/nuttx-export/libs\libnuttx.a(cxx-libxx_cxapurevirtual.o)
 .bss           0x00000000        0x0 c:/px4/workspace/PX4Firmware/Build/px4io-v2_default.build/nuttx-export/libs\libnuttx.a(cxx-libxx_cxapurevirtual.o)
 .text          0x00000000        0x0 c:/px4/workspace/PX4Firmware/Build/px4io-v2_default.build/nuttx-export/libs\libnuttx.a(cxx-libxx_delete.o)
 .data          0x00000000        0x0 c:/px4/workspace/PX4Firmware/Build/px4io-v2_default.build/nuttx-export/libs\libnuttx.a(cxx-libxx_delete.o)
 .bss           0x00000000        0x0 c:/px4/workspace/PX4Firmware/Build/px4io-v2_default.build/nuttx-export/libs\libnuttx.a(cxx-libxx_delete.o)
 .text          0x00000000        0x0 c:/px4/workspace/PX4Firmware/Build/px4io-v2_default.build/nuttx-export/libs\libnuttx.a(cxx-libxx_eabi_atexit.o)
 .data          0x00000000        0x0 c:/px4/workspace/PX4Firmware/Build/px4io-v2_default.build/nuttx-export/libs\libnuttx.a(cxx-libxx_eabi_atexit.o)
 .bss           0x00000000        0x0 c:/px4/workspace/PX4Firmware/Build/px4io-v2_default.build/nuttx-export/libs\libnuttx.a(cxx-libxx_eabi_atexit.o)
 .text          0x00000000        0x0 c:/px4/workspace/PX4Firmware/Build/px4io-v2_default.build/nuttx-export/libs\libnuttx.a(cxx-libxx_new.o)
 .data          0x00000000        0x0 c:/px4/workspace/PX4Firmware/Build/px4io-v2_default.build/nuttx-export/libs\libnuttx.a(cxx-libxx_new.o)
 .bss           0x00000000        0x0 c:/px4/workspace/PX4Firmware/Build/px4io-v2_default.build/nuttx-export/libs\libnuttx.a(cxx-libxx_new.o)
 .text          0x00000000        0x0 c:/px4/workspace/PX4Firmware/Build/px4io-v2_default.build/nuttx-export/libs\libnuttx.a(fs-fs_ioctl.o)
 .data          0x00000000        0x0 c:/px4/workspace/PX4Firmware/Build/px4io-v2_default.build/nuttx-export/libs\libnuttx.a(fs-fs_ioctl.o)
 .bss           0x00000000        0x0 c:/px4/workspace/PX4Firmware/Build/px4io-v2_default.build/nuttx-export/libs\libnuttx.a(fs-fs_ioctl.o)
 .text          0x00000000        0x0 c:/px4/workspace/PX4Firmware/Build/px4io-v2_default.build/nuttx-export/libs\libnuttx.a(fs-fs_open.o)
 .data          0x00000000        0x0 c:/px4/workspace/PX4Firmware/Build/px4io-v2_default.build/nuttx-export/libs\libnuttx.a(fs-fs_open.o)
 .bss           0x00000000        0x0 c:/px4/workspace/PX4Firmware/Build/px4io-v2_default.build/nuttx-export/libs\libnuttx.a(fs-fs_open.o)
 .text          0x00000000        0x0 c:/px4/workspace/PX4Firmware/Build/px4io-v2_default.build/nuttx-export/libs\libnuttx.a(fs-fs_read.o)
 .data          0x00000000        0x0 c:/px4/workspace/PX4Firmware/Build/px4io-v2_default.build/nuttx-export/libs\libnuttx.a(fs-fs_read.o)
 .bss           0x00000000        0x0 c:/px4/workspace/PX4Firmware/Build/px4io-v2_default.build/nuttx-export/libs\libnuttx.a(fs-fs_read.o)
 .text          0x00000000        0x0 c:/px4/workspace/PX4Firmware/Build/px4io-v2_default.build/nuttx-export/libs\libnuttx.a(fs-fs_write.o)
 .data          0x00000000        0x0 c:/px4/workspace/PX4Firmware/Build/px4io-v2_default.build/nuttx-export/libs\libnuttx.a(fs-fs_write.o)
 .bss           0x00000000        0x0 c:/px4/workspace/PX4Firmware/Build/px4io-v2_default.build/nuttx-export/libs\libnuttx.a(fs-fs_write.o)
 .text.write    0x00000000       0x58 c:/px4/workspace/PX4Firmware/Build/px4io-v2_default.build/nuttx-export/libs\libnuttx.a(fs-fs_write.o)
 .text          0x00000000        0x0 c:/px4/workspace/PX4Firmware/Build/px4io-v2_default.build/nuttx-export/libs\libnuttx.a(drivers-serial.o)
 .data          0x00000000        0x0 c:/px4/workspace/PX4Firmware/Build/px4io-v2_default.build/nuttx-export/libs\libnuttx.a(drivers-serial.o)
 .bss           0x00000000        0x0 c:/px4/workspace/PX4Firmware/Build/px4io-v2_default.build/nuttx-export/libs\libnuttx.a(drivers-serial.o)
 .text          0x00000000        0x0 c:/px4/workspace/PX4Firmware/Build/px4io-v2_default.build/nuttx-export/libs\libnuttx.a(drivers-serialirq.o)
 .data          0x00000000        0x0 c:/px4/workspace/PX4Firmware/Build/px4io-v2_default.build/nuttx-export/libs\libnuttx.a(drivers-serialirq.o)
 .bss           0x00000000        0x0 c:/px4/workspace/PX4Firmware/Build/px4io-v2_default.build/nuttx-export/libs\libnuttx.a(drivers-serialirq.o)
 .text          0x00000000        0x0 c:/px4/workspace/PX4Firmware/Build/px4io-v2_default.build/nuttx-export/libs\libnuttx.a(sched-errno_getptr.o)
 .data          0x00000000        0x0 c:/px4/workspace/PX4Firmware/Build/px4io-v2_default.build/nuttx-export/libs\libnuttx.a(sched-errno_getptr.o)
 .bss           0x00000000        0x0 c:/px4/workspace/PX4Firmware/Build/px4io-v2_default.build/nuttx-export/libs\libnuttx.a(sched-errno_getptr.o)
 .text          0x00000000        0x0 c:/px4/workspace/PX4Firmware/Build/px4io-v2_default.build/nuttx-export/libs\libnuttx.a(sched-exit.o)
 .data          0x00000000        0x0 c:/px4/workspace/PX4Firmware/Build/px4io-v2_default.build/nuttx-export/libs\libnuttx.a(sched-exit.o)
 .bss           0x00000000        0x0 c:/px4/workspace/PX4Firmware/Build/px4io-v2_default.build/nuttx-export/libs\libnuttx.a(sched-exit.o)
 .text          0x00000000        0x0 c:/px4/workspace/PX4Firmware/Build/px4io-v2_default.build/nuttx-export/libs\libnuttx.a(sched-getpid.o)
 .data          0x00000000        0x0 c:/px4/workspace/PX4Firmware/Build/px4io-v2_default.build/nuttx-export/libs\libnuttx.a(sched-getpid.o)
 .bss           0x00000000        0x0 c:/px4/workspace/PX4Firmware/Build/px4io-v2_default.build/nuttx-export/libs\libnuttx.a(sched-getpid.o)
 .text          0x00000000        0x0 c:/px4/workspace/PX4Firmware/Build/px4io-v2_default.build/nuttx-export/libs\libnuttx.a(sched-os_start.o)
 .data          0x00000000        0x0 c:/px4/workspace/PX4Firmware/Build/px4io-v2_default.build/nuttx-export/libs\libnuttx.a(sched-os_start.o)
 .bss           0x00000000        0x0 c:/px4/workspace/PX4Firmware/Build/px4io-v2_default.build/nuttx-export/libs\libnuttx.a(sched-os_start.o)
 .text          0x00000000        0x0 c:/px4/workspace/PX4Firmware/Build/px4io-v2_default.build/nuttx-export/libs\libnuttx.a(sched-sched_garbage.o)
 .data          0x00000000        0x0 c:/px4/workspace/PX4Firmware/Build/px4io-v2_default.build/nuttx-export/libs\libnuttx.a(sched-sched_garbage.o)
 .bss           0x00000000        0x0 c:/px4/workspace/PX4Firmware/Build/px4io-v2_default.build/nuttx-export/libs\libnuttx.a(sched-sched_garbage.o)
 .text          0x00000000        0x0 c:/px4/workspace/PX4Firmware/Build/px4io-v2_default.build/nuttx-export/libs\libnuttx.a(sched-sched_getfiles.o)
 .data          0x00000000        0x0 c:/px4/workspace/PX4Firmware/Build/px4io-v2_default.build/nuttx-export/libs\libnuttx.a(sched-sched_getfiles.o)
 .bss           0x00000000        0x0 c:/px4/workspace/PX4Firmware/Build/px4io-v2_default.build/nuttx-export/libs\libnuttx.a(sched-sched_getfiles.o)
 .text          0x00000000        0x0 c:/px4/workspace/PX4Firmware/Build/px4io-v2_default.build/nuttx-export/libs\libnuttx.a(sched-sem_post.o)
 .data          0x00000000        0x0 c:/px4/workspace/PX4Firmware/Build/px4io-v2_default.build/nuttx-export/libs\libnuttx.a(sched-sem_post.o)
 .bss           0x00000000        0x0 c:/px4/workspace/PX4Firmware/Build/px4io-v2_default.build/nuttx-export/libs\libnuttx.a(sched-sem_post.o)
 .text          0x00000000        0x0 c:/px4/workspace/PX4Firmware/Build/px4io-v2_default.build/nuttx-export/libs\libnuttx.a(sched-sem_trywait.o)
 .data          0x00000000        0x0 c:/px4/workspace/PX4Firmware/Build/px4io-v2_default.build/nuttx-export/libs\libnuttx.a(sched-sem_trywait.o)
 .bss           0x00000000        0x0 c:/px4/workspace/PX4Firmware/Build/px4io-v2_default.build/nuttx-export/libs\libnuttx.a(sched-sem_trywait.o)
 .text          0x00000000        0x0 c:/px4/workspace/PX4Firmware/Build/px4io-v2_default.build/nuttx-export/libs\libnuttx.a(sched-sem_wait.o)
 .data          0x00000000        0x0 c:/px4/workspace/PX4Firmware/Build/px4io-v2_default.build/nuttx-export/libs\libnuttx.a(sched-sem_wait.o)
 .bss           0x00000000        0x0 c:/px4/workspace/PX4Firmware/Build/px4io-v2_default.build/nuttx-export/libs\libnuttx.a(sched-sem_wait.o)
 .text          0x00000000        0x0 c:/px4/workspace/PX4Firmware/Build/px4io-v2_default.build/nuttx-export/libs\libnuttx.a(sched-task_exithook.o)
 .data          0x00000000        0x0 c:/px4/workspace/PX4Firmware/Build/px4io-v2_default.build/nuttx-export/libs\libnuttx.a(sched-task_exithook.o)
 .bss           0x00000000        0x0 c:/px4/workspace/PX4Firmware/Build/px4io-v2_default.build/nuttx-export/libs\libnuttx.a(sched-task_exithook.o)
 .text          0x00000000        0x0 c:/px4/workspace/PX4Firmware/Build/px4io-v2_default.build/nuttx-export/libs\libnuttx.a(sched-task_recover.o)
 .data          0x00000000        0x0 c:/px4/workspace/PX4Firmware/Build/px4io-v2_default.build/nuttx-export/libs\libnuttx.a(sched-task_recover.o)
 .bss           0x00000000        0x0 c:/px4/workspace/PX4Firmware/Build/px4io-v2_default.build/nuttx-export/libs\libnuttx.a(sched-task_recover.o)
 .text          0x00000000        0x0 c:/px4/workspace/PX4Firmware/Build/px4io-v2_default.build/nuttx-export/libs\libnuttx.a(sched-wd_cancel.o)
 .data          0x00000000        0x0 c:/px4/workspace/PX4Firmware/Build/px4io-v2_default.build/nuttx-export/libs\libnuttx.a(sched-wd_cancel.o)
 .bss           0x00000000        0x0 c:/px4/workspace/PX4Firmware/Build/px4io-v2_default.build/nuttx-export/libs\libnuttx.a(sched-wd_cancel.o)
 .text          0x00000000        0x0 c:/px4/workspace/PX4Firmware/Build/px4io-v2_default.build/nuttx-export/libs\libnuttx.a(sched-wd_delete.o)
 .data          0x00000000        0x0 c:/px4/workspace/PX4Firmware/Build/px4io-v2_default.build/nuttx-export/libs\libnuttx.a(sched-wd_delete.o)
 .bss           0x00000000        0x0 c:/px4/workspace/PX4Firmware/Build/px4io-v2_default.build/nuttx-export/libs\libnuttx.a(sched-wd_delete.o)
 .text          0x00000000        0x0 c:/px4/workspace/PX4Firmware/Build/px4io-v2_default.build/nuttx-export/libs\libnuttx.a(sched-wd_initialize.o)
 .data          0x00000000        0x0 c:/px4/workspace/PX4Firmware/Build/px4io-v2_default.build/nuttx-export/libs\libnuttx.a(sched-wd_initialize.o)
 .bss           0x00000000        0x0 c:/px4/workspace/PX4Firmware/Build/px4io-v2_default.build/nuttx-export/libs\libnuttx.a(sched-wd_initialize.o)
 .text          0x00000000        0x0 c:/px4/workspace/PX4Firmware/Build/px4io-v2_default.build/nuttx-export/libs\libnuttx.a(c-dq_addfirst.o)
 .data          0x00000000        0x0 c:/px4/workspace/PX4Firmware/Build/px4io-v2_default.build/nuttx-export/libs\libnuttx.a(c-dq_addfirst.o)
 .bss           0x00000000        0x0 c:/px4/workspace/PX4Firmware/Build/px4io-v2_default.build/nuttx-export/libs\libnuttx.a(c-dq_addfirst.o)
 .text          0x00000000        0x0 c:/px4/workspace/PX4Firmware/Build/px4io-v2_default.build/nuttx-export/libs\libnuttx.a(c-lib_cfgetspeed.o)
 .data          0x00000000        0x0 c:/px4/workspace/PX4Firmware/Build/px4io-v2_default.build/nuttx-export/libs\libnuttx.a(c-lib_cfgetspeed.o)
 .bss           0x00000000        0x0 c:/px4/workspace/PX4Firmware/Build/px4io-v2_default.build/nuttx-export/libs\libnuttx.a(c-lib_cfgetspeed.o)
 .text          0x00000000        0x0 c:/px4/workspace/PX4Firmware/Build/px4io-v2_default.build/nuttx-export/libs\libnuttx.a(c-lib_checkbase.o)
 .data          0x00000000        0x0 c:/px4/workspace/PX4Firmware/Build/px4io-v2_default.build/nuttx-export/libs\libnuttx.a(c-lib_checkbase.o)
 .bss           0x00000000        0x0 c:/px4/workspace/PX4Firmware/Build/px4io-v2_default.build/nuttx-export/libs\libnuttx.a(c-lib_checkbase.o)
 .text          0x00000000        0x0 c:/px4/workspace/PX4Firmware/Build/px4io-v2_default.build/nuttx-export/libs\libnuttx.a(c-lib_isbasedigit.o)
 .data          0x00000000        0x0 c:/px4/workspace/PX4Firmware/Build/px4io-v2_default.build/nuttx-export/libs\libnuttx.a(c-lib_isbasedigit.o)
 .bss           0x00000000        0x0 c:/px4/workspace/PX4Firmware/Build/px4io-v2_default.build/nuttx-export/libs\libnuttx.a(c-lib_isbasedigit.o)
 .text          0x00000000        0x0 c:/px4/workspace/PX4Firmware/Build/px4io-v2_default.build/nuttx-export/libs\libnuttx.a(c-lib_libvsprintf.o)
 .data          0x00000000        0x0 c:/px4/workspace/PX4Firmware/Build/px4io-v2_default.build/nuttx-export/libs\libnuttx.a(c-lib_libvsprintf.o)
 .bss           0x00000000        0x0 c:/px4/workspace/PX4Firmware/Build/px4io-v2_default.build/nuttx-export/libs\libnuttx.a(c-lib_libvsprintf.o)
 .text          0x00000000        0x0 c:/px4/workspace/PX4Firmware/Build/px4io-v2_default.build/nuttx-export/libs\libnuttx.a(c-lib_lowoutstream.o)
 .data          0x00000000        0x0 c:/px4/workspace/PX4Firmware/Build/px4io-v2_default.build/nuttx-export/libs\libnuttx.a(c-lib_lowoutstream.o)
 .bss           0x00000000        0x0 c:/px4/workspace/PX4Firmware/Build/px4io-v2_default.build/nuttx-export/libs\libnuttx.a(c-lib_lowoutstream.o)
 .text          0x00000000        0x0 c:/px4/workspace/PX4Firmware/Build/px4io-v2_default.build/nuttx-export/libs\libnuttx.a(c-lib_memoutstream.o)
 .data          0x00000000        0x0 c:/px4/workspace/PX4Firmware/Build/px4io-v2_default.build/nuttx-export/libs\libnuttx.a(c-lib_memoutstream.o)
 .bss           0x00000000        0x0 c:/px4/workspace/PX4Firmware/Build/px4io-v2_default.build/nuttx-export/libs\libnuttx.a(c-lib_memoutstream.o)
 .text          0x00000000        0x0 c:/px4/workspace/PX4Firmware/Build/px4io-v2_default.build/nuttx-export/libs\libnuttx.a(c-lib_nulloutstream.o)
 .data          0x00000000        0x0 c:/px4/workspace/PX4Firmware/Build/px4io-v2_default.build/nuttx-export/libs\libnuttx.a(c-lib_nulloutstream.o)
 .bss           0x00000000        0x0 c:/px4/workspace/PX4Firmware/Build/px4io-v2_default.build/nuttx-export/libs\libnuttx.a(c-lib_nulloutstream.o)
 .text          0x00000000        0x0 c:/px4/workspace/PX4Firmware/Build/px4io-v2_default.build/nuttx-export/libs\libnuttx.a(c-lib_rawoutstream.o)
 .data          0x00000000        0x0 c:/px4/workspace/PX4Firmware/Build/px4io-v2_default.build/nuttx-export/libs\libnuttx.a(c-lib_rawoutstream.o)
 .bss           0x00000000        0x0 c:/px4/workspace/PX4Firmware/Build/px4io-v2_default.build/nuttx-export/libs\libnuttx.a(c-lib_rawoutstream.o)
 .text.rawoutstream_putc
                0x00000000       0x2c c:/px4/workspace/PX4Firmware/Build/px4io-v2_default.build/nuttx-export/libs\libnuttx.a(c-lib_rawoutstream.o)
 .text.lib_rawoutstream
                0x00000000       0x10 c:/px4/workspace/PX4Firmware/Build/px4io-v2_default.build/nuttx-export/libs\libnuttx.a(c-lib_rawoutstream.o)
 .text          0x00000000        0x0 c:/px4/workspace/PX4Firmware/Build/px4io-v2_default.build/nuttx-export/libs\libnuttx.a(c-lib_skipspace.o)
 .data          0x00000000        0x0 c:/px4/workspace/PX4Firmware/Build/px4io-v2_default.build/nuttx-export/libs\libnuttx.a(c-lib_skipspace.o)
 .bss           0x00000000        0x0 c:/px4/workspace/PX4Firmware/Build/px4io-v2_default.build/nuttx-export/libs\libnuttx.a(c-lib_skipspace.o)
 .text          0x00000000        0x0 c:/px4/workspace/PX4Firmware/Build/px4io-v2_default.build/nuttx-export/libs\libnuttx.a(c-lib_strcpy.o)
 .data          0x00000000        0x0 c:/px4/workspace/PX4Firmware/Build/px4io-v2_default.build/nuttx-export/libs\libnuttx.a(c-lib_strcpy.o)
 .bss           0x00000000        0x0 c:/px4/workspace/PX4Firmware/Build/px4io-v2_default.build/nuttx-export/libs\libnuttx.a(c-lib_strcpy.o)
 .text          0x00000000        0x0 c:/px4/workspace/PX4Firmware/Build/px4io-v2_default.build/nuttx-export/libs\libnuttx.a(c-lib_strlen.o)
 .data          0x00000000        0x0 c:/px4/workspace/PX4Firmware/Build/px4io-v2_default.build/nuttx-export/libs\libnuttx.a(c-lib_strlen.o)
 .bss           0x00000000        0x0 c:/px4/workspace/PX4Firmware/Build/px4io-v2_default.build/nuttx-export/libs\libnuttx.a(c-lib_strlen.o)
 .text          0x00000000        0x0 c:/px4/workspace/PX4Firmware/Build/px4io-v2_default.build/nuttx-export/libs\libnuttx.a(c-sem_init.o)
 .data          0x00000000        0x0 c:/px4/workspace/PX4Firmware/Build/px4io-v2_default.build/nuttx-export/libs\libnuttx.a(c-sem_init.o)
 .bss           0x00000000        0x0 c:/px4/workspace/PX4Firmware/Build/px4io-v2_default.build/nuttx-export/libs\libnuttx.a(c-sem_init.o)
 .text          0x00000000        0x0 c:/px4/workspace/PX4Firmware/Build/px4io-v2_default.build/nuttx-export/libs\libnuttx.a(c-sq_remfirst.o)
 .data          0x00000000        0x0 c:/px4/workspace/PX4Firmware/Build/px4io-v2_default.build/nuttx-export/libs\libnuttx.a(c-sq_remfirst.o)
 .bss           0x00000000        0x0 c:/px4/workspace/PX4Firmware/Build/px4io-v2_default.build/nuttx-export/libs\libnuttx.a(c-sq_remfirst.o)
 .text          0x00000000        0x0 c:/px4/workspace/PX4Firmware/Build/px4io-v2_default.build/nuttx-export/libs\libnuttx.a(mm-mm_addfreechunk.o)
 .data          0x00000000        0x0 c:/px4/workspace/PX4Firmware/Build/px4io-v2_default.build/nuttx-export/libs\libnuttx.a(mm-mm_addfreechunk.o)
 .bss           0x00000000        0x0 c:/px4/workspace/PX4Firmware/Build/px4io-v2_default.build/nuttx-export/libs\libnuttx.a(mm-mm_addfreechunk.o)
 .text          0x00000000        0x0 c:/px4/workspace/PX4Firmware/Build/px4io-v2_default.build/nuttx-export/libs\libnuttx.a(mm-mm_initialize.o)
 .data          0x00000000        0x0 c:/px4/workspace/PX4Firmware/Build/px4io-v2_default.build/nuttx-export/libs\libnuttx.a(mm-mm_initialize.o)
 .bss           0x00000000        0x0 c:/px4/workspace/PX4Firmware/Build/px4io-v2_default.build/nuttx-export/libs\libnuttx.a(mm-mm_initialize.o)
 .text          0x00000000        0x0 c:/px4/workspace/PX4Firmware/Build/px4io-v2_default.build/nuttx-export/libs\libnuttx.a(arch-stm32_allocateheap.o)
 .data          0x00000000        0x0 c:/px4/workspace/PX4Firmware/Build/px4io-v2_default.build/nuttx-export/libs\libnuttx.a(arch-stm32_allocateheap.o)
 .bss           0x00000000        0x0 c:/px4/workspace/PX4Firmware/Build/px4io-v2_default.build/nuttx-export/libs\libnuttx.a(arch-stm32_allocateheap.o)
 .text          0x00000000        0x0 c:/px4/workspace/PX4Firmware/Build/px4io-v2_default.build/nuttx-export/libs\libnuttx.a(arch-stm32_idle.o)
 .data          0x00000000        0x0 c:/px4/workspace/PX4Firmware/Build/px4io-v2_default.build/nuttx-export/libs\libnuttx.a(arch-stm32_idle.o)
 .bss           0x00000000        0x0 c:/px4/workspace/PX4Firmware/Build/px4io-v2_default.build/nuttx-export/libs\libnuttx.a(arch-stm32_idle.o)
 .text          0x00000000        0x0 c:/px4/workspace/PX4Firmware/Build/px4io-v2_default.build/nuttx-export/libs\libnuttx.a(arch-stm32_lowputc.o)
 .data          0x00000000        0x0 c:/px4/workspace/PX4Firmware/Build/px4io-v2_default.build/nuttx-export/libs\libnuttx.a(arch-stm32_lowputc.o)
 .bss           0x00000000        0x0 c:/px4/workspace/PX4Firmware/Build/px4io-v2_default.build/nuttx-export/libs\libnuttx.a(arch-stm32_lowputc.o)
 .text          0x00000000        0x0 c:/px4/workspace/PX4Firmware/Build/px4io-v2_default.build/nuttx-export/libs\libnuttx.a(arch-stm32_rcc.o)
 .data          0x00000000        0x0 c:/px4/workspace/PX4Firmware/Build/px4io-v2_default.build/nuttx-export/libs\libnuttx.a(arch-stm32_rcc.o)
 .bss           0x00000000        0x0 c:/px4/workspace/PX4Firmware/Build/px4io-v2_default.build/nuttx-export/libs\libnuttx.a(arch-stm32_rcc.o)
 .text          0x00000000        0x0 c:/px4/workspace/PX4Firmware/Build/px4io-v2_default.build/nuttx-export/libs\libnuttx.a(arch-stm32_vectors.o)
 .data          0x00000000        0x0 c:/px4/workspace/PX4Firmware/Build/px4io-v2_default.build/nuttx-export/libs\libnuttx.a(arch-stm32_vectors.o)
 .bss           0x00000000        0x0 c:/px4/workspace/PX4Firmware/Build/px4io-v2_default.build/nuttx-export/libs\libnuttx.a(arch-stm32_vectors.o)
 .text          0x00000000        0x0 c:/px4/workspace/PX4Firmware/Build/px4io-v2_default.build/nuttx-export/libs\libnuttx.a(arch-up_blocktask.o)
 .data          0x00000000        0x0 c:/px4/workspace/PX4Firmware/Build/px4io-v2_default.build/nuttx-export/libs\libnuttx.a(arch-up_blocktask.o)
 .bss           0x00000000        0x0 c:/px4/workspace/PX4Firmware/Build/px4io-v2_default.build/nuttx-export/libs\libnuttx.a(arch-up_blocktask.o)
 .text          0x00000000        0x0 c:/px4/workspace/PX4Firmware/Build/px4io-v2_default.build/nuttx-export/libs\libnuttx.a(arch-up_copystate.o)
 .data          0x00000000        0x0 c:/px4/workspace/PX4Firmware/Build/px4io-v2_default.build/nuttx-export/libs\libnuttx.a(arch-up_copystate.o)
 .bss           0x00000000        0x0 c:/px4/workspace/PX4Firmware/Build/px4io-v2_default.build/nuttx-export/libs\libnuttx.a(arch-up_copystate.o)
 .data          0x00000000        0x0 c:/px4/workspace/PX4Firmware/Build/px4io-v2_default.build/nuttx-export/libs\libnuttx.a(arch-up_exception.o)
 .bss           0x00000000        0x0 c:/px4/workspace/PX4Firmware/Build/px4io-v2_default.build/nuttx-export/libs\libnuttx.a(arch-up_exception.o)
 .text          0x00000000        0x0 c:/px4/workspace/PX4Firmware/Build/px4io-v2_default.build/nuttx-export/libs\libnuttx.a(arch-up_exit.o)
 .data          0x00000000        0x0 c:/px4/workspace/PX4Firmware/Build/px4io-v2_default.build/nuttx-export/libs\libnuttx.a(arch-up_exit.o)
 .bss           0x00000000        0x0 c:/px4/workspace/PX4Firmware/Build/px4io-v2_default.build/nuttx-export/libs\libnuttx.a(arch-up_exit.o)
 .data          0x00000000        0x0 c:/px4/workspace/PX4Firmware/Build/px4io-v2_default.build/nuttx-export/libs\libnuttx.a(arch-up_fullcontextrestore.o)
 .bss           0x00000000        0x0 c:/px4/workspace/PX4Firmware/Build/px4io-v2_default.build/nuttx-export/libs\libnuttx.a(arch-up_fullcontextrestore.o)
 .text          0x00000000        0x0 c:/px4/workspace/PX4Firmware/Build/px4io-v2_default.build/nuttx-export/libs\libnuttx.a(arch-up_initialize.o)
 .data          0x00000000        0x0 c:/px4/workspace/PX4Firmware/Build/px4io-v2_default.build/nuttx-export/libs\libnuttx.a(arch-up_initialize.o)
 .bss           0x00000000        0x0 c:/px4/workspace/PX4Firmware/Build/px4io-v2_default.build/nuttx-export/libs\libnuttx.a(arch-up_initialize.o)
 .text          0x00000000        0x0 c:/px4/workspace/PX4Firmware/Build/px4io-v2_default.build/nuttx-export/libs\libnuttx.a(arch-up_initialstate.o)
 .data          0x00000000        0x0 c:/px4/workspace/PX4Firmware/Build/px4io-v2_default.build/nuttx-export/libs\libnuttx.a(arch-up_initialstate.o)
 .bss           0x00000000        0x0 c:/px4/workspace/PX4Firmware/Build/px4io-v2_default.build/nuttx-export/libs\libnuttx.a(arch-up_initialstate.o)
 .text          0x00000000        0x0 c:/px4/workspace/PX4Firmware/Build/px4io-v2_default.build/nuttx-export/libs\libnuttx.a(arch-up_interruptcontext.o)
 .data          0x00000000        0x0 c:/px4/workspace/PX4Firmware/Build/px4io-v2_default.build/nuttx-export/libs\libnuttx.a(arch-up_interruptcontext.o)
 .bss           0x00000000        0x0 c:/px4/workspace/PX4Firmware/Build/px4io-v2_default.build/nuttx-export/libs\libnuttx.a(arch-up_interruptcontext.o)
 .text          0x00000000        0x0 c:/px4/workspace/PX4Firmware/Build/px4io-v2_default.build/nuttx-export/libs\libnuttx.a(arch-up_mdelay.o)
 .data          0x00000000        0x0 c:/px4/workspace/PX4Firmware/Build/px4io-v2_default.build/nuttx-export/libs\libnuttx.a(arch-up_mdelay.o)
 .bss           0x00000000        0x0 c:/px4/workspace/PX4Firmware/Build/px4io-v2_default.build/nuttx-export/libs\libnuttx.a(arch-up_mdelay.o)
 .data          0x00000000        0x0 c:/px4/workspace/PX4Firmware/Build/px4io-v2_default.build/nuttx-export/libs\libnuttx.a(arch-up_switchcontext.o)
 .bss           0x00000000        0x0 c:/px4/workspace/PX4Firmware/Build/px4io-v2_default.build/nuttx-export/libs\libnuttx.a(arch-up_switchcontext.o)
 .text          0x00000000        0x0 c:/px4/workspace/PX4Firmware/Build/px4io-v2_default.build/nuttx-export/libs\libnuttx.a(arch-up_unblocktask.o)
 .data          0x00000000        0x0 c:/px4/workspace/PX4Firmware/Build/px4io-v2_default.build/nuttx-export/libs\libnuttx.a(arch-up_unblocktask.o)
 .bss           0x00000000        0x0 c:/px4/workspace/PX4Firmware/Build/px4io-v2_default.build/nuttx-export/libs\libnuttx.a(arch-up_unblocktask.o)
 .text          0x00000000        0x0 c:/px4/workspace/PX4Firmware/Build/px4io-v2_default.build/nuttx-export/libs\libnuttx.a(fs-fs_files.o)
 .data          0x00000000        0x0 c:/px4/workspace/PX4Firmware/Build/px4io-v2_default.build/nuttx-export/libs\libnuttx.a(fs-fs_files.o)
 .bss           0x00000000        0x0 c:/px4/workspace/PX4Firmware/Build/px4io-v2_default.build/nuttx-export/libs\libnuttx.a(fs-fs_files.o)
 .text          0x00000000        0x0 c:/px4/workspace/PX4Firmware/Build/px4io-v2_default.build/nuttx-export/libs\libnuttx.a(fs-fs_inodeaddref.o)
 .data          0x00000000        0x0 c:/px4/workspace/PX4Firmware/Build/px4io-v2_default.build/nuttx-export/libs\libnuttx.a(fs-fs_inodeaddref.o)
 .bss           0x00000000        0x0 c:/px4/workspace/PX4Firmware/Build/px4io-v2_default.build/nuttx-export/libs\libnuttx.a(fs-fs_inodeaddref.o)
 .text          0x00000000        0x0 c:/px4/workspace/PX4Firmware/Build/px4io-v2_default.build/nuttx-export/libs\libnuttx.a(fs-fs_inodefind.o)
 .data          0x00000000        0x0 c:/px4/workspace/PX4Firmware/Build/px4io-v2_default.build/nuttx-export/libs\libnuttx.a(fs-fs_inodefind.o)
 .bss           0x00000000        0x0 c:/px4/workspace/PX4Firmware/Build/px4io-v2_default.build/nuttx-export/libs\libnuttx.a(fs-fs_inodefind.o)
 .text          0x00000000        0x0 c:/px4/workspace/PX4Firmware/Build/px4io-v2_default.build/nuttx-export/libs\libnuttx.a(fs-fs_inoderelease.o)
 .data          0x00000000        0x0 c:/px4/workspace/PX4Firmware/Build/px4io-v2_default.build/nuttx-export/libs\libnuttx.a(fs-fs_inoderelease.o)
 .bss           0x00000000        0x0 c:/px4/workspace/PX4Firmware/Build/px4io-v2_default.build/nuttx-export/libs\libnuttx.a(fs-fs_inoderelease.o)
 .text          0x00000000        0x0 c:/px4/workspace/PX4Firmware/Build/px4io-v2_default.build/nuttx-export/libs\libnuttx.a(fs-fs_registerdriver.o)
 .data          0x00000000        0x0 c:/px4/workspace/PX4Firmware/Build/px4io-v2_default.build/nuttx-export/libs\libnuttx.a(fs-fs_registerdriver.o)
 .bss           0x00000000        0x0 c:/px4/workspace/PX4Firmware/Build/px4io-v2_default.build/nuttx-export/libs\libnuttx.a(fs-fs_registerdriver.o)
 .text          0x00000000        0x0 c:/px4/workspace/PX4Firmware/Build/px4io-v2_default.build/nuttx-export/libs\libnuttx.a(sched-group_create.o)
 .data          0x00000000        0x0 c:/px4/workspace/PX4Firmware/Build/px4io-v2_default.build/nuttx-export/libs\libnuttx.a(sched-group_create.o)
 .bss           0x00000000        0x0 c:/px4/workspace/PX4Firmware/Build/px4io-v2_default.build/nuttx-export/libs\libnuttx.a(sched-group_create.o)
 .text          0x00000000        0x0 c:/px4/workspace/PX4Firmware/Build/px4io-v2_default.build/nuttx-export/libs\libnuttx.a(sched-group_leave.o)
 .data          0x00000000        0x0 c:/px4/workspace/PX4Firmware/Build/px4io-v2_default.build/nuttx-export/libs\libnuttx.a(sched-group_leave.o)
 .bss           0x00000000        0x0 c:/px4/workspace/PX4Firmware/Build/px4io-v2_default.build/nuttx-export/libs\libnuttx.a(sched-group_leave.o)
 .text          0x00000000        0x0 c:/px4/workspace/PX4Firmware/Build/px4io-v2_default.build/nuttx-export/libs\libnuttx.a(sched-group_setupidlefiles.o)
 .data          0x00000000        0x0 c:/px4/workspace/PX4Firmware/Build/px4io-v2_default.build/nuttx-export/libs\libnuttx.a(sched-group_setupidlefiles.o)
 .bss           0x00000000        0x0 c:/px4/workspace/PX4Firmware/Build/px4io-v2_default.build/nuttx-export/libs\libnuttx.a(sched-group_setupidlefiles.o)
 .text          0x00000000        0x0 c:/px4/workspace/PX4Firmware/Build/px4io-v2_default.build/nuttx-export/libs\libnuttx.a(sched-os_bringup.o)
 .data          0x00000000        0x0 c:/px4/workspace/PX4Firmware/Build/px4io-v2_default.build/nuttx-export/libs\libnuttx.a(sched-os_bringup.o)
 .bss           0x00000000        0x0 c:/px4/workspace/PX4Firmware/Build/px4io-v2_default.build/nuttx-export/libs\libnuttx.a(sched-os_bringup.o)
 .text          0x00000000        0x0 c:/px4/workspace/PX4Firmware/Build/px4io-v2_default.build/nuttx-export/libs\libnuttx.a(sched-sched_addblocked.o)
 .data          0x00000000        0x0 c:/px4/workspace/PX4Firmware/Build/px4io-v2_default.build/nuttx-export/libs\libnuttx.a(sched-sched_addblocked.o)
 .bss           0x00000000        0x0 c:/px4/workspace/PX4Firmware/Build/px4io-v2_default.build/nuttx-export/libs\libnuttx.a(sched-sched_addblocked.o)
 .text          0x00000000        0x0 c:/px4/workspace/PX4Firmware/Build/px4io-v2_default.build/nuttx-export/libs\libnuttx.a(sched-sched_addprioritized.o)
 .data          0x00000000        0x0 c:/px4/workspace/PX4Firmware/Build/px4io-v2_default.build/nuttx-export/libs\libnuttx.a(sched-sched_addprioritized.o)
 .bss           0x00000000        0x0 c:/px4/workspace/PX4Firmware/Build/px4io-v2_default.build/nuttx-export/libs\libnuttx.a(sched-sched_addprioritized.o)
 .text          0x00000000        0x0 c:/px4/workspace/PX4Firmware/Build/px4io-v2_default.build/nuttx-export/libs\libnuttx.a(sched-sched_addreadytorun.o)
 .data          0x00000000        0x0 c:/px4/workspace/PX4Firmware/Build/px4io-v2_default.build/nuttx-export/libs\libnuttx.a(sched-sched_addreadytorun.o)
 .bss           0x00000000        0x0 c:/px4/workspace/PX4Firmware/Build/px4io-v2_default.build/nuttx-export/libs\libnuttx.a(sched-sched_addreadytorun.o)
 .text          0x00000000        0x0 c:/px4/workspace/PX4Firmware/Build/px4io-v2_default.build/nuttx-export/libs\libnuttx.a(sched-sched_free.o)
 .data          0x00000000        0x0 c:/px4/workspace/PX4Firmware/Build/px4io-v2_default.build/nuttx-export/libs\libnuttx.a(sched-sched_free.o)
 .bss           0x00000000        0x0 c:/px4/workspace/PX4Firmware/Build/px4io-v2_default.build/nuttx-export/libs\libnuttx.a(sched-sched_free.o)
 .text          0x00000000        0x0 c:/px4/workspace/PX4Firmware/Build/px4io-v2_default.build/nuttx-export/libs\libnuttx.a(sched-sched_mergepending.o)
 .data          0x00000000        0x0 c:/px4/workspace/PX4Firmware/Build/px4io-v2_default.build/nuttx-export/libs\libnuttx.a(sched-sched_mergepending.o)
 .bss           0x00000000        0x0 c:/px4/workspace/PX4Firmware/Build/px4io-v2_default.build/nuttx-export/libs\libnuttx.a(sched-sched_mergepending.o)
 .text          0x00000000        0x0 c:/px4/workspace/PX4Firmware/Build/px4io-v2_default.build/nuttx-export/libs\libnuttx.a(sched-sched_removeblocked.o)
 .data          0x00000000        0x0 c:/px4/workspace/PX4Firmware/Build/px4io-v2_default.build/nuttx-export/libs\libnuttx.a(sched-sched_removeblocked.o)
 .bss           0x00000000        0x0 c:/px4/workspace/PX4Firmware/Build/px4io-v2_default.build/nuttx-export/libs\libnuttx.a(sched-sched_removeblocked.o)
 .text          0x00000000        0x0 c:/px4/workspace/PX4Firmware/Build/px4io-v2_default.build/nuttx-export/libs\libnuttx.a(sched-sched_removereadytorun.o)
 .data          0x00000000        0x0 c:/px4/workspace/PX4Firmware/Build/px4io-v2_default.build/nuttx-export/libs\libnuttx.a(sched-sched_removereadytorun.o)
 .bss           0x00000000        0x0 c:/px4/workspace/PX4Firmware/Build/px4io-v2_default.build/nuttx-export/libs\libnuttx.a(sched-sched_removereadytorun.o)
 .text          0x00000000        0x0 c:/px4/workspace/PX4Firmware/Build/px4io-v2_default.build/nuttx-export/libs\libnuttx.a(sched-sem_destroy.o)
 .data          0x00000000        0x0 c:/px4/workspace/PX4Firmware/Build/px4io-v2_default.build/nuttx-export/libs\libnuttx.a(sched-sem_destroy.o)
 .bss           0x00000000        0x0 c:/px4/workspace/PX4Firmware/Build/px4io-v2_default.build/nuttx-export/libs\libnuttx.a(sched-sem_destroy.o)
 .text          0x00000000        0x0 c:/px4/workspace/PX4Firmware/Build/px4io-v2_default.build/nuttx-export/libs\libnuttx.a(sched-task_create.o)
 .data          0x00000000        0x0 c:/px4/workspace/PX4Firmware/Build/px4io-v2_default.build/nuttx-export/libs\libnuttx.a(sched-task_create.o)
 .bss           0x00000000        0x0 c:/px4/workspace/PX4Firmware/Build/px4io-v2_default.build/nuttx-export/libs\libnuttx.a(sched-task_create.o)
 .text.kernel_thread
                0x00000000       0x18 c:/px4/workspace/PX4Firmware/Build/px4io-v2_default.build/nuttx-export/libs\libnuttx.a(sched-task_create.o)
 .text          0x00000000        0x0 c:/px4/workspace/PX4Firmware/Build/px4io-v2_default.build/nuttx-export/libs\libnuttx.a(sched-task_exit.o)
 .data          0x00000000        0x0 c:/px4/workspace/PX4Firmware/Build/px4io-v2_default.build/nuttx-export/libs\libnuttx.a(sched-task_exit.o)
 .bss           0x00000000        0x0 c:/px4/workspace/PX4Firmware/Build/px4io-v2_default.build/nuttx-export/libs\libnuttx.a(sched-task_exit.o)
 .text          0x00000000        0x0 c:/px4/workspace/PX4Firmware/Build/px4io-v2_default.build/nuttx-export/libs\libnuttx.a(sched-task_setup.o)
 .data          0x00000000        0x0 c:/px4/workspace/PX4Firmware/Build/px4io-v2_default.build/nuttx-export/libs\libnuttx.a(sched-task_setup.o)
 .bss           0x00000000        0x0 c:/px4/workspace/PX4Firmware/Build/px4io-v2_default.build/nuttx-export/libs\libnuttx.a(sched-task_setup.o)
 .text          0x00000000        0x0 c:/px4/workspace/PX4Firmware/Build/px4io-v2_default.build/nuttx-export/libs\libnuttx.a(sched-task_start.o)
 .data          0x00000000        0x0 c:/px4/workspace/PX4Firmware/Build/px4io-v2_default.build/nuttx-export/libs\libnuttx.a(sched-task_start.o)
 .bss           0x00000000        0x0 c:/px4/workspace/PX4Firmware/Build/px4io-v2_default.build/nuttx-export/libs\libnuttx.a(sched-task_start.o)
 .text          0x00000000        0x0 c:/px4/workspace/PX4Firmware/Build/px4io-v2_default.build/nuttx-export/libs\libnuttx.a(sched-task_terminate.o)
 .data          0x00000000        0x0 c:/px4/workspace/PX4Firmware/Build/px4io-v2_default.build/nuttx-export/libs\libnuttx.a(sched-task_terminate.o)
 .bss           0x00000000        0x0 c:/px4/workspace/PX4Firmware/Build/px4io-v2_default.build/nuttx-export/libs\libnuttx.a(sched-task_terminate.o)
 .text          0x00000000        0x0 c:/px4/workspace/PX4Firmware/Build/px4io-v2_default.build/nuttx-export/libs\libnuttx.a(c-dq_addlast.o)
 .data          0x00000000        0x0 c:/px4/workspace/PX4Firmware/Build/px4io-v2_default.build/nuttx-export/libs\libnuttx.a(c-dq_addlast.o)
 .bss           0x00000000        0x0 c:/px4/workspace/PX4Firmware/Build/px4io-v2_default.build/nuttx-export/libs\libnuttx.a(c-dq_addlast.o)
 .text          0x00000000        0x0 c:/px4/workspace/PX4Firmware/Build/px4io-v2_default.build/nuttx-export/libs\libnuttx.a(c-dq_rem.o)
 .data          0x00000000        0x0 c:/px4/workspace/PX4Firmware/Build/px4io-v2_default.build/nuttx-export/libs\libnuttx.a(c-dq_rem.o)
 .bss           0x00000000        0x0 c:/px4/workspace/PX4Firmware/Build/px4io-v2_default.build/nuttx-export/libs\libnuttx.a(c-dq_rem.o)
 .text          0x00000000        0x0 c:/px4/workspace/PX4Firmware/Build/px4io-v2_default.build/nuttx-export/libs\libnuttx.a(c-lib_strdup.o)
 .data          0x00000000        0x0 c:/px4/workspace/PX4Firmware/Build/px4io-v2_default.build/nuttx-export/libs\libnuttx.a(c-lib_strdup.o)
 .bss           0x00000000        0x0 c:/px4/workspace/PX4Firmware/Build/px4io-v2_default.build/nuttx-export/libs\libnuttx.a(c-lib_strdup.o)
 .text          0x00000000        0x0 c:/px4/workspace/PX4Firmware/Build/px4io-v2_default.build/nuttx-export/libs\libnuttx.a(arch-stm32_timerisr.o)
 .data          0x00000000        0x0 c:/px4/workspace/PX4Firmware/Build/px4io-v2_default.build/nuttx-export/libs\libnuttx.a(arch-stm32_timerisr.o)
 .bss           0x00000000        0x0 c:/px4/workspace/PX4Firmware/Build/px4io-v2_default.build/nuttx-export/libs\libnuttx.a(arch-stm32_timerisr.o)
 .text          0x00000000        0x0 c:/px4/workspace/PX4Firmware/Build/px4io-v2_default.build/nuttx-export/libs\libnuttx.a(arch-up_createstack.o)
 .data          0x00000000        0x0 c:/px4/workspace/PX4Firmware/Build/px4io-v2_default.build/nuttx-export/libs\libnuttx.a(arch-up_createstack.o)
 .bss           0x00000000        0x0 c:/px4/workspace/PX4Firmware/Build/px4io-v2_default.build/nuttx-export/libs\libnuttx.a(arch-up_createstack.o)
 .text          0x00000000        0x0 c:/px4/workspace/PX4Firmware/Build/px4io-v2_default.build/nuttx-export/libs\libnuttx.a(arch-up_doirq.o)
 .data          0x00000000        0x0 c:/px4/workspace/PX4Firmware/Build/px4io-v2_default.build/nuttx-export/libs\libnuttx.a(arch-up_doirq.o)
 .bss           0x00000000        0x0 c:/px4/workspace/PX4Firmware/Build/px4io-v2_default.build/nuttx-export/libs\libnuttx.a(arch-up_doirq.o)
 .text          0x00000000        0x0 c:/px4/workspace/PX4Firmware/Build/px4io-v2_default.build/nuttx-export/libs\libnuttx.a(arch-up_releasestack.o)
 .data          0x00000000        0x0 c:/px4/workspace/PX4Firmware/Build/px4io-v2_default.build/nuttx-export/libs\libnuttx.a(arch-up_releasestack.o)
 .bss           0x00000000        0x0 c:/px4/workspace/PX4Firmware/Build/px4io-v2_default.build/nuttx-export/libs\libnuttx.a(arch-up_releasestack.o)
 .text          0x00000000        0x0 c:/px4/workspace/PX4Firmware/Build/px4io-v2_default.build/nuttx-export/libs\libnuttx.a(fs-fs_close.o)
 .data          0x00000000        0x0 c:/px4/workspace/PX4Firmware/Build/px4io-v2_default.build/nuttx-export/libs\libnuttx.a(fs-fs_close.o)
 .bss           0x00000000        0x0 c:/px4/workspace/PX4Firmware/Build/px4io-v2_default.build/nuttx-export/libs\libnuttx.a(fs-fs_close.o)
 .text          0x00000000        0x0 c:/px4/workspace/PX4Firmware/Build/px4io-v2_default.build/nuttx-export/libs\libnuttx.a(fs-fs_filedup2.o)
 .data          0x00000000        0x0 c:/px4/workspace/PX4Firmware/Build/px4io-v2_default.build/nuttx-export/libs\libnuttx.a(fs-fs_filedup2.o)
 .bss           0x00000000        0x0 c:/px4/workspace/PX4Firmware/Build/px4io-v2_default.build/nuttx-export/libs\libnuttx.a(fs-fs_filedup2.o)
 .text          0x00000000        0x0 c:/px4/workspace/PX4Firmware/Build/px4io-v2_default.build/nuttx-export/libs\libnuttx.a(fs-fs_inode.o)
 .data          0x00000000        0x0 c:/px4/workspace/PX4Firmware/Build/px4io-v2_default.build/nuttx-export/libs\libnuttx.a(fs-fs_inode.o)
 .bss           0x00000000        0x0 c:/px4/workspace/PX4Firmware/Build/px4io-v2_default.build/nuttx-export/libs\libnuttx.a(fs-fs_inode.o)
 .text          0x00000000        0x0 c:/px4/workspace/PX4Firmware/Build/px4io-v2_default.build/nuttx-export/libs\libnuttx.a(fs-fs_inodereserve.o)
 .data          0x00000000        0x0 c:/px4/workspace/PX4Firmware/Build/px4io-v2_default.build/nuttx-export/libs\libnuttx.a(fs-fs_inodereserve.o)
 .bss           0x00000000        0x0 c:/px4/workspace/PX4Firmware/Build/px4io-v2_default.build/nuttx-export/libs\libnuttx.a(fs-fs_inodereserve.o)
 .text          0x00000000        0x0 c:/px4/workspace/PX4Firmware/Build/px4io-v2_default.build/nuttx-export/libs\libnuttx.a(sched-group_setuptaskfiles.o)
 .data          0x00000000        0x0 c:/px4/workspace/PX4Firmware/Build/px4io-v2_default.build/nuttx-export/libs\libnuttx.a(sched-group_setuptaskfiles.o)
 .bss           0x00000000        0x0 c:/px4/workspace/PX4Firmware/Build/px4io-v2_default.build/nuttx-export/libs\libnuttx.a(sched-group_setuptaskfiles.o)
 .text          0x00000000        0x0 c:/px4/workspace/PX4Firmware/Build/px4io-v2_default.build/nuttx-export/libs\libnuttx.a(sched-irq_dispatch.o)
 .data          0x00000000        0x0 c:/px4/workspace/PX4Firmware/Build/px4io-v2_default.build/nuttx-export/libs\libnuttx.a(sched-irq_dispatch.o)
 .bss           0x00000000        0x0 c:/px4/workspace/PX4Firmware/Build/px4io-v2_default.build/nuttx-export/libs\libnuttx.a(sched-irq_dispatch.o)
 .text          0x00000000        0x0 c:/px4/workspace/PX4Firmware/Build/px4io-v2_default.build/nuttx-export/libs\libnuttx.a(sched-sched_gettcb.o)
 .data          0x00000000        0x0 c:/px4/workspace/PX4Firmware/Build/px4io-v2_default.build/nuttx-export/libs\libnuttx.a(sched-sched_gettcb.o)
 .bss           0x00000000        0x0 c:/px4/workspace/PX4Firmware/Build/px4io-v2_default.build/nuttx-export/libs\libnuttx.a(sched-sched_gettcb.o)
 .text          0x00000000        0x0 c:/px4/workspace/PX4Firmware/Build/px4io-v2_default.build/nuttx-export/libs\libnuttx.a(sched-sched_lock.o)
 .data          0x00000000        0x0 c:/px4/workspace/PX4Firmware/Build/px4io-v2_default.build/nuttx-export/libs\libnuttx.a(sched-sched_lock.o)
 .bss           0x00000000        0x0 c:/px4/workspace/PX4Firmware/Build/px4io-v2_default.build/nuttx-export/libs\libnuttx.a(sched-sched_lock.o)
 .text          0x00000000        0x0 c:/px4/workspace/PX4Firmware/Build/px4io-v2_default.build/nuttx-export/libs\libnuttx.a(sched-sched_processtimer.o)
 .data          0x00000000        0x0 c:/px4/workspace/PX4Firmware/Build/px4io-v2_default.build/nuttx-export/libs\libnuttx.a(sched-sched_processtimer.o)
 .bss           0x00000000        0x0 c:/px4/workspace/PX4Firmware/Build/px4io-v2_default.build/nuttx-export/libs\libnuttx.a(sched-sched_processtimer.o)
 .text          0x00000000        0x0 c:/px4/workspace/PX4Firmware/Build/px4io-v2_default.build/nuttx-export/libs\libnuttx.a(sched-sched_releasetcb.o)
 .data          0x00000000        0x0 c:/px4/workspace/PX4Firmware/Build/px4io-v2_default.build/nuttx-export/libs\libnuttx.a(sched-sched_releasetcb.o)
 .bss           0x00000000        0x0 c:/px4/workspace/PX4Firmware/Build/px4io-v2_default.build/nuttx-export/libs\libnuttx.a(sched-sched_releasetcb.o)
 .text          0x00000000        0x0 c:/px4/workspace/PX4Firmware/Build/px4io-v2_default.build/nuttx-export/libs\libnuttx.a(sched-sched_unlock.o)
 .data          0x00000000        0x0 c:/px4/workspace/PX4Firmware/Build/px4io-v2_default.build/nuttx-export/libs\libnuttx.a(sched-sched_unlock.o)
 .bss           0x00000000        0x0 c:/px4/workspace/PX4Firmware/Build/px4io-v2_default.build/nuttx-export/libs\libnuttx.a(sched-sched_unlock.o)
 .text          0x00000000        0x0 c:/px4/workspace/PX4Firmware/Build/px4io-v2_default.build/nuttx-export/libs\libnuttx.a(sched-task_activate.o)
 .data          0x00000000        0x0 c:/px4/workspace/PX4Firmware/Build/px4io-v2_default.build/nuttx-export/libs\libnuttx.a(sched-task_activate.o)
 .bss           0x00000000        0x0 c:/px4/workspace/PX4Firmware/Build/px4io-v2_default.build/nuttx-export/libs\libnuttx.a(sched-task_activate.o)
 .text          0x00000000        0x0 c:/px4/workspace/PX4Firmware/Build/px4io-v2_default.build/nuttx-export/libs\libnuttx.a(arch-up_releasepending.o)
 .data          0x00000000        0x0 c:/px4/workspace/PX4Firmware/Build/px4io-v2_default.build/nuttx-export/libs\libnuttx.a(arch-up_releasepending.o)
 .bss           0x00000000        0x0 c:/px4/workspace/PX4Firmware/Build/px4io-v2_default.build/nuttx-export/libs\libnuttx.a(arch-up_releasepending.o)
 .data          0x00000000        0x0 c:/px4/toolchain/bin/../lib/gcc/arm-none-eabi/4.6.2/armv7-m/libgcc.a(_lshrdi3.o)
 .bss           0x00000000        0x0 c:/px4/toolchain/bin/../lib/gcc/arm-none-eabi/4.6.2/armv7-m/libgcc.a(_lshrdi3.o)
 .data          0x00000000        0x0 c:/px4/toolchain/bin/../lib/gcc/arm-none-eabi/4.6.2/armv7-m/libgcc.a(_arm_addsubsf3.o)
 .bss           0x00000000        0x0 c:/px4/toolchain/bin/../lib/gcc/arm-none-eabi/4.6.2/armv7-m/libgcc.a(_arm_addsubsf3.o)
 .data          0x00000000        0x0 c:/px4/toolchain/bin/../lib/gcc/arm-none-eabi/4.6.2/armv7-m/libgcc.a(_arm_muldivsf3.o)
 .bss           0x00000000        0x0 c:/px4/toolchain/bin/../lib/gcc/arm-none-eabi/4.6.2/armv7-m/libgcc.a(_arm_muldivsf3.o)
 .data          0x00000000        0x0 c:/px4/toolchain/bin/../lib/gcc/arm-none-eabi/4.6.2/armv7-m/libgcc.a(_arm_cmpsf2.o)
 .bss           0x00000000        0x0 c:/px4/toolchain/bin/../lib/gcc/arm-none-eabi/4.6.2/armv7-m/libgcc.a(_arm_cmpsf2.o)
 .data          0x00000000        0x0 c:/px4/toolchain/bin/../lib/gcc/arm-none-eabi/4.6.2/armv7-m/libgcc.a(_arm_fixsfsi.o)
 .bss           0x00000000        0x0 c:/px4/toolchain/bin/../lib/gcc/arm-none-eabi/4.6.2/armv7-m/libgcc.a(_arm_fixsfsi.o)
 .data          0x00000000        0x0 c:/px4/toolchain/bin/../lib/gcc/arm-none-eabi/4.6.2/armv7-m/libgcc.a(_arm_fixunssfsi.o)
 .bss           0x00000000        0x0 c:/px4/toolchain/bin/../lib/gcc/arm-none-eabi/4.6.2/armv7-m/libgcc.a(_arm_fixunssfsi.o)
 .data          0x00000000        0x0 c:/px4/toolchain/bin/../lib/gcc/arm-none-eabi/4.6.2/armv7-m/libgcc.a(_aeabi_uldivmod.o)
 .bss           0x00000000        0x0 c:/px4/toolchain/bin/../lib/gcc/arm-none-eabi/4.6.2/armv7-m/libgcc.a(_aeabi_uldivmod.o)
 .data          0x00000000        0x0 c:/px4/toolchain/bin/../lib/gcc/arm-none-eabi/4.6.2/armv7-m/libgcc.a(bpabi.o)
 .bss           0x00000000        0x0 c:/px4/toolchain/bin/../lib/gcc/arm-none-eabi/4.6.2/armv7-m/libgcc.a(bpabi.o)
 .data          0x00000000        0x0 c:/px4/toolchain/bin/../lib/gcc/arm-none-eabi/4.6.2/armv7-m/libgcc.a(_dvmd_tls.o)
 .bss           0x00000000        0x0 c:/px4/toolchain/bin/../lib/gcc/arm-none-eabi/4.6.2/armv7-m/libgcc.a(_dvmd_tls.o)
 .data          0x00000000        0x0 c:/px4/toolchain/bin/../lib/gcc/arm-none-eabi/4.6.2/armv7-m/libgcc.a(_divdi3.o)
 .bss           0x00000000        0x0 c:/px4/toolchain/bin/../lib/gcc/arm-none-eabi/4.6.2/armv7-m/libgcc.a(_divdi3.o)
 .ARM.extab     0x00000000        0x0 c:/px4/toolchain/bin/../lib/gcc/arm-none-eabi/4.6.2/armv7-m/libgcc.a(_divdi3.o)
 .data          0x00000000        0x0 c:/px4/toolchain/bin/../lib/gcc/arm-none-eabi/4.6.2/armv7-m/libgcc.a(_udivdi3.o)
 .bss           0x00000000        0x0 c:/px4/toolchain/bin/../lib/gcc/arm-none-eabi/4.6.2/armv7-m/libgcc.a(_udivdi3.o)
 .ARM.extab     0x00000000        0x0 c:/px4/toolchain/bin/../lib/gcc/arm-none-eabi/4.6.2/armv7-m/libgcc.a(_udivdi3.o)

Memory Configuration

Name             Origin             Length             Attributes
flash            0x08001000         0x0000f000         xr
sram             0x20000000         0x00002000         xrw
*default*        0x00000000         0xffffffff

Linker script and memory map


.text           0x08001000     0xb488
                0x08001000                _stext = ABSOLUTE (.)
 *(.vectors)
 .vectors       0x08001000      0x134 c:/px4/workspace/PX4Firmware/Build/px4io-v2_default.build/nuttx-export/libs\libnuttx.a(arch-up_vectors.o)
                0x08001000                _vectors
 *(.text .text.*)
 .text.stm32_boardinitialize
                0x08001134      0x108 c:/px4/workspace/PX4Firmware/Build/px4io-v2_default.build/c/px4/workspace/PX4Firmware/src/drivers/boards/px4io-v2/module.pre.o
                0x08001134                stm32_boardinitialize
 .text.hrt_call_enter
                0x0800123c       0xf0 c:/px4/workspace/PX4Firmware/Build/px4io-v2_default.build/c/px4/workspace/PX4Firmware/src/drivers/stm32/module.pre.o
 .text.hrt_tim_isr
                0x0800132c      0x4d8 c:/px4/workspace/PX4Firmware/Build/px4io-v2_default.build/c/px4/workspace/PX4Firmware/src/drivers/stm32/module.pre.o
 .text.hrt_absolute_time
                0x08001804       0x50 c:/px4/workspace/PX4Firmware/Build/px4io-v2_default.build/c/px4/workspace/PX4Firmware/src/drivers/stm32/module.pre.o
                0x08001804                hrt_absolute_time
 .text.hrt_elapsed_time
                0x08001854       0x6c c:/px4/workspace/PX4Firmware/Build/px4io-v2_default.build/c/px4/workspace/PX4Firmware/src/drivers/stm32/module.pre.o
                0x08001854                hrt_elapsed_time
 .text.hrt_init
                0x080018c0       0xe4 c:/px4/workspace/PX4Firmware/Build/px4io-v2_default.build/c/px4/workspace/PX4Firmware/src/drivers/stm32/module.pre.o
                0x080018c0                hrt_init
 .text.hrt_call_every
                0x080019a4       0xa0 c:/px4/workspace/PX4Firmware/Build/px4io-v2_default.build/c/px4/workspace/PX4Firmware/src/drivers/stm32/module.pre.o
                0x080019a4                hrt_call_every
 .text.up_pwm_servo_set
                0x08001a44       0x64 c:/px4/workspace/PX4Firmware/Build/px4io-v2_default.build/c/px4/workspace/PX4Firmware/src/drivers/stm32/module.pre.o
                0x08001a44                up_pwm_servo_set
 .text.up_pwm_servo_init
                0x08001aa8      0x6d4 c:/px4/workspace/PX4Firmware/Build/px4io-v2_default.build/c/px4/workspace/PX4Firmware/src/drivers/stm32/module.pre.o
                0x08001aa8                up_pwm_servo_init
 .text.up_pwm_servo_set_rate_group_update
                0x0800217c       0x44 c:/px4/workspace/PX4Firmware/Build/px4io-v2_default.build/c/px4/workspace/PX4Firmware/src/drivers/stm32/module.pre.o
                0x0800217c                up_pwm_servo_set_rate_group_update
 .text.up_pwm_servo_get_rate_group
                0x080021c0       0x9c c:/px4/workspace/PX4Firmware/Build/px4io-v2_default.build/c/px4/workspace/PX4Firmware/src/drivers/stm32/module.pre.o
                0x080021c0                up_pwm_servo_get_rate_group
 .text.up_pwm_servo_arm
                0x0800225c       0x68 c:/px4/workspace/PX4Firmware/Build/px4io-v2_default.build/c/px4/workspace/PX4Firmware/src/drivers/stm32/module.pre.o
                0x0800225c                up_pwm_servo_arm
 .text.adc_init
                0x080022c4       0xc4 c:/px4/workspace/PX4Firmware/Build/px4io-v2_default.build/c/px4/workspace/PX4Firmware/src/modules/px4iofirmware/module.pre.o
 .text.adc_measure
                0x08002388       0xa0 c:/px4/workspace/PX4Firmware/Build/px4io-v2_default.build/c/px4/workspace/PX4Firmware/src/modules/px4iofirmware/module.pre.o
 .text.controls_init
                0x08002428       0xb0 c:/px4/workspace/PX4Firmware/Build/px4io-v2_default.build/c/px4/workspace/PX4Firmware/src/modules/px4iofirmware/module.pre.o
 .text.controls_tick
                0x080024d8      0x740 c:/px4/workspace/PX4Firmware/Build/px4io-v2_default.build/c/px4/workspace/PX4Firmware/src/modules/px4iofirmware/module.pre.o
 .text.dsm_guess_format
                0x08002c18      0x254 c:/px4/workspace/PX4Firmware/Build/px4io-v2_default.build/c/px4/workspace/PX4Firmware/src/modules/px4iofirmware/module.pre.o
 .text.dsm_init
                0x08002e6c       0x7c c:/px4/workspace/PX4Firmware/Build/px4io-v2_default.build/c/px4/workspace/PX4Firmware/src/modules/px4iofirmware/module.pre.o
 .text.dsm_bind
                0x08002ee8      0x100 c:/px4/workspace/PX4Firmware/Build/px4io-v2_default.build/c/px4/workspace/PX4Firmware/src/modules/px4iofirmware/module.pre.o
 .text.dsm_input
                0x08002fe8      0x738 c:/px4/workspace/PX4Firmware/Build/px4io-v2_default.build/c/px4/workspace/PX4Firmware/src/modules/px4iofirmware/module.pre.o
 .text.isr_debug
                0x08003720       0x5c c:/px4/workspace/PX4Firmware/Build/px4io-v2_default.build/c/px4/workspace/PX4Firmware/src/modules/px4iofirmware/module.pre.o
 .text.schedule_reboot
                0x0800377c       0x1c c:/px4/workspace/PX4Firmware/Build/px4io-v2_default.build/c/px4/workspace/PX4Firmware/src/modules/px4iofirmware/module.pre.o
 .text.user_start
                0x08003798      0x33c c:/px4/workspace/PX4Firmware/Build/px4io-v2_default.build/c/px4/workspace/PX4Firmware/src/modules/px4iofirmware/module.pre.o
                0x08003798                user_start
 .text.pwm_configure_rates
                0x08003ad4      0x2fc c:/px4/workspace/PX4Firmware/Build/px4io-v2_default.build/c/px4/workspace/PX4Firmware/src/modules/px4iofirmware/module.pre.o
 .text.registers_set
                0x08003dd0      0x87c c:/px4/workspace/PX4Firmware/Build/px4io-v2_default.build/c/px4/workspace/PX4Firmware/src/modules/px4iofirmware/module.pre.o
 .text.registers_get
                0x0800464c      0x2c8 c:/px4/workspace/PX4Firmware/Build/px4io-v2_default.build/c/px4/workspace/PX4Firmware/src/modules/px4iofirmware/module.pre.o
 .text.safety_check_button
                0x08004914      0x104 c:/px4/workspace/PX4Firmware/Build/px4io-v2_default.build/c/px4/workspace/PX4Firmware/src/modules/px4iofirmware/module.pre.o
 .text.failsafe_blink
                0x08004a18       0x3c c:/px4/workspace/PX4Firmware/Build/px4io-v2_default.build/c/px4/workspace/PX4Firmware/src/modules/px4iofirmware/module.pre.o
 .text.safety_init
                0x08004a54       0x38 c:/px4/workspace/PX4Firmware/Build/px4io-v2_default.build/c/px4/workspace/PX4Firmware/src/modules/px4iofirmware/module.pre.o
 .text.failsafe_led_init
                0x08004a8c       0x38 c:/px4/workspace/PX4Firmware/Build/px4io-v2_default.build/c/px4/workspace/PX4Firmware/src/modules/px4iofirmware/module.pre.o
 .text.sbus_init
                0x08004ac4       0x80 c:/px4/workspace/PX4Firmware/Build/px4io-v2_default.build/c/px4/workspace/PX4Firmware/src/modules/px4iofirmware/module.pre.o
 .text.sbus_input
                0x08004b44      0x1e0 c:/px4/workspace/PX4Firmware/Build/px4io-v2_default.build/c/px4/workspace/PX4Firmware/src/modules/px4iofirmware/module.pre.o
 .text.up_cxxinitialize
                0x08004d24       0x94 c:/px4/workspace/PX4Firmware/Build/px4io-v2_default.build/c/px4/workspace/PX4Firmware/src/modules/px4iofirmware/module.pre.o
                0x08004d24                up_cxxinitialize
 .text.perf_alloc
                0x08004db8       0x50 c:/px4/workspace/PX4Firmware/Build/px4io-v2_default.build/c/px4/workspace/PX4Firmware/src/modules/px4iofirmware/module.pre.o
                0x08004db8                perf_alloc
 .text.perf_count
                0x08004e08       0xa8 c:/px4/workspace/PX4Firmware/Build/px4io-v2_default.build/c/px4/workspace/PX4Firmware/src/modules/px4iofirmware/module.pre.o
                0x08004e08                perf_count
 .text.perf_begin
                0x08004eb0       0x1c c:/px4/workspace/PX4Firmware/Build/px4io-v2_default.build/c/px4/workspace/PX4Firmware/src/modules/px4iofirmware/module.pre.o
                0x08004eb0                perf_begin
 .text.perf_end
                0x08004ecc       0x84 c:/px4/workspace/PX4Firmware/Build/px4io-v2_default.build/c/px4/workspace/PX4Firmware/src/modules/px4iofirmware/module.pre.o
                0x08004ecc                perf_end
 .text._ZL14mixer_callbackjhhRf
                0x08004f50       0xcc c:/px4/workspace/PX4Firmware/Build/px4io-v2_default.build/c/px4/workspace/PX4Firmware/src/modules/px4iofirmware/module.pre.o
 .text.mixer_tick
                0x0800501c      0x5ac c:/px4/workspace/PX4Firmware/Build/px4io-v2_default.build/c/px4/workspace/PX4Firmware/src/modules/px4iofirmware/module.pre.o
 .text.mixer_handle_text
                0x080055c8      0x2e0 c:/px4/workspace/PX4Firmware/Build/px4io-v2_default.build/c/px4/workspace/PX4Firmware/src/modules/px4iofirmware/module.pre.o
 .text.startup._GLOBAL__sub_I_mixer_tick
                0x080058a8       0x34 c:/px4/workspace/PX4Firmware/Build/px4io-v2_default.build/c/px4/workspace/PX4Firmware/src/modules/px4iofirmware/module.pre.o
 .text._ZN5MixerD2Ev
                0x080058dc        0xc c:/px4/workspace/PX4Firmware/Build/px4io-v2_default.build/c/px4/workspace/PX4Firmware/src/modules/px4iofirmware/module.pre.o
                0x080058dc                Mixer::~Mixer()
                0x080058dc                Mixer::~Mixer()
 .text._ZN9NullMixerD2Ev
                0x080058e8        0xc c:/px4/workspace/PX4Firmware/Build/px4io-v2_default.build/c/px4/workspace/PX4Firmware/src/modules/px4iofirmware/module.pre.o
                0x080058e8                NullMixer::~NullMixer()
                0x080058e8                NullMixer::~NullMixer()
 .text._ZN9NullMixer3mixEPfj
                0x080058f4       0x10 c:/px4/workspace/PX4Firmware/Build/px4io-v2_default.build/c/px4/workspace/PX4Firmware/src/modules/px4iofirmware/module.pre.o
                0x080058f4                NullMixer::mix(float*, unsigned int)
 .text._ZN9NullMixer15groups_requiredERj
                0x08005904        0x4 c:/px4/workspace/PX4Firmware/Build/px4io-v2_default.build/c/px4/workspace/PX4Firmware/src/modules/px4iofirmware/module.pre.o
                0x08005904                NullMixer::groups_required(unsigned int&)
 .text._ZN9NullMixerD0Ev
                0x08005908       0x14 c:/px4/workspace/PX4Firmware/Build/px4io-v2_default.build/c/px4/workspace/PX4Firmware/src/modules/px4iofirmware/module.pre.o
                0x08005908                NullMixer::~NullMixer()
 .text._ZN5MixerD0Ev
                0x0800591c       0x14 c:/px4/workspace/PX4Firmware/Build/px4io-v2_default.build/c/px4/workspace/PX4Firmware/src/modules/px4iofirmware/module.pre.o
                0x0800591c                Mixer::~Mixer()
 .text._ZN5MixerC2EPFijhhRfEj
                0x08005930       0x14 c:/px4/workspace/PX4Firmware/Build/px4io-v2_default.build/c/px4/workspace/PX4Firmware/src/modules/px4iofirmware/module.pre.o
                0x08005930                Mixer::Mixer(int (*)(unsigned int, unsigned char, unsigned char, float&), unsigned int)
                0x08005930                Mixer::Mixer(int (*)(unsigned int, unsigned char, unsigned char, float&), unsigned int)
 .text._ZN5Mixer11get_controlEhh
                0x08005944       0x14 c:/px4/workspace/PX4Firmware/Build/px4io-v2_default.build/c/px4/workspace/PX4Firmware/src/modules/px4iofirmware/module.pre.o
                0x08005944                Mixer::get_control(unsigned char, unsigned char)
 .text._ZN5Mixer5scaleERK14mixer_scaler_sf
                0x08005958       0x44 c:/px4/workspace/PX4Firmware/Build/px4io-v2_default.build/c/px4/workspace/PX4Firmware/src/modules/px4iofirmware/module.pre.o
                0x08005958                Mixer::scale(mixer_scaler_s const&, float)
 .text._ZN5Mixer7findtagEPKcRjc
                0x0800599c       0x70 c:/px4/workspace/PX4Firmware/Build/px4io-v2_default.build/c/px4/workspace/PX4Firmware/src/modules/px4iofirmware/module.pre.o
                0x0800599c                Mixer::findtag(char const*, unsigned int&, char)
 .text._ZN5Mixer8skiplineEPKcRj
                0x08005a0c       0x30 c:/px4/workspace/PX4Firmware/Build/px4io-v2_default.build/c/px4/workspace/PX4Firmware/src/modules/px4iofirmware/module.pre.o
                0x08005a0c                Mixer::skipline(char const*, unsigned int&)
 .text._ZN9NullMixer9from_textEPKcRj
                0x08005a3c       0x78 c:/px4/workspace/PX4Firmware/Build/px4io-v2_default.build/c/px4/workspace/PX4Firmware/src/modules/px4iofirmware/module.pre.o
                0x08005a3c                NullMixer::from_text(char const*, unsigned int&)
 .text._ZN10MixerGroupD2Ev
                0x08005ab4       0x30 c:/px4/workspace/PX4Firmware/Build/px4io-v2_default.build/c/px4/workspace/PX4Firmware/src/modules/px4iofirmware/module.pre.o
                0x08005ab4                MixerGroup::~MixerGroup()
                0x08005ab4                MixerGroup::~MixerGroup()
 .text._ZN10MixerGroup3mixEPfj
                0x08005ae4       0x34 c:/px4/workspace/PX4Firmware/Build/px4io-v2_default.build/c/px4/workspace/PX4Firmware/src/modules/px4iofirmware/module.pre.o
                0x08005ae4                MixerGroup::mix(float*, unsigned int)
 .text._ZN10MixerGroup15groups_requiredERj
                0x08005b18       0x1c c:/px4/workspace/PX4Firmware/Build/px4io-v2_default.build/c/px4/workspace/PX4Firmware/src/modules/px4iofirmware/module.pre.o
                0x08005b18                MixerGroup::groups_required(unsigned int&)
 .text._ZN10MixerGroupD0Ev
                0x08005b34       0x34 c:/px4/workspace/PX4Firmware/Build/px4io-v2_default.build/c/px4/workspace/PX4Firmware/src/modules/px4iofirmware/module.pre.o
                0x08005b34                MixerGroup::~MixerGroup()
 .text._ZN10MixerGroupC2EPFijhhRfEj
                0x08005b68       0x18 c:/px4/workspace/PX4Firmware/Build/px4io-v2_default.build/c/px4/workspace/PX4Firmware/src/modules/px4iofirmware/module.pre.o
                0x08005b68                MixerGroup::MixerGroup(int (*)(unsigned int, unsigned char, unsigned char, float&), unsigned int)
                0x08005b68                MixerGroup::MixerGroup(int (*)(unsigned int, unsigned char, unsigned char, float&), unsigned int)
 .text._ZN10MixerGroup5resetEv
                0x08005b80       0x1c c:/px4/workspace/PX4Firmware/Build/px4io-v2_default.build/c/px4/workspace/PX4Firmware/src/modules/px4iofirmware/module.pre.o
                0x08005b80                MixerGroup::reset()
 .text._ZN10MixerGroup13load_from_bufEPKcRj
                0x08005b9c       0x8c c:/px4/workspace/PX4Firmware/Build/px4io-v2_default.build/c/px4/workspace/PX4Firmware/src/modules/px4iofirmware/module.pre.o
                0x08005b9c                MixerGroup::load_from_buf(char const*, unsigned int&)
 .text._ZN15MultirotorMixerD2Ev
                0x08005c28        0xc c:/px4/workspace/PX4Firmware/Build/px4io-v2_default.build/c/px4/workspace/PX4Firmware/src/modules/px4iofirmware/module.pre.o
                0x08005c28                MultirotorMixer::~MultirotorMixer()
                0x08005c28                MultirotorMixer::~MultirotorMixer()
 .text._ZN15MultirotorMixer15groups_requiredERj
                0x08005c34        0xc c:/px4/workspace/PX4Firmware/Build/px4io-v2_default.build/c/px4/workspace/PX4Firmware/src/modules/px4iofirmware/module.pre.o
                0x08005c34                MultirotorMixer::groups_required(unsigned int&)
 .text._ZN15MultirotorMixer3mixEPfj
                0x08005c40      0x190 c:/px4/workspace/PX4Firmware/Build/px4io-v2_default.build/c/px4/workspace/PX4Firmware/src/modules/px4iofirmware/module.pre.o
                0x08005c40                MultirotorMixer::mix(float*, unsigned int)
 .text._ZN15MultirotorMixerD0Ev
                0x08005dd0       0x14 c:/px4/workspace/PX4Firmware/Build/px4io-v2_default.build/c/px4/workspace/PX4Firmware/src/modules/px4iofirmware/module.pre.o
                0x08005dd0                MultirotorMixer::~MultirotorMixer()
 .text._ZN15MultirotorMixer9from_textEPFijhhRfEjPKcRj
                0x08005de4      0x1e0 c:/px4/workspace/PX4Firmware/Build/px4io-v2_default.build/c/px4/workspace/PX4Firmware/src/modules/px4iofirmware/module.pre.o
                0x08005de4                MultirotorMixer::from_text(int (*)(unsigned int, unsigned char, unsigned char, float&), unsigned int, char const*, unsigned int&)
 .text._ZN11SimpleMixer15groups_requiredERj
                0x08005fc4       0x2c c:/px4/workspace/PX4Firmware/Build/px4io-v2_default.build/c/px4/workspace/PX4Firmware/src/modules/px4iofirmware/module.pre.o
                0x08005fc4                SimpleMixer::groups_required(unsigned int&)
 .text._ZN11SimpleMixerD2Ev
                0x08005ff0       0x20 c:/px4/workspace/PX4Firmware/Build/px4io-v2_default.build/c/px4/workspace/PX4Firmware/src/modules/px4iofirmware/module.pre.o
                0x08005ff0                SimpleMixer::~SimpleMixer()
                0x08005ff0                SimpleMixer::~SimpleMixer()
 .text._ZN11SimpleMixer3mixEPfj
                0x08006010       0x70 c:/px4/workspace/PX4Firmware/Build/px4io-v2_default.build/c/px4/workspace/PX4Firmware/src/modules/px4iofirmware/module.pre.o
                0x08006010                SimpleMixer::mix(float*, unsigned int)
 .text._ZN11SimpleMixerD0Ev
                0x08006080       0x28 c:/px4/workspace/PX4Firmware/Build/px4io-v2_default.build/c/px4/workspace/PX4Firmware/src/modules/px4iofirmware/module.pre.o
                0x08006080                SimpleMixer::~SimpleMixer()
 .text._ZN11SimpleMixer19parse_output_scalerEPKcRjR14mixer_scaler_s
                0x080060a8       0xcc c:/px4/workspace/PX4Firmware/Build/px4io-v2_default.build/c/px4/workspace/PX4Firmware/src/modules/px4iofirmware/module.pre.o
                0x080060a8                SimpleMixer::parse_output_scaler(char const*, unsigned int&, mixer_scaler_s&)
 .text._ZN11SimpleMixer20parse_control_scalerEPKcRjR14mixer_scaler_sRhS5_
                0x08006174       0xdc c:/px4/workspace/PX4Firmware/Build/px4io-v2_default.build/c/px4/workspace/PX4Firmware/src/modules/px4iofirmware/module.pre.o
                0x08006174                SimpleMixer::parse_control_scaler(char const*, unsigned int&, mixer_scaler_s&, unsigned char&, unsigned char&)
 .text._ZN11SimpleMixer9from_textEPFijhhRfEjPKcRj
                0x08006250       0xc0 c:/px4/workspace/PX4Firmware/Build/px4io-v2_default.build/c/px4/workspace/PX4Firmware/src/modules/px4iofirmware/module.pre.o
                0x08006250                SimpleMixer::from_text(int (*)(unsigned int, unsigned char, unsigned char, float&), unsigned int, char const*, unsigned int&)
 .text.pwm_limit_init
                0x08006310       0x10 c:/px4/workspace/PX4Firmware/Build/px4io-v2_default.build/c/px4/workspace/PX4Firmware/src/modules/px4iofirmware/module.pre.o
                0x08006310                pwm_limit_init
 .text.pwm_limit_calc
                0x08006320      0x568 c:/px4/workspace/PX4Firmware/Build/px4io-v2_default.build/c/px4/workspace/PX4Firmware/src/modules/px4iofirmware/module.pre.o
                0x08006320                pwm_limit_calc
 .text.rx_dma_callback
                0x08006888      0x250 c:/px4/workspace/PX4Firmware/Build/px4io-v2_default.build/c/px4/workspace/PX4Firmware/src/modules/px4iofirmware/module.pre.o
 .text.serial_interrupt
                0x08006ad8      0x1ac c:/px4/workspace/PX4Firmware/Build/px4io-v2_default.build/c/px4/workspace/PX4Firmware/src/modules/px4iofirmware/module.pre.o
 .text.interface_init
                0x08006c84      0x1f4 c:/px4/workspace/PX4Firmware/Build/px4io-v2_default.build/c/px4/workspace/PX4Firmware/src/modules/px4iofirmware/module.pre.o
 .text.irq_attach
                0x08006e78       0x38 c:/px4/workspace/PX4Firmware/Build/px4io-v2_default.build/nuttx-export/libs\libnuttx.a(sched-irq_attach.o)
                0x08006e78                irq_attach
 .text.irq_initialize
                0x08006eb0       0x1c c:/px4/workspace/PX4Firmware/Build/px4io-v2_default.build/nuttx-export/libs\libnuttx.a(sched-irq_initialize.o)
                0x08006eb0                irq_initialize
 .text.irq_unexpected_isr
                0x08006ecc       0x14 c:/px4/workspace/PX4Firmware/Build/px4io-v2_default.build/nuttx-export/libs\libnuttx.a(sched-irq_unexpectedisr.o)
                0x08006ecc                irq_unexpected_isr
 .text.abort    0x08006ee0        0x8 c:/px4/workspace/PX4Firmware/Build/px4io-v2_default.build/nuttx-export/libs\libnuttx.a(c-lib_abort.o)
                0x08006ee0                abort
 .text.cfsetspeed
                0x08006ee8        0x6 c:/px4/workspace/PX4Firmware/Build/px4io-v2_default.build/nuttx-export/libs\libnuttx.a(c-lib_cfsetspeed.o)
                0x08006ee8                cfsetspeed
 *fill*         0x08006eee        0x2 00
 .text.crc32part
                0x08006ef0       0x28 c:/px4/workspace/PX4Firmware/Build/px4io-v2_default.build/nuttx-export/libs\libnuttx.a(c-lib_crc32.o)
                0x08006ef0                crc32part
 .text.lowvsyslog
                0x08006f18       0x18 c:/px4/workspace/PX4Firmware/Build/px4io-v2_default.build/nuttx-export/libs\libnuttx.a(c-lib_lowsyslog.o)
                0x08006f18                lowvsyslog
 .text.lowsyslog
                0x08006f30       0x18 c:/px4/workspace/PX4Firmware/Build/px4io-v2_default.build/nuttx-export/libs\libnuttx.a(c-lib_lowsyslog.o)
                0x08006f30                lowsyslog
 .text.memchr   0x08006f48       0x1c c:/px4/workspace/PX4Firmware/Build/px4io-v2_default.build/nuttx-export/libs\libnuttx.a(c-lib_memchr.o)
                0x08006f48                memchr
 .text.memcpy   0x08006f64       0x12 c:/px4/workspace/PX4Firmware/Build/px4io-v2_default.build/nuttx-export/libs\libnuttx.a(c-lib_memcpy.o)
                0x08006f64                memcpy
 .text.memset   0x08006f76        0xe c:/px4/workspace/PX4Firmware/Build/px4io-v2_default.build/nuttx-export/libs\libnuttx.a(c-lib_memset.o)
                0x08006f76                memset
 .text.findwidth
                0x08006f84       0x40 c:/px4/workspace/PX4Firmware/Build/px4io-v2_default.build/nuttx-export/libs\libnuttx.a(c-lib_sscanf.o)
 .text.vsscanf  0x08006fc4      0x370 c:/px4/workspace/PX4Firmware/Build/px4io-v2_default.build/nuttx-export/libs\libnuttx.a(c-lib_sscanf.o)
                0x08006fc4                vsscanf
 .text.sscanf   0x08007334       0x18 c:/px4/workspace/PX4Firmware/Build/px4io-v2_default.build/nuttx-export/libs\libnuttx.a(c-lib_sscanf.o)
                0x08007334                sscanf
 .text.strchr   0x0800734c       0x14 c:/px4/workspace/PX4Firmware/Build/px4io-v2_default.build/nuttx-export/libs\libnuttx.a(c-lib_strchr.o)
                0x0800734c                strchr
 .text.strcmp   0x08007360       0x16 c:/px4/workspace/PX4Firmware/Build/px4io-v2_default.build/nuttx-export/libs\libnuttx.a(c-lib_strcmp.o)
                0x08007360                strcmp
 .text.strcspn  0x08007376       0x1e c:/px4/workspace/PX4Firmware/Build/px4io-v2_default.build/nuttx-export/libs\libnuttx.a(c-lib_strcspn.o)
                0x08007376                strcspn
 .text.strncpy  0x08007394       0x24 c:/px4/workspace/PX4Firmware/Build/px4io-v2_default.build/nuttx-export/libs\libnuttx.a(c-lib_strncpy.o)
                0x08007394                strncpy
 .text.strtol   0x080073b8       0x3a c:/px4/workspace/PX4Firmware/Build/px4io-v2_default.build/nuttx-export/libs\libnuttx.a(c-lib_strtol.o)
                0x080073b8                strtol
 .text.strtoul  0x080073f2       0x48 c:/px4/workspace/PX4Firmware/Build/px4io-v2_default.build/nuttx-export/libs\libnuttx.a(c-lib_strtoul.o)
                0x080073f2                strtoul
 .text.tcgetattr
                0x0800743a        0xa c:/px4/workspace/PX4Firmware/Build/px4io-v2_default.build/nuttx-export/libs\libnuttx.a(c-lib_tcgetattr.o)
                0x0800743a                tcgetattr
 .text.tcsetattr
                0x08007444       0x10 c:/px4/workspace/PX4Firmware/Build/px4io-v2_default.build/nuttx-export/libs\libnuttx.a(c-lib_tcsetattr.o)
                0x08007444                tcsetattr
 .text.vsnprintf
                0x08007454       0x24 c:/px4/workspace/PX4Firmware/Build/px4io-v2_default.build/nuttx-export/libs\libnuttx.a(c-lib_vsnprintf.o)
                0x08007454                vsnprintf
 .text.sq_addafter
                0x08007478       0x1c c:/px4/workspace/PX4Firmware/Build/px4io-v2_default.build/nuttx-export/libs\libnuttx.a(c-sq_addafter.o)
                0x08007478                sq_addafter
 .text.sq_addfirst
                0x08007494        0xe c:/px4/workspace/PX4Firmware/Build/px4io-v2_default.build/nuttx-export/libs\libnuttx.a(c-sq_addfirst.o)
                0x08007494                sq_addfirst
 .text.sq_addlast
                0x080074a2       0x14 c:/px4/workspace/PX4Firmware/Build/px4io-v2_default.build/nuttx-export/libs\libnuttx.a(c-sq_addlast.o)
                0x080074a2                sq_addlast
 .text.sq_rem   0x080074b6       0x2c c:/px4/workspace/PX4Firmware/Build/px4io-v2_default.build/nuttx-export/libs\libnuttx.a(c-sq_rem.o)
                0x080074b6                sq_rem
 .text.sq_remafter
                0x080074e2       0x22 c:/px4/workspace/PX4Firmware/Build/px4io-v2_default.build/nuttx-export/libs\libnuttx.a(c-sq_remafter.o)
                0x080074e2                sq_remafter
 .text.calloc   0x08007504        0xe c:/px4/workspace/PX4Firmware/Build/px4io-v2_default.build/nuttx-export/libs\libnuttx.a(mm-mm_calloc.o)
                0x08007504                calloc
 *fill*         0x08007512        0x2 00
 .text.free     0x08007514       0xa8 c:/px4/workspace/PX4Firmware/Build/px4io-v2_default.build/nuttx-export/libs\libnuttx.a(mm-mm_free.o)
                0x08007514                free
 .text.mallinfo
                0x080075bc       0x64 c:/px4/workspace/PX4Firmware/Build/px4io-v2_default.build/nuttx-export/libs\libnuttx.a(mm-mm_mallinfo.o)
                0x080075bc                mallinfo
 .text.malloc   0x08007620       0x98 c:/px4/workspace/PX4Firmware/Build/px4io-v2_default.build/nuttx-export/libs\libnuttx.a(mm-mm_malloc.o)
                0x08007620                malloc
 .text.mm_seminitialize
                0x080076b8       0x18 c:/px4/workspace/PX4Firmware/Build/px4io-v2_default.build/nuttx-export/libs\libnuttx.a(mm-mm_sem.o)
                0x080076b8                mm_seminitialize
 .text.mm_trysemaphore
                0x080076d0       0x32 c:/px4/workspace/PX4Firmware/Build/px4io-v2_default.build/nuttx-export/libs\libnuttx.a(mm-mm_sem.o)
                0x080076d0                mm_trysemaphore
 *fill*         0x08007702        0x2 00
 .text.mm_takesemaphore
                0x08007704       0x40 c:/px4/workspace/PX4Firmware/Build/px4io-v2_default.build/nuttx-export/libs\libnuttx.a(mm-mm_sem.o)
                0x08007704                mm_takesemaphore
 .text.mm_givesemaphore
                0x08007744       0x2c c:/px4/workspace/PX4Firmware/Build/px4io-v2_default.build/nuttx-export/libs\libnuttx.a(mm-mm_sem.o)
                0x08007744                mm_givesemaphore
 .text.mm_size2ndx
                0x08007770       0x1a c:/px4/workspace/PX4Firmware/Build/px4io-v2_default.build/nuttx-export/libs\libnuttx.a(mm-mm_size2ndx.o)
                0x08007770                mm_size2ndx
 *fill*         0x0800778a        0x2 00
 .text.umm_initialize
                0x0800778c       0x10 c:/px4/workspace/PX4Firmware/Build/px4io-v2_default.build/nuttx-export/libs\libnuttx.a(mm-mm_user.o)
                0x0800778c                umm_initialize
 .text.umm_trysemaphore
                0x0800779c        0xc c:/px4/workspace/PX4Firmware/Build/px4io-v2_default.build/nuttx-export/libs\libnuttx.a(mm-mm_user.o)
                0x0800779c                umm_trysemaphore
 .text.umm_givesemaphore
                0x080077a8        0xc c:/px4/workspace/PX4Firmware/Build/px4io-v2_default.build/nuttx-export/libs\libnuttx.a(mm-mm_user.o)
                0x080077a8                umm_givesemaphore
 .text.zalloc   0x080077b4       0x18 c:/px4/workspace/PX4Firmware/Build/px4io-v2_default.build/nuttx-export/libs\libnuttx.a(mm-mm_zalloc.o)
                0x080077b4                zalloc
 .text.stm32_dmachandisable
                0x080077cc       0x22 c:/px4/workspace/PX4Firmware/Build/px4io-v2_default.build/nuttx-export/libs\libnuttx.a(arch-stm32_dma.o)
 *fill*         0x080077ee        0x2 00
 .text.stm32_dmainterrupt
                0x080077f0       0x54 c:/px4/workspace/PX4Firmware/Build/px4io-v2_default.build/nuttx-export/libs\libnuttx.a(arch-stm32_dma.o)
 .text.up_dmainitialize
                0x08007844       0x40 c:/px4/workspace/PX4Firmware/Build/px4io-v2_default.build/nuttx-export/libs\libnuttx.a(arch-stm32_dma.o)
                0x08007844                up_dmainitialize
 .text.stm32_dmachannel
                0x08007884       0x34 c:/px4/workspace/PX4Firmware/Build/px4io-v2_default.build/nuttx-export/libs\libnuttx.a(arch-stm32_dma.o)
                0x08007884                stm32_dmachannel
 .text.stm32_dmafree
                0x080078b8        0x6 c:/px4/workspace/PX4Firmware/Build/px4io-v2_default.build/nuttx-export/libs\libnuttx.a(arch-stm32_dma.o)
                0x080078b8                stm32_dmafree
 .text.stm32_dmasetup
                0x080078be       0x28 c:/px4/workspace/PX4Firmware/Build/px4io-v2_default.build/nuttx-export/libs\libnuttx.a(arch-stm32_dma.o)
                0x080078be                stm32_dmasetup
 .text.stm32_dmastart
                0x080078e6       0x28 c:/px4/workspace/PX4Firmware/Build/px4io-v2_default.build/nuttx-export/libs\libnuttx.a(arch-stm32_dma.o)
                0x080078e6                stm32_dmastart
 .text.stm32_dmastop
                0x0800790e        0x4 c:/px4/workspace/PX4Firmware/Build/px4io-v2_default.build/nuttx-export/libs\libnuttx.a(arch-stm32_dma.o)
                0x0800790e                stm32_dmastop
 .text.stm32_dmaresidual
                0x08007912        0x6 c:/px4/workspace/PX4Firmware/Build/px4io-v2_default.build/nuttx-export/libs\libnuttx.a(arch-stm32_dma.o)
                0x08007912                stm32_dmaresidual
 .text.stm32_gpioinit
                0x08007918        0xc c:/px4/workspace/PX4Firmware/Build/px4io-v2_default.build/nuttx-export/libs\libnuttx.a(arch-stm32_gpio.o)
                0x08007918                stm32_gpioinit
 .text.stm32_configgpio
                0x08007924       0xe0 c:/px4/workspace/PX4Firmware/Build/px4io-v2_default.build/nuttx-export/libs\libnuttx.a(arch-stm32_gpio.o)
                0x08007924                stm32_configgpio
 .text.stm32_gpiowrite
                0x08007a04       0x28 c:/px4/workspace/PX4Firmware/Build/px4io-v2_default.build/nuttx-export/libs\libnuttx.a(arch-stm32_gpio.o)
                0x08007a04                stm32_gpiowrite
 .text.stm32_gpioread
                0x08007a2c       0x2c c:/px4/workspace/PX4Firmware/Build/px4io-v2_default.build/nuttx-export/libs\libnuttx.a(arch-stm32_gpio.o)
                0x08007a2c                stm32_gpioread
 .text.stm32_irqinfo
                0x08007a58       0x74 c:/px4/workspace/PX4Firmware/Build/px4io-v2_default.build/nuttx-export/libs\libnuttx.a(arch-stm32_irq.o)
 .text.up_irqinitialize
                0x08007acc       0x68 c:/px4/workspace/PX4Firmware/Build/px4io-v2_default.build/nuttx-export/libs\libnuttx.a(arch-stm32_irq.o)
                0x08007acc                up_irqinitialize
 .text.up_disable_irq
                0x08007b34       0x1a c:/px4/workspace/PX4Firmware/Build/px4io-v2_default.build/nuttx-export/libs\libnuttx.a(arch-stm32_irq.o)
                0x08007b34                up_disable_irq
 .text.up_enable_irq
                0x08007b4e       0x18 c:/px4/workspace/PX4Firmware/Build/px4io-v2_default.build/nuttx-export/libs\libnuttx.a(arch-stm32_irq.o)
                0x08007b4e                up_enable_irq
 .text.up_maskack_irq
                0x08007b66        0x4 c:/px4/workspace/PX4Firmware/Build/px4io-v2_default.build/nuttx-export/libs\libnuttx.a(arch-stm32_irq.o)
                0x08007b66                up_maskack_irq
 *fill*         0x08007b6a        0x2 00
 .text.up_prioritize_irq
                0x08007b6c       0x44 c:/px4/workspace/PX4Firmware/Build/px4io-v2_default.build/nuttx-export/libs\libnuttx.a(arch-stm32_irq.o)
                0x08007b6c                up_prioritize_irq
 .text.up_restoreusartint
                0x08007bb0       0x26 c:/px4/workspace/PX4Firmware/Build/px4io-v2_default.build/nuttx-export/libs\libnuttx.a(arch-stm32_serial.o)
 .text.up_disableusartint
                0x08007bd6       0x20 c:/px4/workspace/PX4Firmware/Build/px4io-v2_default.build/nuttx-export/libs\libnuttx.a(arch-stm32_serial.o)
 .text.up_set_format
                0x08007bf6       0x5e c:/px4/workspace/PX4Firmware/Build/px4io-v2_default.build/nuttx-export/libs\libnuttx.a(arch-stm32_serial.o)
 .text.up_shutdown
                0x08007c54       0x1c c:/px4/workspace/PX4Firmware/Build/px4io-v2_default.build/nuttx-export/libs\libnuttx.a(arch-stm32_serial.o)
 .text.up_receive
                0x08007c70       0x16 c:/px4/workspace/PX4Firmware/Build/px4io-v2_default.build/nuttx-export/libs\libnuttx.a(arch-stm32_serial.o)
 .text.up_rxint
                0x08007c86       0x28 c:/px4/workspace/PX4Firmware/Build/px4io-v2_default.build/nuttx-export/libs\libnuttx.a(arch-stm32_serial.o)
 .text.up_rxavailable
                0x08007cae        0xc c:/px4/workspace/PX4Firmware/Build/px4io-v2_default.build/nuttx-export/libs\libnuttx.a(arch-stm32_serial.o)
 .text.up_dma_rxint
                0x08007cba        0x8 c:/px4/workspace/PX4Firmware/Build/px4io-v2_default.build/nuttx-export/libs\libnuttx.a(arch-stm32_serial.o)
 .text.up_send  0x08007cc2        0x8 c:/px4/workspace/PX4Firmware/Build/px4io-v2_default.build/nuttx-export/libs\libnuttx.a(arch-stm32_serial.o)
 .text.up_txready
                0x08007cca        0xc c:/px4/workspace/PX4Firmware/Build/px4io-v2_default.build/nuttx-export/libs\libnuttx.a(arch-stm32_serial.o)
 .text.up_setup
                0x08007cd6       0x68 c:/px4/workspace/PX4Firmware/Build/px4io-v2_default.build/nuttx-export/libs\libnuttx.a(arch-stm32_serial.o)
 .text.up_txint
                0x08007d3e       0x36 c:/px4/workspace/PX4Firmware/Build/px4io-v2_default.build/nuttx-export/libs\libnuttx.a(arch-stm32_serial.o)
 .text.up_dma_rxavailable
                0x08007d74       0x18 c:/px4/workspace/PX4Firmware/Build/px4io-v2_default.build/nuttx-export/libs\libnuttx.a(arch-stm32_serial.o)
 .text.up_dma_receive
                0x08007d8c       0x2a c:/px4/workspace/PX4Firmware/Build/px4io-v2_default.build/nuttx-export/libs\libnuttx.a(arch-stm32_serial.o)
 .text.up_ioctl
                0x08007db6       0xa6 c:/px4/workspace/PX4Firmware/Build/px4io-v2_default.build/nuttx-export/libs\libnuttx.a(arch-stm32_serial.o)
 .text.up_detach
                0x08007e5c       0x1a c:/px4/workspace/PX4Firmware/Build/px4io-v2_default.build/nuttx-export/libs\libnuttx.a(arch-stm32_serial.o)
 .text.up_attach
                0x08007e76       0x1e c:/px4/workspace/PX4Firmware/Build/px4io-v2_default.build/nuttx-export/libs\libnuttx.a(arch-stm32_serial.o)
 .text.up_dma_shutdown
                0x08007e94       0x1a c:/px4/workspace/PX4Firmware/Build/px4io-v2_default.build/nuttx-export/libs\libnuttx.a(arch-stm32_serial.o)
 *fill*         0x08007eae        0x2 00
 .text.up_dma_setup
                0x08007eb0       0x4c c:/px4/workspace/PX4Firmware/Build/px4io-v2_default.build/nuttx-export/libs\libnuttx.a(arch-stm32_serial.o)
 .text.up_interrupt_common
                0x08007efc       0x4e c:/px4/workspace/PX4Firmware/Build/px4io-v2_default.build/nuttx-export/libs\libnuttx.a(arch-stm32_serial.o)
 *fill*         0x08007f4a        0x2 00
 .text.up_interrupt_usart3
                0x08007f4c        0xc c:/px4/workspace/PX4Firmware/Build/px4io-v2_default.build/nuttx-export/libs\libnuttx.a(arch-stm32_serial.o)
 .text.up_interrupt_usart2
                0x08007f58        0xc c:/px4/workspace/PX4Firmware/Build/px4io-v2_default.build/nuttx-export/libs\libnuttx.a(arch-stm32_serial.o)
 .text.up_interrupt_usart1
                0x08007f64        0xc c:/px4/workspace/PX4Firmware/Build/px4io-v2_default.build/nuttx-export/libs\libnuttx.a(arch-stm32_serial.o)
 .text.up_dma_rxcallback.part.0
                0x08007f70       0x16 c:/px4/workspace/PX4Firmware/Build/px4io-v2_default.build/nuttx-export/libs\libnuttx.a(arch-stm32_serial.o)
 .text.up_dma_rxcallback
                0x08007f86        0xe c:/px4/workspace/PX4Firmware/Build/px4io-v2_default.build/nuttx-export/libs\libnuttx.a(arch-stm32_serial.o)
 .text.up_earlyserialinit
                0x08007f94       0x28 c:/px4/workspace/PX4Firmware/Build/px4io-v2_default.build/nuttx-export/libs\libnuttx.a(arch-stm32_serial.o)
                0x08007f94                up_earlyserialinit
 .text.up_serialinit
                0x08007fbc       0x60 c:/px4/workspace/PX4Firmware/Build/px4io-v2_default.build/nuttx-export/libs\libnuttx.a(arch-stm32_serial.o)
                0x08007fbc                up_serialinit
 .text.stm32_serial_dma_poll
                0x0800801c       0x3c c:/px4/workspace/PX4Firmware/Build/px4io-v2_default.build/nuttx-export/libs\libnuttx.a(arch-stm32_serial.o)
                0x0800801c                stm32_serial_dma_poll
 .text.up_putc  0x08008058       0x30 c:/px4/workspace/PX4Firmware/Build/px4io-v2_default.build/nuttx-export/libs\libnuttx.a(arch-stm32_serial.o)
                0x08008058                up_putc
 .text.__start  0x08008088       0x54 c:/px4/workspace/PX4Firmware/Build/px4io-v2_default.build/nuttx-export/libs\libnuttx.a(arch-stm32_start.o)
                0x08008088                __start
 .text.up_assert
                0x080080dc      0x148 c:/px4/workspace/PX4Firmware/Build/px4io-v2_default.build/nuttx-export/libs\libnuttx.a(arch-up_assert.o)
                0x080080dc                up_assert
 .text.up_hardfault
                0x08008224       0x40 c:/px4/workspace/PX4Firmware/Build/px4io-v2_default.build/nuttx-export/libs\libnuttx.a(arch-up_hardfault.o)
                0x08008224                up_hardfault
 .text.modifyreg32
                0x08008264       0x1c c:/px4/workspace/PX4Firmware/Build/px4io-v2_default.build/nuttx-export/libs\libnuttx.a(arch-up_modifyreg32.o)
                0x08008264                modifyreg32
 .text.up_svcall
                0x08008280       0x38 c:/px4/workspace/PX4Firmware/Build/px4io-v2_default.build/nuttx-export/libs\libnuttx.a(arch-up_svcall.o)
                0x08008280                up_svcall
 .text.up_systemreset
                0x080082b8       0x1c c:/px4/workspace/PX4Firmware/Build/px4io-v2_default.build/nuttx-export/libs\libnuttx.a(arch-up_systemreset.o)
                0x080082b8                up_systemreset
 .text.up_udelay
                0x080082d4       0x7c c:/px4/workspace/PX4Firmware/Build/px4io-v2_default.build/nuttx-export/libs\libnuttx.a(arch-up_udelay.o)
                0x080082d4                up_udelay
 .text.__cxa_atexit
                0x08008350        0x4 c:/px4/workspace/PX4Firmware/Build/px4io-v2_default.build/nuttx-export/libs\libnuttx.a(cxx-libxx_cxa_atexit.o)
                0x08008350                __cxa_atexit
 .text.__cxa_pure_virtual
                0x08008354       0x10 c:/px4/workspace/PX4Firmware/Build/px4io-v2_default.build/nuttx-export/libs\libnuttx.a(cxx-libxx_cxapurevirtual.o)
                0x08008354                __cxa_pure_virtual
 .text._ZdlPv   0x08008364        0x4 c:/px4/workspace/PX4Firmware/Build/px4io-v2_default.build/nuttx-export/libs\libnuttx.a(cxx-libxx_delete.o)
                0x08008364                operator delete(void*)
 .text.__aeabi_atexit
                0x08008368        0xa c:/px4/workspace/PX4Firmware/Build/px4io-v2_default.build/nuttx-export/libs\libnuttx.a(cxx-libxx_eabi_atexit.o)
                0x08008368                __aeabi_atexit
 .text._Znwj    0x08008372        0xa c:/px4/workspace/PX4Firmware/Build/px4io-v2_default.build/nuttx-export/libs\libnuttx.a(cxx-libxx_new.o)
                0x08008372                operator new(unsigned int)
 .text.ioctl    0x0800837c       0x4c c:/px4/workspace/PX4Firmware/Build/px4io-v2_default.build/nuttx-export/libs\libnuttx.a(fs-fs_ioctl.o)
                0x0800837c                ioctl
 .text.inode_checkflags
                0x080083c8       0x2a c:/px4/workspace/PX4Firmware/Build/px4io-v2_default.build/nuttx-export/libs\libnuttx.a(fs-fs_open.o)
                0x080083c8                inode_checkflags
 .text.open     0x080083f2       0x94 c:/px4/workspace/PX4Firmware/Build/px4io-v2_default.build/nuttx-export/libs\libnuttx.a(fs-fs_open.o)
                0x080083f2                open
 .text.read     0x08008486       0x62 c:/px4/workspace/PX4Firmware/Build/px4io-v2_default.build/nuttx-export/libs\libnuttx.a(fs-fs_read.o)
                0x08008486                read
 .text.uart_ioctl
                0x080084e8       0xd2 c:/px4/workspace/PX4Firmware/Build/px4io-v2_default.build/nuttx-export/libs\libnuttx.a(drivers-serial.o)
 *fill*         0x080085ba        0x2 00
 .text.uart_takesem
                0x080085bc       0x34 c:/px4/workspace/PX4Firmware/Build/px4io-v2_default.build/nuttx-export/libs\libnuttx.a(drivers-serial.o)
 .text.uart_putxmitchar
                0x080085f0       0x84 c:/px4/workspace/PX4Firmware/Build/px4io-v2_default.build/nuttx-export/libs\libnuttx.a(drivers-serial.o)
 .text.uart_write
                0x08008674       0xe4 c:/px4/workspace/PX4Firmware/Build/px4io-v2_default.build/nuttx-export/libs\libnuttx.a(drivers-serial.o)
 .text.uart_read
                0x08008758       0xee c:/px4/workspace/PX4Firmware/Build/px4io-v2_default.build/nuttx-export/libs\libnuttx.a(drivers-serial.o)
 .text.uart_open
                0x08008846       0x9e c:/px4/workspace/PX4Firmware/Build/px4io-v2_default.build/nuttx-export/libs\libnuttx.a(drivers-serial.o)
 .text.uart_close
                0x080088e4       0x80 c:/px4/workspace/PX4Firmware/Build/px4io-v2_default.build/nuttx-export/libs\libnuttx.a(drivers-serial.o)
 .text.uart_register
                0x08008964       0x54 c:/px4/workspace/PX4Firmware/Build/px4io-v2_default.build/nuttx-export/libs\libnuttx.a(drivers-serial.o)
                0x08008964                uart_register
 .text.uart_datareceived
                0x080089b8       0x10 c:/px4/workspace/PX4Firmware/Build/px4io-v2_default.build/nuttx-export/libs\libnuttx.a(drivers-serial.o)
                0x080089b8                uart_datareceived
 .text.uart_datasent
                0x080089c8       0x10 c:/px4/workspace/PX4Firmware/Build/px4io-v2_default.build/nuttx-export/libs\libnuttx.a(drivers-serial.o)
                0x080089c8                uart_datasent
 .text.uart_xmitchars
                0x080089d8       0x6e c:/px4/workspace/PX4Firmware/Build/px4io-v2_default.build/nuttx-export/libs\libnuttx.a(drivers-serialirq.o)
                0x080089d8                uart_xmitchars
 .text.uart_recvchars
                0x08008a46       0x5e c:/px4/workspace/PX4Firmware/Build/px4io-v2_default.build/nuttx-export/libs\libnuttx.a(drivers-serialirq.o)
                0x08008a46                uart_recvchars
 .text.get_errno_ptr
                0x08008aa4       0x28 c:/px4/workspace/PX4Firmware/Build/px4io-v2_default.build/nuttx-export/libs\libnuttx.a(sched-errno_getptr.o)
                0x08008aa4                get_errno_ptr
 .text.exit     0x08008acc       0x1c c:/px4/workspace/PX4Firmware/Build/px4io-v2_default.build/nuttx-export/libs\libnuttx.a(sched-exit.o)
                0x08008acc                exit
 .text.getpid   0x08008ae8       0x10 c:/px4/workspace/PX4Firmware/Build/px4io-v2_default.build/nuttx-export/libs\libnuttx.a(sched-getpid.o)
                0x08008ae8                getpid
 .text.os_start
                0x08008af8      0x124 c:/px4/workspace/PX4Firmware/Build/px4io-v2_default.build/nuttx-export/libs\libnuttx.a(sched-os_start.o)
                0x08008af8                os_start
 .text.sched_garbagecollection
                0x08008c1c       0x2c c:/px4/workspace/PX4Firmware/Build/px4io-v2_default.build/nuttx-export/libs\libnuttx.a(sched-sched_garbage.o)
                0x08008c1c                sched_garbagecollection
 .text.sched_getfiles
                0x08008c48       0x10 c:/px4/workspace/PX4Firmware/Build/px4io-v2_default.build/nuttx-export/libs\libnuttx.a(sched-sched_getfiles.o)
                0x08008c48                sched_getfiles
 .text.sem_post
                0x08008c58       0x5c c:/px4/workspace/PX4Firmware/Build/px4io-v2_default.build/nuttx-export/libs\libnuttx.a(sched-sem_post.o)
                0x08008c58                sem_post
 .text.sem_trywait
                0x08008cb4       0x4c c:/px4/workspace/PX4Firmware/Build/px4io-v2_default.build/nuttx-export/libs\libnuttx.a(sched-sem_trywait.o)
                0x08008cb4                sem_trywait
 .text.sem_wait
                0x08008d00       0x84 c:/px4/workspace/PX4Firmware/Build/px4io-v2_default.build/nuttx-export/libs\libnuttx.a(sched-sem_wait.o)
                0x08008d00                sem_wait
 .text.task_exithook
                0x08008d84       0x1e c:/px4/workspace/PX4Firmware/Build/px4io-v2_default.build/nuttx-export/libs\libnuttx.a(sched-task_exithook.o)
                0x08008d84                task_exithook
 .text.task_recover
                0x08008da2       0x26 c:/px4/workspace/PX4Firmware/Build/px4io-v2_default.build/nuttx-export/libs\libnuttx.a(sched-task_recover.o)
                0x08008da2                task_recover
 .text.wd_cancel
                0x08008dc8       0x6c c:/px4/workspace/PX4Firmware/Build/px4io-v2_default.build/nuttx-export/libs\libnuttx.a(sched-wd_cancel.o)
                0x08008dc8                wd_cancel
 .text.wd_delete
                0x08008e34       0x3c c:/px4/workspace/PX4Firmware/Build/px4io-v2_default.build/nuttx-export/libs\libnuttx.a(sched-wd_delete.o)
                0x08008e34                wd_delete
 .text.wd_initialize
                0x08008e70       0x44 c:/px4/workspace/PX4Firmware/Build/px4io-v2_default.build/nuttx-export/libs\libnuttx.a(sched-wd_initialize.o)
                0x08008e70                wd_initialize
 .text.dq_addfirst
                0x08008eb4       0x18 c:/px4/workspace/PX4Firmware/Build/px4io-v2_default.build/nuttx-export/libs\libnuttx.a(c-dq_addfirst.o)
                0x08008eb4                dq_addfirst
 .text.cfgetspeed
                0x08008ecc        0x4 c:/px4/workspace/PX4Firmware/Build/px4io-v2_default.build/nuttx-export/libs\libnuttx.a(c-lib_cfgetspeed.o)
                0x08008ecc                cfgetspeed
 .text.lib_checkbase
                0x08008ed0       0x50 c:/px4/workspace/PX4Firmware/Build/px4io-v2_default.build/nuttx-export/libs\libnuttx.a(c-lib_checkbase.o)
                0x08008ed0                lib_checkbase
 .text.lib_isbasedigit
                0x08008f20       0x4e c:/px4/workspace/PX4Firmware/Build/px4io-v2_default.build/nuttx-export/libs\libnuttx.a(c-lib_isbasedigit.o)
                0x08008f20                lib_isbasedigit
 .text.utodec   0x08008f6e       0x22 c:/px4/workspace/PX4Firmware/Build/px4io-v2_default.build/nuttx-export/libs\libnuttx.a(c-lib_libvsprintf.o)
 .text.utooct   0x08008f90       0x1c c:/px4/workspace/PX4Firmware/Build/px4io-v2_default.build/nuttx-export/libs\libnuttx.a(c-lib_libvsprintf.o)
 .text.utobin   0x08008fac       0x1c c:/px4/workspace/PX4Firmware/Build/px4io-v2_default.build/nuttx-export/libs\libnuttx.a(c-lib_libvsprintf.o)
 .text.llutodec
                0x08008fc8       0x3e c:/px4/workspace/PX4Firmware/Build/px4io-v2_default.build/nuttx-export/libs\libnuttx.a(c-lib_libvsprintf.o)
 .text.llutooct
                0x08009006       0x2a c:/px4/workspace/PX4Firmware/Build/px4io-v2_default.build/nuttx-export/libs\libnuttx.a(c-lib_libvsprintf.o)
 .text.llutobin
                0x08009030       0x24 c:/px4/workspace/PX4Firmware/Build/px4io-v2_default.build/nuttx-export/libs\libnuttx.a(c-lib_libvsprintf.o)
 .text.prejustify
                0x08009054       0x84 c:/px4/workspace/PX4Firmware/Build/px4io-v2_default.build/nuttx-export/libs\libnuttx.a(c-lib_libvsprintf.o)
 .text.utohex   0x080090d8       0x40 c:/px4/workspace/PX4Firmware/Build/px4io-v2_default.build/nuttx-export/libs\libnuttx.a(c-lib_libvsprintf.o)
 .text.utoascii
                0x08009118       0x8a c:/px4/workspace/PX4Firmware/Build/px4io-v2_default.build/nuttx-export/libs\libnuttx.a(c-lib_libvsprintf.o)
 .text.llutohex
                0x080091a2       0x4e c:/px4/workspace/PX4Firmware/Build/px4io-v2_default.build/nuttx-export/libs\libnuttx.a(c-lib_libvsprintf.o)
 .text.llutoascii
                0x080091f0       0x92 c:/px4/workspace/PX4Firmware/Build/px4io-v2_default.build/nuttx-export/libs\libnuttx.a(c-lib_libvsprintf.o)
 .text.postjustify.part.2
                0x08009282       0x20 c:/px4/workspace/PX4Firmware/Build/px4io-v2_default.build/nuttx-export/libs\libnuttx.a(c-lib_libvsprintf.o)
 *fill*         0x080092a2        0x2 00
 .text.lib_vsprintf
                0x080092a4      0x2c8 c:/px4/workspace/PX4Firmware/Build/px4io-v2_default.build/nuttx-export/libs\libnuttx.a(c-lib_libvsprintf.o)
                0x080092a4                lib_vsprintf
 .text.lowoutstream_putc
                0x0800956c       0x16 c:/px4/workspace/PX4Firmware/Build/px4io-v2_default.build/nuttx-export/libs\libnuttx.a(c-lib_lowoutstream.o)
 *fill*         0x08009582        0x2 00
 .text.lib_lowoutstream
                0x08009584       0x10 c:/px4/workspace/PX4Firmware/Build/px4io-v2_default.build/nuttx-export/libs\libnuttx.a(c-lib_lowoutstream.o)
                0x08009584                lib_lowoutstream
 .text.memoutstream_putc
                0x08009594       0x1a c:/px4/workspace/PX4Firmware/Build/px4io-v2_default.build/nuttx-export/libs\libnuttx.a(c-lib_memoutstream.o)
 *fill*         0x080095ae        0x2 00
 .text.lib_memoutstream
                0x080095b0       0x18 c:/px4/workspace/PX4Firmware/Build/px4io-v2_default.build/nuttx-export/libs\libnuttx.a(c-lib_memoutstream.o)
                0x080095b0                lib_memoutstream
 .text.nulloutstream_putc
                0x080095c8        0x8 c:/px4/workspace/PX4Firmware/Build/px4io-v2_default.build/nuttx-export/libs\libnuttx.a(c-lib_nulloutstream.o)
 .text.lib_nulloutstream
                0x080095d0       0x10 c:/px4/workspace/PX4Firmware/Build/px4io-v2_default.build/nuttx-export/libs\libnuttx.a(c-lib_nulloutstream.o)
                0x080095d0                lib_nulloutstream
 .text.lib_skipspace
                0x080095e0       0x24 c:/px4/workspace/PX4Firmware/Build/px4io-v2_default.build/nuttx-export/libs\libnuttx.a(c-lib_skipspace.o)
                0x080095e0                lib_skipspace
 .text.strcpy   0x08009604       0x10 c:/px4/workspace/PX4Firmware/Build/px4io-v2_default.build/nuttx-export/libs\libnuttx.a(c-lib_strcpy.o)
                0x08009604                strcpy
 .text.strlen   0x08009614       0x10 c:/px4/workspace/PX4Firmware/Build/px4io-v2_default.build/nuttx-export/libs\libnuttx.a(c-lib_strlen.o)
                0x08009614                strlen
 .text.sem_init
                0x08009624       0x1e c:/px4/workspace/PX4Firmware/Build/px4io-v2_default.build/nuttx-export/libs\libnuttx.a(c-sem_init.o)
                0x08009624                sem_init
 .text.sq_remfirst
                0x08009642       0x14 c:/px4/workspace/PX4Firmware/Build/px4io-v2_default.build/nuttx-export/libs\libnuttx.a(c-sq_remfirst.o)
                0x08009642                sq_remfirst
 .text.mm_addfreechunk
                0x08009656       0x36 c:/px4/workspace/PX4Firmware/Build/px4io-v2_default.build/nuttx-export/libs\libnuttx.a(mm-mm_addfreechunk.o)
                0x08009656                mm_addfreechunk
 .text.mm_addregion
                0x0800968c       0x4e c:/px4/workspace/PX4Firmware/Build/px4io-v2_default.build/nuttx-export/libs\libnuttx.a(mm-mm_initialize.o)
                0x0800968c                mm_addregion
 .text.mm_initialize
                0x080096da       0x4a c:/px4/workspace/PX4Firmware/Build/px4io-v2_default.build/nuttx-export/libs\libnuttx.a(mm-mm_initialize.o)
                0x080096da                mm_initialize
 .text.up_allocate_heap
                0x08009724       0x14 c:/px4/workspace/PX4Firmware/Build/px4io-v2_default.build/nuttx-export/libs\libnuttx.a(arch-stm32_allocateheap.o)
                0x08009724                up_allocate_heap
 .text.up_idle  0x08009738        0x4 c:/px4/workspace/PX4Firmware/Build/px4io-v2_default.build/nuttx-export/libs\libnuttx.a(arch-stm32_idle.o)
                0x08009738                up_idle
 .text.up_lowputc
                0x0800973c       0x18 c:/px4/workspace/PX4Firmware/Build/px4io-v2_default.build/nuttx-export/libs\libnuttx.a(arch-stm32_lowputc.o)
                0x0800973c                up_lowputc
 .text.stm32_lowsetup
                0x08009754       0x68 c:/px4/workspace/PX4Firmware/Build/px4io-v2_default.build/nuttx-export/libs\libnuttx.a(arch-stm32_lowputc.o)
                0x08009754                stm32_lowsetup
 .text.stm32_clockconfig
                0x080097bc       0xcc c:/px4/workspace/PX4Firmware/Build/px4io-v2_default.build/nuttx-export/libs\libnuttx.a(arch-stm32_rcc.o)
                0x080097bc                stm32_clockconfig
 .text.up_block_task
                0x08009888       0x70 c:/px4/workspace/PX4Firmware/Build/px4io-v2_default.build/nuttx-export/libs\libnuttx.a(arch-up_blocktask.o)
                0x08009888                up_block_task
 .text.up_copystate
                0x080098f8       0x12 c:/px4/workspace/PX4Firmware/Build/px4io-v2_default.build/nuttx-export/libs\libnuttx.a(arch-up_copystate.o)
                0x080098f8                up_copystate
 .text          0x0800990a       0x5e c:/px4/workspace/PX4Firmware/Build/px4io-v2_default.build/nuttx-export/libs\libnuttx.a(arch-up_exception.o)
                0x0800990a                exception_common
 .text._exit    0x08009968       0x1c c:/px4/workspace/PX4Firmware/Build/px4io-v2_default.build/nuttx-export/libs\libnuttx.a(arch-up_exit.o)
                0x08009968                _exit
 .text          0x08009984        0xa c:/px4/workspace/PX4Firmware/Build/px4io-v2_default.build/nuttx-export/libs\libnuttx.a(arch-up_fullcontextrestore.o)
                0x08009984                up_fullcontextrestore
 *fill*         0x0800998e        0x2 00
 .text.up_initialize
                0x08009990       0x28 c:/px4/workspace/PX4Firmware/Build/px4io-v2_default.build/nuttx-export/libs\libnuttx.a(arch-up_initialize.o)
                0x08009990                up_initialize
 .text.up_initial_state
                0x080099b8       0x2c c:/px4/workspace/PX4Firmware/Build/px4io-v2_default.build/nuttx-export/libs\libnuttx.a(arch-up_initialstate.o)
                0x080099b8                up_initial_state
 .text.up_interrupt_context
                0x080099e4       0x10 c:/px4/workspace/PX4Firmware/Build/px4io-v2_default.build/nuttx-export/libs\libnuttx.a(arch-up_interruptcontext.o)
                0x080099e4                up_interrupt_context
 .text.up_mdelay
                0x080099f4       0x2c c:/px4/workspace/PX4Firmware/Build/px4io-v2_default.build/nuttx-export/libs\libnuttx.a(arch-up_mdelay.o)
                0x080099f4                up_mdelay
 .text          0x08009a20        0xc c:/px4/workspace/PX4Firmware/Build/px4io-v2_default.build/nuttx-export/libs\libnuttx.a(arch-up_switchcontext.o)
                0x08009a20                up_switchcontext
 .text.up_unblock_task
                0x08009a2c       0x58 c:/px4/workspace/PX4Firmware/Build/px4io-v2_default.build/nuttx-export/libs\libnuttx.a(arch-up_unblocktask.o)
                0x08009a2c                up_unblock_task
 .text._files_close
                0x08009a84       0x2a c:/px4/workspace/PX4Firmware/Build/px4io-v2_default.build/nuttx-export/libs\libnuttx.a(fs-fs_files.o)
 *fill*         0x08009aae        0x2 00
 .text._files_semtake
                0x08009ab0       0x28 c:/px4/workspace/PX4Firmware/Build/px4io-v2_default.build/nuttx-export/libs\libnuttx.a(fs-fs_files.o)
 .text.files_initialize
                0x08009ad8        0x2 c:/px4/workspace/PX4Firmware/Build/px4io-v2_default.build/nuttx-export/libs\libnuttx.a(fs-fs_files.o)
                0x08009ad8                files_initialize
 .text.files_initlist
                0x08009ada        0x8 c:/px4/workspace/PX4Firmware/Build/px4io-v2_default.build/nuttx-export/libs\libnuttx.a(fs-fs_files.o)
                0x08009ada                files_initlist
 .text.files_releaselist
                0x08009ae2       0x20 c:/px4/workspace/PX4Firmware/Build/px4io-v2_default.build/nuttx-export/libs\libnuttx.a(fs-fs_files.o)
                0x08009ae2                files_releaselist
 .text.files_dup
                0x08009b02       0x86 c:/px4/workspace/PX4Firmware/Build/px4io-v2_default.build/nuttx-export/libs\libnuttx.a(fs-fs_files.o)
                0x08009b02                files_dup
 .text.files_allocate
                0x08009b88       0x54 c:/px4/workspace/PX4Firmware/Build/px4io-v2_default.build/nuttx-export/libs\libnuttx.a(fs-fs_files.o)
                0x08009b88                files_allocate
 .text.files_close
                0x08009bdc       0x3a c:/px4/workspace/PX4Firmware/Build/px4io-v2_default.build/nuttx-export/libs\libnuttx.a(fs-fs_files.o)
                0x08009bdc                files_close
 .text.files_release
                0x08009c16       0x2c c:/px4/workspace/PX4Firmware/Build/px4io-v2_default.build/nuttx-export/libs\libnuttx.a(fs-fs_files.o)
                0x08009c16                files_release
 .text.inode_addref
                0x08009c42       0x1a c:/px4/workspace/PX4Firmware/Build/px4io-v2_default.build/nuttx-export/libs\libnuttx.a(fs-fs_inodeaddref.o)
                0x08009c42                inode_addref
 .text.inode_find
                0x08009c5c       0x32 c:/px4/workspace/PX4Firmware/Build/px4io-v2_default.build/nuttx-export/libs\libnuttx.a(fs-fs_inodefind.o)
                0x08009c5c                inode_find
 .text.inode_release
                0x08009c8e       0x40 c:/px4/workspace/PX4Firmware/Build/px4io-v2_default.build/nuttx-export/libs\libnuttx.a(fs-fs_inoderelease.o)
                0x08009c8e                inode_release
 .text.register_driver
                0x08009cce       0x32 c:/px4/workspace/PX4Firmware/Build/px4io-v2_default.build/nuttx-export/libs\libnuttx.a(fs-fs_registerdriver.o)
                0x08009cce                register_driver
 .text.group_allocate
                0x08009d00       0x18 c:/px4/workspace/PX4Firmware/Build/px4io-v2_default.build/nuttx-export/libs\libnuttx.a(sched-group_create.o)
                0x08009d00                group_allocate
 .text.group_initialize
                0x08009d18        0xa c:/px4/workspace/PX4Firmware/Build/px4io-v2_default.build/nuttx-export/libs\libnuttx.a(sched-group_create.o)
                0x08009d18                group_initialize
 .text.group_leave
                0x08009d22       0x26 c:/px4/workspace/PX4Firmware/Build/px4io-v2_default.build/nuttx-export/libs\libnuttx.a(sched-group_leave.o)
                0x08009d22                group_leave
 .text.group_setupidlefiles
                0x08009d48       0x40 c:/px4/workspace/PX4Firmware/Build/px4io-v2_default.build/nuttx-export/libs\libnuttx.a(sched-group_setupidlefiles.o)
                0x08009d48                group_setupidlefiles
 .text.os_bringup
                0x08009d88       0x30 c:/px4/workspace/PX4Firmware/Build/px4io-v2_default.build/nuttx-export/libs\libnuttx.a(sched-os_bringup.o)
                0x08009d88                os_bringup
 .text.sched_addblocked
                0x08009db8       0x3c c:/px4/workspace/PX4Firmware/Build/px4io-v2_default.build/nuttx-export/libs\libnuttx.a(sched-sched_addblocked.o)
                0x08009db8                sched_addblocked
 .text.sched_addprioritized
                0x08009df4       0x5c c:/px4/workspace/PX4Firmware/Build/px4io-v2_default.build/nuttx-export/libs\libnuttx.a(sched-sched_addprioritized.o)
                0x08009df4                sched_addprioritized
 .text.sched_addreadytorun
                0x08009e50       0x5c c:/px4/workspace/PX4Firmware/Build/px4io-v2_default.build/nuttx-export/libs\libnuttx.a(sched-sched_addreadytorun.o)
                0x08009e50                sched_addreadytorun
 .text.sched_ufree
                0x08009eac       0x3c c:/px4/workspace/PX4Firmware/Build/px4io-v2_default.build/nuttx-export/libs\libnuttx.a(sched-sched_free.o)
                0x08009eac                sched_ufree
 .text.sched_mergepending
                0x08009ee8       0x70 c:/px4/workspace/PX4Firmware/Build/px4io-v2_default.build/nuttx-export/libs\libnuttx.a(sched-sched_mergepending.o)
                0x08009ee8                sched_mergepending
 .text.sched_removeblocked
                0x08009f58       0x30 c:/px4/workspace/PX4Firmware/Build/px4io-v2_default.build/nuttx-export/libs\libnuttx.a(sched-sched_removeblocked.o)
                0x08009f58                sched_removeblocked
 .text.sched_removereadytorun
                0x08009f88       0x38 c:/px4/workspace/PX4Firmware/Build/px4io-v2_default.build/nuttx-export/libs\libnuttx.a(sched-sched_removereadytorun.o)
                0x08009f88                sched_removereadytorun
 .text.sem_destroy
                0x08009fc0       0x28 c:/px4/workspace/PX4Firmware/Build/px4io-v2_default.build/nuttx-export/libs\libnuttx.a(sched-sem_destroy.o)
                0x08009fc0                sem_destroy
 .text.thread_create
                0x08009fe8       0xa4 c:/px4/workspace/PX4Firmware/Build/px4io-v2_default.build/nuttx-export/libs\libnuttx.a(sched-task_create.o)
 .text.task_create
                0x0800a08c       0x18 c:/px4/workspace/PX4Firmware/Build/px4io-v2_default.build/nuttx-export/libs\libnuttx.a(sched-task_create.o)
                0x0800a08c                task_create
 .text.task_exit
                0x0800a0a4       0x4c c:/px4/workspace/PX4Firmware/Build/px4io-v2_default.build/nuttx-export/libs\libnuttx.a(sched-task_exit.o)
                0x0800a0a4                task_exit
 .text.task_schedsetup
                0x0800a0f0       0xac c:/px4/workspace/PX4Firmware/Build/px4io-v2_default.build/nuttx-export/libs\libnuttx.a(sched-task_setup.o)
                0x0800a0f0                task_schedsetup
 .text.task_argsetup
                0x0800a19c       0x64 c:/px4/workspace/PX4Firmware/Build/px4io-v2_default.build/nuttx-export/libs\libnuttx.a(sched-task_setup.o)
                0x0800a19c                task_argsetup
 .text.task_start
                0x0800a200       0x28 c:/px4/workspace/PX4Firmware/Build/px4io-v2_default.build/nuttx-export/libs\libnuttx.a(sched-task_start.o)
                0x0800a200                task_start
 .text.task_terminate
                0x0800a228       0x78 c:/px4/workspace/PX4Firmware/Build/px4io-v2_default.build/nuttx-export/libs\libnuttx.a(sched-task_terminate.o)
                0x0800a228                task_terminate
 .text.dq_addlast
                0x0800a2a0       0x18 c:/px4/workspace/PX4Firmware/Build/px4io-v2_default.build/nuttx-export/libs\libnuttx.a(c-dq_addlast.o)
                0x0800a2a0                dq_addlast
 .text.dq_rem   0x0800a2b8       0x1c c:/px4/workspace/PX4Firmware/Build/px4io-v2_default.build/nuttx-export/libs\libnuttx.a(c-dq_rem.o)
                0x0800a2b8                dq_rem
 .text.strdup   0x0800a2d4       0x1c c:/px4/workspace/PX4Firmware/Build/px4io-v2_default.build/nuttx-export/libs\libnuttx.a(c-lib_strdup.o)
                0x0800a2d4                strdup
 .text.up_timerisr
                0x0800a2f0        0xa c:/px4/workspace/PX4Firmware/Build/px4io-v2_default.build/nuttx-export/libs\libnuttx.a(arch-stm32_timerisr.o)
                0x0800a2f0                up_timerisr
 *fill*         0x0800a2fa        0x2 00
 .text.up_timerinit
                0x0800a2fc       0x40 c:/px4/workspace/PX4Firmware/Build/px4io-v2_default.build/nuttx-export/libs\libnuttx.a(arch-stm32_timerisr.o)
                0x0800a2fc                up_timerinit
 .text.up_create_stack
                0x0800a33c       0x42 c:/px4/workspace/PX4Firmware/Build/px4io-v2_default.build/nuttx-export/libs\libnuttx.a(arch-up_createstack.o)
                0x0800a33c                up_create_stack
 *fill*         0x0800a37e        0x2 00
 .text.up_doirq
                0x0800a380       0x2c c:/px4/workspace/PX4Firmware/Build/px4io-v2_default.build/nuttx-export/libs\libnuttx.a(arch-up_doirq.o)
                0x0800a380                up_doirq
 .text.up_release_stack
                0x0800a3ac       0x16 c:/px4/workspace/PX4Firmware/Build/px4io-v2_default.build/nuttx-export/libs\libnuttx.a(arch-up_releasestack.o)
                0x0800a3ac                up_release_stack
 .text.close    0x0800a3c2       0x24 c:/px4/workspace/PX4Firmware/Build/px4io-v2_default.build/nuttx-export/libs\libnuttx.a(fs-fs_close.o)
                0x0800a3c2                close
 .text.dup2     0x0800a3e6       0x4c c:/px4/workspace/PX4Firmware/Build/px4io-v2_default.build/nuttx-export/libs\libnuttx.a(fs-fs_filedup2.o)
                0x0800a3e6                dup2
 *fill*         0x0800a432        0x2 00
 .text.fs_initialize
                0x0800a434       0x20 c:/px4/workspace/PX4Firmware/Build/px4io-v2_default.build/nuttx-export/libs\libnuttx.a(fs-fs_inode.o)
                0x0800a434                fs_initialize
 .text.inode_semtake
                0x0800a454       0x2c c:/px4/workspace/PX4Firmware/Build/px4io-v2_default.build/nuttx-export/libs\libnuttx.a(fs-fs_inode.o)
                0x0800a454                inode_semtake
 .text.inode_semgive
                0x0800a480        0xc c:/px4/workspace/PX4Firmware/Build/px4io-v2_default.build/nuttx-export/libs\libnuttx.a(fs-fs_inode.o)
                0x0800a480                inode_semgive
 .text.inode_free
                0x0800a48c       0x1e c:/px4/workspace/PX4Firmware/Build/px4io-v2_default.build/nuttx-export/libs\libnuttx.a(fs-fs_inode.o)
                0x0800a48c                inode_free
 .text.inode_nextname
                0x0800a4aa       0x12 c:/px4/workspace/PX4Firmware/Build/px4io-v2_default.build/nuttx-export/libs\libnuttx.a(fs-fs_inode.o)
                0x0800a4aa                inode_nextname
 .text.inode_search
                0x0800a4bc       0x9c c:/px4/workspace/PX4Firmware/Build/px4io-v2_default.build/nuttx-export/libs\libnuttx.a(fs-fs_inode.o)
                0x0800a4bc                inode_search
 .text.inode_alloc
                0x0800a558       0x36 c:/px4/workspace/PX4Firmware/Build/px4io-v2_default.build/nuttx-export/libs\libnuttx.a(fs-fs_inodereserve.o)
 *fill*         0x0800a58e        0x2 00
 .text.inode_reserve
                0x0800a590       0xa4 c:/px4/workspace/PX4Firmware/Build/px4io-v2_default.build/nuttx-export/libs\libnuttx.a(fs-fs_inodereserve.o)
                0x0800a590                inode_reserve
 .text.group_setuptaskfiles
                0x0800a634        0xe c:/px4/workspace/PX4Firmware/Build/px4io-v2_default.build/nuttx-export/libs\libnuttx.a(sched-group_setuptaskfiles.o)
                0x0800a634                group_setuptaskfiles
 *fill*         0x0800a642        0x2 00
 .text.irq_dispatch
                0x0800a644       0x24 c:/px4/workspace/PX4Firmware/Build/px4io-v2_default.build/nuttx-export/libs\libnuttx.a(sched-irq_dispatch.o)
                0x0800a644                irq_dispatch
 .text.sched_gettcb
                0x0800a668       0x28 c:/px4/workspace/PX4Firmware/Build/px4io-v2_default.build/nuttx-export/libs\libnuttx.a(sched-sched_gettcb.o)
                0x0800a668                sched_gettcb
 .text.sched_lock
                0x0800a690       0x30 c:/px4/workspace/PX4Firmware/Build/px4io-v2_default.build/nuttx-export/libs\libnuttx.a(sched-sched_lock.o)
                0x0800a690                sched_lock
 .text.sched_process_timer
                0x0800a6c0       0x1c c:/px4/workspace/PX4Firmware/Build/px4io-v2_default.build/nuttx-export/libs\libnuttx.a(sched-sched_processtimer.o)
                0x0800a6c0                sched_process_timer
 .text.sched_releasetcb
                0x0800a6dc       0x58 c:/px4/workspace/PX4Firmware/Build/px4io-v2_default.build/nuttx-export/libs\libnuttx.a(sched-sched_releasetcb.o)
                0x0800a6dc                sched_releasetcb
 .text.sched_unlock
                0x0800a734       0x48 c:/px4/workspace/PX4Firmware/Build/px4io-v2_default.build/nuttx-export/libs\libnuttx.a(sched-sched_unlock.o)
                0x0800a734                sched_unlock
 .text.task_activate
                0x0800a77c       0x18 c:/px4/workspace/PX4Firmware/Build/px4io-v2_default.build/nuttx-export/libs\libnuttx.a(sched-task_activate.o)
                0x0800a77c                task_activate
 .text.up_release_pending
                0x0800a794       0x38 c:/px4/workspace/PX4Firmware/Build/px4io-v2_default.build/nuttx-export/libs\libnuttx.a(arch-up_releasepending.o)
                0x0800a794                up_release_pending
 .text          0x0800a7cc       0x18 c:/px4/toolchain/bin/../lib/gcc/arm-none-eabi/4.6.2/armv7-m/libgcc.a(_lshrdi3.o)
                0x0800a7cc                __lshrdi3
                0x0800a7cc                __aeabi_llsr
 .text          0x0800a7e4      0x21c c:/px4/toolchain/bin/../lib/gcc/arm-none-eabi/4.6.2/armv7-m/libgcc.a(_arm_addsubsf3.o)
                0x0800a7e4                __aeabi_frsub
                0x0800a7ec                __subsf3
                0x0800a7ec                __aeabi_fsub
                0x0800a7f0                __aeabi_fadd
                0x0800a7f0                __addsf3
                0x0800a950                __aeabi_ui2f
                0x0800a950                __floatunsisf
                0x0800a958                __aeabi_i2f
                0x0800a958                __floatsisf
                0x0800a974                __aeabi_ul2f
                0x0800a974                __floatundisf
                0x0800a984                __aeabi_l2f
                0x0800a984                __floatdisf
 .text          0x0800aa00      0x2a0 c:/px4/toolchain/bin/../lib/gcc/arm-none-eabi/4.6.2/armv7-m/libgcc.a(_arm_muldivsf3.o)
                0x0800aa00                __mulsf3
                0x0800aa00                __aeabi_fmul
                0x0800ab68                __aeabi_fdiv
                0x0800ab68                __divsf3
 .text          0x0800aca0       0xec c:/px4/toolchain/bin/../lib/gcc/arm-none-eabi/4.6.2/armv7-m/libgcc.a(_arm_cmpsf2.o)
                0x0800aca0                __gesf2
                0x0800aca0                __gtsf2
                0x0800aca8                __lesf2
                0x0800aca8                __ltsf2
                0x0800acb0                __nesf2
                0x0800acb0                __eqsf2
                0x0800acb0                __cmpsf2
                0x0800ad10                __aeabi_cfrcmple
                0x0800ad18                __aeabi_cfcmpeq
                0x0800ad18                __aeabi_cfcmple
                0x0800ad28                __aeabi_fcmpeq
                0x0800ad3c                __aeabi_fcmplt
                0x0800ad50                __aeabi_fcmple
                0x0800ad64                __aeabi_fcmpge
                0x0800ad78                __aeabi_fcmpgt
 .text          0x0800ad8c       0x4c c:/px4/toolchain/bin/../lib/gcc/arm-none-eabi/4.6.2/armv7-m/libgcc.a(_arm_fixsfsi.o)
                0x0800ad8c                __aeabi_f2iz
                0x0800ad8c                __fixsfsi
 .text          0x0800add8       0x40 c:/px4/toolchain/bin/../lib/gcc/arm-none-eabi/4.6.2/armv7-m/libgcc.a(_arm_fixunssfsi.o)
                0x0800add8                __fixunssfsi
                0x0800add8                __aeabi_f2uiz
 .text          0x0800ae18       0x2c c:/px4/toolchain/bin/../lib/gcc/arm-none-eabi/4.6.2/armv7-m/libgcc.a(_aeabi_uldivmod.o)
                0x0800ae18                __aeabi_uldivmod
 .text          0x0800ae44       0x5c c:/px4/toolchain/bin/../lib/gcc/arm-none-eabi/4.6.2/armv7-m/libgcc.a(bpabi.o)
                0x0800ae44                __gnu_ldivmod_helper
                0x0800ae74                __gnu_uldivmod_helper
 .text          0x0800aea0        0x4 c:/px4/toolchain/bin/../lib/gcc/arm-none-eabi/4.6.2/armv7-m/libgcc.a(_dvmd_tls.o)
                0x0800aea0                __aeabi_idiv0
                0x0800aea0                __aeabi_ldiv0
 .text          0x0800aea4      0x2c8 c:/px4/toolchain/bin/../lib/gcc/arm-none-eabi/4.6.2/armv7-m/libgcc.a(_divdi3.o)
                0x0800aea4                __divdi3
 .text          0x0800b16c      0x298 c:/px4/toolchain/bin/../lib/gcc/arm-none-eabi/4.6.2/armv7-m/libgcc.a(_udivdi3.o)
                0x0800b16c                __udivdi3
 *(.fixup)
 *(.gnu.warning)
 *(.rodata .rodata.*)
 .rodata.pwm_channels
                0x0800b404       0x40 c:/px4/workspace/PX4Firmware/Build/px4io-v2_default.build/c/px4/workspace/PX4Firmware/src/drivers/boards/px4io-v2/module.pre.o
                0x0800b404                pwm_channels
 .rodata.pwm_timers
                0x0800b444       0x40 c:/px4/workspace/PX4Firmware/Build/px4io-v2_default.build/c/px4/workspace/PX4Firmware/src/drivers/boards/px4io-v2/module.pre.o
                0x0800b444                pwm_timers
 .rodata.str1.4
                0x0800b484      0x2d0 c:/px4/workspace/PX4Firmware/Build/px4io-v2_default.build/c/px4/workspace/PX4Firmware/src/modules/px4iofirmware/module.pre.o
 .rodata.r_page_config
                0x0800b754       0x14 c:/px4/workspace/PX4Firmware/Build/px4io-v2_default.build/c/px4/workspace/PX4Firmware/src/modules/px4iofirmware/module.pre.o
 .rodata.sbus_decoder
                0x0800b768       0xc0 c:/px4/workspace/PX4Firmware/Build/px4io-v2_default.build/c/px4/workspace/PX4Firmware/src/modules/px4iofirmware/module.pre.o
 .rodata._ZTV5Mixer
                0x0800b828       0x18 c:/px4/workspace/PX4Firmware/Build/px4io-v2_default.build/c/px4/workspace/PX4Firmware/src/modules/px4iofirmware/module.pre.o
                0x0800b828                vtable for Mixer
 .rodata._ZTV9NullMixer
                0x0800b840       0x18 c:/px4/workspace/PX4Firmware/Build/px4io-v2_default.build/c/px4/workspace/PX4Firmware/src/modules/px4iofirmware/module.pre.o
                0x0800b840                vtable for NullMixer
 .rodata._ZTV10MixerGroup
                0x0800b858       0x18 c:/px4/workspace/PX4Firmware/Build/px4io-v2_default.build/c/px4/workspace/PX4Firmware/src/modules/px4iofirmware/module.pre.o
                0x0800b858                vtable for MixerGroup
 .rodata._ZN12_GLOBAL__N_1L13_config_hex_xE
                0x0800b870       0x48 c:/px4/workspace/PX4Firmware/Build/px4io-v2_default.build/c/px4/workspace/PX4Firmware/src/modules/px4iofirmware/module.pre.o
 .rodata._ZN12_GLOBAL__N_1L14_config_octa_xE
                0x0800b8b8       0x60 c:/px4/workspace/PX4Firmware/Build/px4io-v2_default.build/c/px4/workspace/PX4Firmware/src/modules/px4iofirmware/module.pre.o
 .rodata._ZN12_GLOBAL__N_1L19_config_rotor_countE
                0x0800b918       0x24 c:/px4/workspace/PX4Firmware/Build/px4io-v2_default.build/c/px4/workspace/PX4Firmware/src/modules/px4iofirmware/module.pre.o
 .rodata._ZN12_GLOBAL__N_1L16_config_hex_plusE
                0x0800b93c       0x48 c:/px4/workspace/PX4Firmware/Build/px4io-v2_default.build/c/px4/workspace/PX4Firmware/src/modules/px4iofirmware/module.pre.o
 .rodata._ZN12_GLOBAL__N_1L17_config_octa_plusE
                0x0800b984       0x60 c:/px4/workspace/PX4Firmware/Build/px4io-v2_default.build/c/px4/workspace/PX4Firmware/src/modules/px4iofirmware/module.pre.o
 .rodata._ZN12_GLOBAL__N_1L17_config_quad_plusE
                0x0800b9e4       0x30 c:/px4/workspace/PX4Firmware/Build/px4io-v2_default.build/c/px4/workspace/PX4Firmware/src/modules/px4iofirmware/module.pre.o
 .rodata._ZN12_GLOBAL__N_113_config_indexE
                0x0800ba14       0x24 c:/px4/workspace/PX4Firmware/Build/px4io-v2_default.build/c/px4/workspace/PX4Firmware/src/modules/px4iofirmware/module.pre.o
 .rodata._ZN12_GLOBAL__N_1L17_config_quad_wideE
                0x0800ba38       0x30 c:/px4/workspace/PX4Firmware/Build/px4io-v2_default.build/c/px4/workspace/PX4Firmware/src/modules/px4iofirmware/module.pre.o
 .rodata._ZN12_GLOBAL__N_1L16_config_octa_coxE
                0x0800ba68       0x60 c:/px4/workspace/PX4Firmware/Build/px4io-v2_default.build/c/px4/workspace/PX4Firmware/src/modules/px4iofirmware/module.pre.o
 .rodata._ZN12_GLOBAL__N_1L14_config_quad_vE
                0x0800bac8       0x30 c:/px4/workspace/PX4Firmware/Build/px4io-v2_default.build/c/px4/workspace/PX4Firmware/src/modules/px4iofirmware/module.pre.o
 .rodata._ZN12_GLOBAL__N_1L14_config_quad_xE
                0x0800baf8       0x30 c:/px4/workspace/PX4Firmware/Build/px4io-v2_default.build/c/px4/workspace/PX4Firmware/src/modules/px4iofirmware/module.pre.o
 .rodata._ZTV15MultirotorMixer
                0x0800bb28       0x18 c:/px4/workspace/PX4Firmware/Build/px4io-v2_default.build/c/px4/workspace/PX4Firmware/src/modules/px4iofirmware/module.pre.o
                0x0800bb28                vtable for MultirotorMixer
 .rodata._ZTV11SimpleMixer
                0x0800bb40       0x18 c:/px4/workspace/PX4Firmware/Build/px4io-v2_default.build/c/px4/workspace/PX4Firmware/src/modules/px4iofirmware/module.pre.o
                0x0800bb40                vtable for SimpleMixer
 .rodata.crc8_tab
                0x0800bb58      0x100 c:/px4/workspace/PX4Firmware/Build/px4io-v2_default.build/c/px4/workspace/PX4Firmware/src/modules/px4iofirmware/module.pre.o
 .rodata.str1.1
                0x0800bc58       0x14 c:/px4/workspace/PX4Firmware/Build/px4io-v2_default.build/nuttx-export/libs\libnuttx.a(sched-irq_unexpectedisr.o)
 .rodata.crc32_tab
                0x0800bc6c      0x400 c:/px4/workspace/PX4Firmware/Build/px4io-v2_default.build/nuttx-export/libs\libnuttx.a(c-lib_crc32.o)
 .rodata.str1.1
                0x0800c06c       0x14 c:/px4/workspace/PX4Firmware/Build/px4io-v2_default.build/nuttx-export/libs\libnuttx.a(c-lib_sscanf.o)
 .rodata.spaces
                0x0800c080        0x7 c:/px4/workspace/PX4Firmware/Build/px4io-v2_default.build/nuttx-export/libs\libnuttx.a(c-lib_sscanf.o)
 .rodata.str1.1
                0x0800c087        0x9 c:/px4/workspace/PX4Firmware/Build/px4io-v2_default.build/nuttx-export/libs\libnuttx.a(mm-mm_sem.o)
 .rodata.str1.1
                0x0800c090       0x17 c:/px4/workspace/PX4Firmware/Build/px4io-v2_default.build/nuttx-export/libs\libnuttx.a(arch-stm32_dma.o)
 *fill*         0x0800c0a7        0x1 00
 .rodata.g_gpiobase
                0x0800c0a8       0x10 c:/px4/workspace/PX4Firmware/Build/px4io-v2_default.build/nuttx-export/libs\libnuttx.a(arch-stm32_gpio.o)
                0x0800c0a8                g_gpiobase
 .rodata.str1.1
                0x0800c0b8       0x23 c:/px4/workspace/PX4Firmware/Build/px4io-v2_default.build/nuttx-export/libs\libnuttx.a(arch-stm32_serial.o)
 *fill*         0x0800c0db        0x1 00
 .rodata.uart_devs
                0x0800c0dc        0xc c:/px4/workspace/PX4Firmware/Build/px4io-v2_default.build/nuttx-export/libs\libnuttx.a(arch-stm32_serial.o)
 .rodata.g_uart_dma_ops
                0x0800c0e8       0x30 c:/px4/workspace/PX4Firmware/Build/px4io-v2_default.build/nuttx-export/libs\libnuttx.a(arch-stm32_serial.o)
 .rodata.g_uart_ops
                0x0800c118       0x30 c:/px4/workspace/PX4Firmware/Build/px4io-v2_default.build/nuttx-export/libs\libnuttx.a(arch-stm32_serial.o)
 .rodata.str1.1
                0x0800c148      0x160 c:/px4/workspace/PX4Firmware/Build/px4io-v2_default.build/nuttx-export/libs\libnuttx.a(arch-up_assert.o)
 .rodata.str1.1
                0x0800c2a8       0x17 c:/px4/workspace/PX4Firmware/Build/px4io-v2_default.build/nuttx-export/libs\libnuttx.a(arch-up_hardfault.o)
 .rodata.str1.1
                0x0800c2bf       0x19 c:/px4/workspace/PX4Firmware/Build/px4io-v2_default.build/nuttx-export/libs\libnuttx.a(cxx-libxx_cxapurevirtual.o)
 .rodata.str1.1
                0x0800c2d8       0x10 c:/px4/workspace/PX4Firmware/Build/px4io-v2_default.build/nuttx-export/libs\libnuttx.a(drivers-serial.o)
 .rodata.g_serialops
                0x0800c2e8       0x18 c:/px4/workspace/PX4Firmware/Build/px4io-v2_default.build/nuttx-export/libs\libnuttx.a(drivers-serial.o)
 .rodata.g_idlename
                0x0800c300        0xa c:/px4/workspace/PX4Firmware/Build/px4io-v2_default.build/nuttx-export/libs\libnuttx.a(sched-os_start.o)
 *fill*         0x0800c30a        0x2 00
 .rodata.g_tasklisttable
                0x0800c30c       0x30 c:/px4/workspace/PX4Firmware/Build/px4io-v2_default.build/nuttx-export/libs\libnuttx.a(sched-os_start.o)
                0x0800c30c                g_tasklisttable
 .rodata.str1.1
                0x0800c33c        0xb c:/px4/workspace/PX4Firmware/Build/px4io-v2_default.build/nuttx-export/libs\libnuttx.a(sched-sem_post.o)
 .rodata.str1.1
                0x0800c347        0xb c:/px4/workspace/PX4Firmware/Build/px4io-v2_default.build/nuttx-export/libs\libnuttx.a(sched-sem_wait.o)
 .rodata.str1.1
                0x0800c352        0xc c:/px4/workspace/PX4Firmware/Build/px4io-v2_default.build/nuttx-export/libs\libnuttx.a(sched-wd_cancel.o)
 .rodata.g_nullstring
                0x0800c35e        0x7 c:/px4/workspace/PX4Firmware/Build/px4io-v2_default.build/nuttx-export/libs\libnuttx.a(c-lib_libvsprintf.o)
 .rodata.str1.1
                0x0800c365       0x1c c:/px4/workspace/PX4Firmware/Build/px4io-v2_default.build/nuttx-export/libs\libnuttx.a(c-lib_libvsprintf.o)
 .rodata        0x0800c381        0x4 c:/px4/workspace/PX4Firmware/Build/px4io-v2_default.build/nuttx-export/libs\libnuttx.a(arch-stm32_vectors.o)
                0x0800c381                g_idle_topstack
 .rodata.str1.1
                0x0800c385       0x17 c:/px4/workspace/PX4Firmware/Build/px4io-v2_default.build/nuttx-export/libs\libnuttx.a(arch-up_blocktask.o)
 .rodata.str1.1
                0x0800c39c       0x19 c:/px4/workspace/PX4Firmware/Build/px4io-v2_default.build/nuttx-export/libs\libnuttx.a(arch-up_unblocktask.o)
 .rodata.str1.1
                0x0800c3b5        0xb c:/px4/workspace/PX4Firmware/Build/px4io-v2_default.build/nuttx-export/libs\libnuttx.a(fs-fs_files.o)
 .rodata.str1.1
                0x00000000        0xd c:/px4/workspace/PX4Firmware/Build/px4io-v2_default.build/nuttx-export/libs\libnuttx.a(sched-group_setupidlefiles.o)
 .rodata.str1.1
                0x0800c3c0       0x12 c:/px4/workspace/PX4Firmware/Build/px4io-v2_default.build/nuttx-export/libs\libnuttx.a(sched-os_bringup.o)
 .rodata.str1.1
                0x0800c3d2       0x13 c:/px4/workspace/PX4Firmware/Build/px4io-v2_default.build/nuttx-export/libs\libnuttx.a(sched-sched_addblocked.o)
 .rodata.str1.1
                0x0800c3e5       0x17 c:/px4/workspace/PX4Firmware/Build/px4io-v2_default.build/nuttx-export/libs\libnuttx.a(sched-sched_addprioritized.o)
 .rodata.str1.1
                0x0800c3fc       0x16 c:/px4/workspace/PX4Firmware/Build/px4io-v2_default.build/nuttx-export/libs\libnuttx.a(sched-sched_addreadytorun.o)
 .rodata.str1.1
                0x0800c412       0x15 c:/px4/workspace/PX4Firmware/Build/px4io-v2_default.build/nuttx-export/libs\libnuttx.a(sched-sched_mergepending.o)
 .rodata.str1.1
                0x0800c427       0x16 c:/px4/workspace/PX4Firmware/Build/px4io-v2_default.build/nuttx-export/libs\libnuttx.a(sched-sched_removeblocked.o)
 .rodata.str1.1
                0x0800c43d       0x19 c:/px4/workspace/PX4Firmware/Build/px4io-v2_default.build/nuttx-export/libs\libnuttx.a(sched-sched_removereadytorun.o)
 .rodata.g_noname
                0x0800c456        0x9 c:/px4/workspace/PX4Firmware/Build/px4io-v2_default.build/nuttx-export/libs\libnuttx.a(sched-task_setup.o)
 .rodata.str1.1
                0x0800c45f       0x11 c:/px4/workspace/PX4Firmware/Build/px4io-v2_default.build/nuttx-export/libs\libnuttx.a(sched-task_terminate.o)
 .rodata.str1.1
                0x0800c470        0xb c:/px4/workspace/PX4Firmware/Build/px4io-v2_default.build/nuttx-export/libs\libnuttx.a(fs-fs_inode.o)
 .rodata.str1.1
                0x0800c47b        0xd c:/px4/workspace/PX4Firmware/Build/px4io-v2_default.build/nuttx-export/libs\libnuttx.a(sched-sched_lock.o)
 *(.gnu.linkonce.t.*)
 *(.glue_7)
 .glue_7        0x00000000        0x0 linker stubs
 *(.glue_7t)
 .glue_7t       0x00000000        0x0 linker stubs
 *(.got)
 *(.gcc_except_table)
 *(.gnu.linkonce.r.*)
                0x0800c488                _etext = ABSOLUTE (.)

.vfp11_veneer   0x0800c488        0x0
 .vfp11_veneer  0x00000000        0x0 linker stubs

.v4_bx          0x0800c488        0x0
 .v4_bx         0x00000000        0x0 linker stubs

.init_section   0x0800c488        0x4
                0x0800c488                _sinit = ABSOLUTE (.)
 *(.init_array .init_array.*)
 .init_array    0x0800c488        0x4 c:/px4/workspace/PX4Firmware/Build/px4io-v2_default.build/c/px4/workspace/PX4Firmware/src/modules/px4iofirmware/module.pre.o
                0x0800c48c                _einit = ABSOLUTE (.)

.ARM.extab
 *(.ARM.extab*)
                0x0800c48c                __exidx_start = ABSOLUTE (.)

.ARM.exidx      0x0800c48c        0x8
 *(.ARM.exidx*)
 .ARM.exidx     0x0800c48c        0x8 c:/px4/toolchain/bin/../lib/gcc/arm-none-eabi/4.6.2/armv7-m/libgcc.a(_divdi3.o)
 .ARM.exidx     0x0800c494        0x0 c:/px4/toolchain/bin/../lib/gcc/arm-none-eabi/4.6.2/armv7-m/libgcc.a(_udivdi3.o)
                                  0x8 (size before relaxing)
                0x0800c494                __exidx_end = ABSOLUTE (.)
                0x0800c494                _eronly = ABSOLUTE (.)

.data           0x20000000      0x1f8 load address 0x0800c494
                0x20000000                _sdata = ABSOLUTE (.)
 *(.data .data.*)
 .data.dsm_fd   0x20000000        0x4 c:/px4/workspace/PX4Firmware/Build/px4io-v2_default.build/c/px4/workspace/PX4Firmware/src/modules/px4iofirmware/module.pre.o
 .data.r_page_servo_control_min
                0x20000004       0x10 c:/px4/workspace/PX4Firmware/Build/px4io-v2_default.build/c/px4/workspace/PX4Firmware/src/modules/px4iofirmware/module.pre.o
 .data.r_page_servo_control_max
                0x20000014       0x10 c:/px4/workspace/PX4Firmware/Build/px4io-v2_default.build/c/px4/workspace/PX4Firmware/src/modules/px4iofirmware/module.pre.o
 .data.r_page_setup
                0x20000024       0x1c c:/px4/workspace/PX4Firmware/Build/px4io-v2_default.build/c/px4/workspace/PX4Firmware/src/modules/px4iofirmware/module.pre.o
 .data.sbus_fd  0x20000040        0x4 c:/px4/workspace/PX4Firmware/Build/px4io-v2_default.build/c/px4/workspace/PX4Firmware/src/modules/px4iofirmware/module.pre.o
 .data.g_dma    0x20000044       0x70 c:/px4/workspace/PX4Firmware/Build/px4io-v2_default.build/nuttx-export/libs\libnuttx.a(arch-stm32_dma.o)
 .data.g_usart1priv
                0x200000b4       0x6c c:/px4/workspace/PX4Firmware/Build/px4io-v2_default.build/nuttx-export/libs\libnuttx.a(arch-stm32_serial.o)
 .data.g_usart2priv
                0x20000120       0x6c c:/px4/workspace/PX4Firmware/Build/px4io-v2_default.build/nuttx-export/libs\libnuttx.a(arch-stm32_serial.o)
 .data.g_usart3priv
                0x2000018c       0x6c c:/px4/workspace/PX4Firmware/Build/px4io-v2_default.build/nuttx-export/libs\libnuttx.a(arch-stm32_serial.o)
 *(.gnu.linkonce.d.*)
                0x200001f8                _edata = ABSOLUTE (.)

.bss            0x200001f8      0xb12 load address 0x0800c690
                0x200001f8                _sbss = ABSOLUTE (.)
 *(.bss .bss.*)
 .bss.callout_queue
                0x200001f8        0x8 c:/px4/workspace/PX4Firmware/Build/px4io-v2_default.build/c/px4/workspace/PX4Firmware/src/drivers/stm32/module.pre.o
 .bss.ppm_edge_history
                0x20000200       0x40 c:/px4/workspace/PX4Firmware/Build/px4io-v2_default.build/c/px4/workspace/PX4Firmware/src/drivers/stm32/module.pre.o
                0x20000200                ppm_edge_history
 .bss.ppm_pulse_history
                0x20000240       0x40 c:/px4/workspace/PX4Firmware/Build/px4io-v2_default.build/c/px4/workspace/PX4Firmware/src/drivers/stm32/module.pre.o
                0x20000240                ppm_pulse_history
 .bss.ppm_last_valid_decode
                0x20000280        0x8 c:/px4/workspace/PX4Firmware/Build/px4io-v2_default.build/c/px4/workspace/PX4Firmware/src/drivers/stm32/module.pre.o
                0x20000280                ppm_last_valid_decode
 .bss.new_channel_holdoff.5826
                0x20000288        0x4 c:/px4/workspace/PX4Firmware/Build/px4io-v2_default.build/c/px4/workspace/PX4Firmware/src/drivers/stm32/module.pre.o
 .bss.ppm_decoded_channels
                0x2000028c        0x4 c:/px4/workspace/PX4Firmware/Build/px4io-v2_default.build/c/px4/workspace/PX4Firmware/src/drivers/stm32/module.pre.o
                0x2000028c                ppm_decoded_channels
 .bss.ppm_edge_next
                0x20000290        0x4 c:/px4/workspace/PX4Firmware/Build/px4io-v2_default.build/c/px4/workspace/PX4Firmware/src/drivers/stm32/module.pre.o
 .bss.latency_counters
                0x20000294       0x24 c:/px4/workspace/PX4Firmware/Build/px4io-v2_default.build/c/px4/workspace/PX4Firmware/src/drivers/stm32/module.pre.o
 .bss.base_time.5846
                0x200002b8        0x8 c:/px4/workspace/PX4Firmware/Build/px4io-v2_default.build/c/px4/workspace/PX4Firmware/src/drivers/stm32/module.pre.o
 .bss.last_count.5847
                0x200002c0        0x4 c:/px4/workspace/PX4Firmware/Build/px4io-v2_default.build/c/px4/workspace/PX4Firmware/src/drivers/stm32/module.pre.o
 .bss.ppm_pulse_next
                0x200002c4        0x4 c:/px4/workspace/PX4Firmware/Build/px4io-v2_default.build/c/px4/workspace/PX4Firmware/src/drivers/stm32/module.pre.o
 .bss.latency_baseline
                0x200002c8        0x2 c:/px4/workspace/PX4Firmware/Build/px4io-v2_default.build/c/px4/workspace/PX4Firmware/src/drivers/stm32/module.pre.o
 *fill*         0x200002ca        0x2 00
 .bss.ppm_buffer
                0x200002cc       0x28 c:/px4/workspace/PX4Firmware/Build/px4io-v2_default.build/c/px4/workspace/PX4Firmware/src/drivers/stm32/module.pre.o
                0x200002cc                ppm_buffer
 .bss.ppm_temp_buffer
                0x200002f4       0x28 c:/px4/workspace/PX4Firmware/Build/px4io-v2_default.build/c/px4/workspace/PX4Firmware/src/drivers/stm32/module.pre.o
 .bss.ppm_frame_length
                0x2000031c        0x2 c:/px4/workspace/PX4Firmware/Build/px4io-v2_default.build/c/px4/workspace/PX4Firmware/src/drivers/stm32/module.pre.o
                0x2000031c                ppm_frame_length
 .bss.latency_actual
                0x2000031e        0x2 c:/px4/workspace/PX4Firmware/Build/px4io-v2_default.build/c/px4/workspace/PX4Firmware/src/drivers/stm32/module.pre.o
 .bss.new_channel_count.5825
                0x20000320        0x4 c:/px4/workspace/PX4Firmware/Build/px4io-v2_default.build/c/px4/workspace/PX4Firmware/src/drivers/stm32/module.pre.o
 .bss.ppm       0x20000324       0x10 c:/px4/workspace/PX4Firmware/Build/px4io-v2_default.build/c/px4/workspace/PX4Firmware/src/drivers/stm32/module.pre.o
 .bss.adc_perf  0x20000334        0x4 c:/px4/workspace/PX4Firmware/Build/px4io-v2_default.build/c/px4/workspace/PX4Firmware/src/modules/px4iofirmware/module.pre.o
 .bss.c_gather_dsm
                0x20000338        0x4 c:/px4/workspace/PX4Firmware/Build/px4io-v2_default.build/c/px4/workspace/PX4Firmware/src/modules/px4iofirmware/module.pre.o
 .bss.c_gather_ppm
                0x2000033c        0x4 c:/px4/workspace/PX4Firmware/Build/px4io-v2_default.build/c/px4/workspace/PX4Firmware/src/modules/px4iofirmware/module.pre.o
 .bss.c_gather_sbus
                0x20000340        0x4 c:/px4/workspace/PX4Firmware/Build/px4io-v2_default.build/c/px4/workspace/PX4Firmware/src/modules/px4iofirmware/module.pre.o
 .bss.cs11.5844
                0x20000344        0x4 c:/px4/workspace/PX4Firmware/Build/px4io-v2_default.build/c/px4/workspace/PX4Firmware/src/modules/px4iofirmware/module.pre.o
 .bss.dsm_partial_frame_count
                0x20000348        0x4 c:/px4/workspace/PX4Firmware/Build/px4io-v2_default.build/c/px4/workspace/PX4Firmware/src/modules/px4iofirmware/module.pre.o
 .bss.samples.5845
                0x2000034c        0x4 c:/px4/workspace/PX4Firmware/Build/px4io-v2_default.build/c/px4/workspace/PX4Firmware/src/modules/px4iofirmware/module.pre.o
 .bss.dsm_last_rx_time
                0x20000350        0x8 c:/px4/workspace/PX4Firmware/Build/px4io-v2_default.build/c/px4/workspace/PX4Firmware/src/modules/px4iofirmware/module.pre.o
 .bss.cs10.5843
                0x20000358        0x4 c:/px4/workspace/PX4Firmware/Build/px4io-v2_default.build/c/px4/workspace/PX4Firmware/src/modules/px4iofirmware/module.pre.o
 .bss.dsm_frame
                0x2000035c       0x10 c:/px4/workspace/PX4Firmware/Build/px4io-v2_default.build/c/px4/workspace/PX4Firmware/src/modules/px4iofirmware/module.pre.o
 .bss.dsm_frame_drops
                0x2000036c        0x4 c:/px4/workspace/PX4Firmware/Build/px4io-v2_default.build/c/px4/workspace/PX4Firmware/src/modules/px4iofirmware/module.pre.o
 .bss.dsm_last_frame_time
                0x20000370        0x8 c:/px4/workspace/PX4Firmware/Build/px4io-v2_default.build/c/px4/workspace/PX4Firmware/src/modules/px4iofirmware/module.pre.o
 .bss.dsm_channel_shift
                0x20000378        0x4 c:/px4/workspace/PX4Firmware/Build/px4io-v2_default.build/c/px4/workspace/PX4Firmware/src/modules/px4iofirmware/module.pre.o
 .bss.last_msg_counter
                0x2000037c        0x4 c:/px4/workspace/PX4Firmware/Build/px4io-v2_default.build/c/px4/workspace/PX4Firmware/src/modules/px4iofirmware/module.pre.o
 .bss.system_state
                0x20000380       0x18 c:/px4/workspace/PX4Firmware/Build/px4io-v2_default.build/c/px4/workspace/PX4Firmware/src/modules/px4iofirmware/module.pre.o
 .bss.msg_next_out
                0x20000398        0x1 c:/px4/workspace/PX4Firmware/Build/px4io-v2_default.build/c/px4/workspace/PX4Firmware/src/modules/px4iofirmware/module.pre.o
 *fill*         0x20000399        0x7 00
 .bss.serial_dma_call
                0x200003a0       0x20 c:/px4/workspace/PX4Firmware/Build/px4io-v2_default.build/c/px4/workspace/PX4Firmware/src/modules/px4iofirmware/module.pre.o
 .bss.msg_counter
                0x200003c0        0x4 c:/px4/workspace/PX4Firmware/Build/px4io-v2_default.build/c/px4/workspace/PX4Firmware/src/modules/px4iofirmware/module.pre.o
 .bss.msg       0x200003c4       0x50 c:/px4/workspace/PX4Firmware/Build/px4io-v2_default.build/c/px4/workspace/PX4Firmware/src/modules/px4iofirmware/module.pre.o
 .bss.msg_next_in
                0x20000414        0x1 c:/px4/workspace/PX4Firmware/Build/px4io-v2_default.build/c/px4/workspace/PX4Firmware/src/modules/px4iofirmware/module.pre.o
 *fill*         0x20000415        0x3 00
 .bss.pwm_limit
                0x20000418       0x10 c:/px4/workspace/PX4Firmware/Build/px4io-v2_default.build/c/px4/workspace/PX4Firmware/src/modules/px4iofirmware/module.pre.o
 .bss.heartbeat.6165
                0x20000428        0x1 c:/px4/workspace/PX4Firmware/Build/px4io-v2_default.build/c/px4/workspace/PX4Firmware/src/modules/px4iofirmware/module.pre.o
 *fill*         0x20000429        0x7 00
 .bss.reboot_time
                0x20000430        0x8 c:/px4/workspace/PX4Firmware/Build/px4io-v2_default.build/c/px4/workspace/PX4Firmware/src/modules/px4iofirmware/module.pre.o
 .bss.r_page_rc_input
                0x20000438       0x14 c:/px4/workspace/PX4Firmware/Build/px4io-v2_default.build/c/px4/workspace/PX4Firmware/src/modules/px4iofirmware/module.pre.o
 .bss.r_page_scratch
                0x2000044c       0x40 c:/px4/workspace/PX4Firmware/Build/px4io-v2_default.build/c/px4/workspace/PX4Firmware/src/modules/px4iofirmware/module.pre.o
 .bss.r_page_servos
                0x2000048c       0x10 c:/px4/workspace/PX4Firmware/Build/px4io-v2_default.build/c/px4/workspace/PX4Firmware/src/modules/px4iofirmware/module.pre.o
 .bss.last_offset
                0x2000049c        0x1 c:/px4/workspace/PX4Firmware/Build/px4io-v2_default.build/c/px4/workspace/PX4Firmware/src/modules/px4iofirmware/module.pre.o
 *fill*         0x2000049d        0x3 00
 .bss.r_page_status
                0x200004a0       0x14 c:/px4/workspace/PX4Firmware/Build/px4io-v2_default.build/c/px4/workspace/PX4Firmware/src/modules/px4iofirmware/module.pre.o
 .bss.r_page_rc_input_config
                0x200004b4       0xd8 c:/px4/workspace/PX4Firmware/Build/px4io-v2_default.build/c/px4/workspace/PX4Firmware/src/modules/px4iofirmware/module.pre.o
 .bss.r_page_servo_disarmed
                0x2000058c       0x10 c:/px4/workspace/PX4Firmware/Build/px4io-v2_default.build/c/px4/workspace/PX4Firmware/src/modules/px4iofirmware/module.pre.o
 .bss.r_page_controls
                0x2000059c       0x40 c:/px4/workspace/PX4Firmware/Build/px4io-v2_default.build/c/px4/workspace/PX4Firmware/src/modules/px4iofirmware/module.pre.o
 .bss.r_page_servo_failsafe
                0x200005dc       0x10 c:/px4/workspace/PX4Firmware/Build/px4io-v2_default.build/c/px4/workspace/PX4Firmware/src/modules/px4iofirmware/module.pre.o
 .bss.r_page_raw_rc_input
                0x200005ec       0x34 c:/px4/workspace/PX4Firmware/Build/px4io-v2_default.build/c/px4/workspace/PX4Firmware/src/modules/px4iofirmware/module.pre.o
 .bss.last_page
                0x20000620        0x1 c:/px4/workspace/PX4Firmware/Build/px4io-v2_default.build/c/px4/workspace/PX4Firmware/src/modules/px4iofirmware/module.pre.o
 *fill*         0x20000621        0x3 00
 .bss.r_page_actuators
                0x20000624       0x10 c:/px4/workspace/PX4Firmware/Build/px4io-v2_default.build/c/px4/workspace/PX4Firmware/src/modules/px4iofirmware/module.pre.o
 *fill*         0x20000634        0x4 00
 .bss.arming_call
                0x20000638       0x20 c:/px4/workspace/PX4Firmware/Build/px4io-v2_default.build/c/px4/workspace/PX4Firmware/src/modules/px4iofirmware/module.pre.o
 .bss.blink_counter
                0x20000658        0x4 c:/px4/workspace/PX4Firmware/Build/px4io-v2_default.build/c/px4/workspace/PX4Firmware/src/modules/px4iofirmware/module.pre.o
 .bss.safety_button_pressed
                0x2000065c        0x1 c:/px4/workspace/PX4Firmware/Build/px4io-v2_default.build/c/px4/workspace/PX4Firmware/src/modules/px4iofirmware/module.pre.o
 .bss.failsafe.5291
                0x2000065d        0x1 c:/px4/workspace/PX4Firmware/Build/px4io-v2_default.build/c/px4/workspace/PX4Firmware/src/modules/px4iofirmware/module.pre.o
 *fill*         0x2000065e        0x2 00
 .bss.failsafe_call
                0x20000660       0x20 c:/px4/workspace/PX4Firmware/Build/px4io-v2_default.build/c/px4/workspace/PX4Firmware/src/modules/px4iofirmware/module.pre.o
 .bss.counter   0x20000680        0x4 c:/px4/workspace/PX4Firmware/Build/px4io-v2_default.build/c/px4/workspace/PX4Firmware/src/modules/px4iofirmware/module.pre.o
 .bss.frame     0x20000684       0x1c c:/px4/workspace/PX4Firmware/Build/px4io-v2_default.build/c/px4/workspace/PX4Firmware/src/modules/px4iofirmware/module.pre.o
 .bss.last_frame_time
                0x200006a0        0x8 c:/px4/workspace/PX4Firmware/Build/px4io-v2_default.build/c/px4/workspace/PX4Firmware/src/modules/px4iofirmware/module.pre.o
 .bss.partial_frame_count
                0x200006a8        0x4 c:/px4/workspace/PX4Firmware/Build/px4io-v2_default.build/c/px4/workspace/PX4Firmware/src/modules/px4iofirmware/module.pre.o
 *fill*         0x200006ac        0x4 00
 .bss.last_rx_time
                0x200006b0        0x8 c:/px4/workspace/PX4Firmware/Build/px4io-v2_default.build/c/px4/workspace/PX4Firmware/src/modules/px4iofirmware/module.pre.o
 .bss.sbus_frame_drops
                0x200006b8        0x4 c:/px4/workspace/PX4Firmware/Build/px4io-v2_default.build/c/px4/workspace/PX4Firmware/src/modules/px4iofirmware/module.pre.o
 .bss.perf_counters
                0x200006bc        0x8 c:/px4/workspace/PX4Firmware/Build/px4io-v2_default.build/c/px4/workspace/PX4Firmware/src/modules/px4iofirmware/module.pre.o
 .bss._ZL11mixer_group
                0x200006c4       0x14 c:/px4/workspace/PX4Firmware/Build/px4io-v2_default.build/c/px4/workspace/PX4Firmware/src/modules/px4iofirmware/module.pre.o
 .bss._ZL17mixer_text_length
                0x200006d8        0x4 c:/px4/workspace/PX4Firmware/Build/px4io-v2_default.build/c/px4/workspace/PX4Firmware/src/modules/px4iofirmware/module.pre.o
 .bss._ZL10should_arm
                0x200006dc        0x1 c:/px4/workspace/PX4Firmware/Build/px4io-v2_default.build/c/px4/workspace/PX4Firmware/src/modules/px4iofirmware/module.pre.o
 .bss._ZL18mixer_servos_armed
                0x200006dd        0x1 c:/px4/workspace/PX4Firmware/Build/px4io-v2_default.build/c/px4/workspace/PX4Firmware/src/modules/px4iofirmware/module.pre.o
 .bss._ZL24should_always_enable_pwm
                0x200006de        0x1 c:/px4/workspace/PX4Firmware/Build/px4io-v2_default.build/c/px4/workspace/PX4Firmware/src/modules/px4iofirmware/module.pre.o
 *fill*         0x200006df        0x1 00
 .bss._ZL10mixer_text
                0x200006e0      0x100 c:/px4/workspace/PX4Firmware/Build/px4io-v2_default.build/c/px4/workspace/PX4Firmware/src/modules/px4iofirmware/module.pre.o
 .bss._ZL8in_mixer
                0x200007e0        0x1 c:/px4/workspace/PX4Firmware/Build/px4io-v2_default.build/c/px4/workspace/PX4Firmware/src/modules/px4iofirmware/module.pre.o
 .bss._ZL6source
                0x200007e1        0x1 c:/px4/workspace/PX4Firmware/Build/px4io-v2_default.build/c/px4/workspace/PX4Firmware/src/modules/px4iofirmware/module.pre.o
 *fill*         0x200007e2        0x2 00
 .bss.pc_badidle
                0x200007e4        0x4 c:/px4/workspace/PX4Firmware/Build/px4io-v2_default.build/c/px4/workspace/PX4Firmware/src/modules/px4iofirmware/module.pre.o
 .bss.rx_dma    0x200007e8        0x4 c:/px4/workspace/PX4Firmware/Build/px4io-v2_default.build/c/px4/workspace/PX4Firmware/src/modules/px4iofirmware/module.pre.o
 .bss.pc_txns   0x200007ec        0x4 c:/px4/workspace/PX4Firmware/Build/px4io-v2_default.build/c/px4/workspace/PX4Firmware/src/modules/px4iofirmware/module.pre.o
 .bss.pc_crcerr
                0x200007f0        0x4 c:/px4/workspace/PX4Firmware/Build/px4io-v2_default.build/c/px4/workspace/PX4Firmware/src/modules/px4iofirmware/module.pre.o
 .bss.pc_errors
                0x200007f4        0x4 c:/px4/workspace/PX4Firmware/Build/px4io-v2_default.build/c/px4/workspace/PX4Firmware/src/modules/px4iofirmware/module.pre.o
 .bss.pc_fe     0x200007f8        0x4 c:/px4/workspace/PX4Firmware/Build/px4io-v2_default.build/c/px4/workspace/PX4Firmware/src/modules/px4iofirmware/module.pre.o
 .bss.dma_packet
                0x200007fc       0x44 c:/px4/workspace/PX4Firmware/Build/px4io-v2_default.build/c/px4/workspace/PX4Firmware/src/modules/px4iofirmware/module.pre.o
 .bss.abort_on_idle.5944
                0x20000840        0x1 c:/px4/workspace/PX4Firmware/Build/px4io-v2_default.build/c/px4/workspace/PX4Firmware/src/modules/px4iofirmware/module.pre.o
 *fill*         0x20000841        0x3 00
 .bss.tx_dma    0x20000844        0x4 c:/px4/workspace/PX4Firmware/Build/px4io-v2_default.build/c/px4/workspace/PX4Firmware/src/modules/px4iofirmware/module.pre.o
 .bss.pc_ne     0x20000848        0x4 c:/px4/workspace/PX4Firmware/Build/px4io-v2_default.build/c/px4/workspace/PX4Firmware/src/modules/px4iofirmware/module.pre.o
 .bss.pc_regerr
                0x2000084c        0x4 c:/px4/workspace/PX4Firmware/Build/px4io-v2_default.build/c/px4/workspace/PX4Firmware/src/modules/px4iofirmware/module.pre.o
 .bss.pc_ore    0x20000850        0x4 c:/px4/workspace/PX4Firmware/Build/px4io-v2_default.build/c/px4/workspace/PX4Firmware/src/modules/px4iofirmware/module.pre.o
 .bss.pc_idle   0x20000854        0x4 c:/px4/workspace/PX4Firmware/Build/px4io-v2_default.build/c/px4/workspace/PX4Firmware/src/modules/px4iofirmware/module.pre.o
 .bss.g_irqvector
                0x20000858      0x138 c:/px4/workspace/PX4Firmware/Build/px4io-v2_default.build/nuttx-export/libs\libnuttx.a(sched-irq_initialize.o)
                0x20000858                g_irqvector
 .bss.g_mmheap  0x20000990       0xa4 c:/px4/workspace/PX4Firmware/Build/px4io-v2_default.build/nuttx-export/libs\libnuttx.a(mm-mm_user.o)
                0x20000990                g_mmheap
 .bss.current_regs
                0x20000a34        0x4 c:/px4/workspace/PX4Firmware/Build/px4io-v2_default.build/nuttx-export/libs\libnuttx.a(arch-stm32_irq.o)
                0x20000a34                current_regs
 .bss.g_usart1txbuffer
                0x20000a38       0x40 c:/px4/workspace/PX4Firmware/Build/px4io-v2_default.build/nuttx-export/libs\libnuttx.a(arch-stm32_serial.o)
 .bss.g_usart1rxfifo
                0x20000a78       0x20 c:/px4/workspace/PX4Firmware/Build/px4io-v2_default.build/nuttx-export/libs\libnuttx.a(arch-stm32_serial.o)
 .bss.g_usart2rxbuffer
                0x20000a98       0x40 c:/px4/workspace/PX4Firmware/Build/px4io-v2_default.build/nuttx-export/libs\libnuttx.a(arch-stm32_serial.o)
 .bss.g_usart2txbuffer
                0x20000ad8       0x40 c:/px4/workspace/PX4Firmware/Build/px4io-v2_default.build/nuttx-export/libs\libnuttx.a(arch-stm32_serial.o)
 .bss.g_usart3rxbuffer
                0x20000b18       0x40 c:/px4/workspace/PX4Firmware/Build/px4io-v2_default.build/nuttx-export/libs\libnuttx.a(arch-stm32_serial.o)
 .bss.g_usart3txbuffer
                0x20000b58       0x40 c:/px4/workspace/PX4Firmware/Build/px4io-v2_default.build/nuttx-export/libs\libnuttx.a(arch-stm32_serial.o)
 .bss.g_usart1rxbuffer
                0x20000b98       0x40 c:/px4/workspace/PX4Firmware/Build/px4io-v2_default.build/nuttx-export/libs\libnuttx.a(arch-stm32_serial.o)
 .bss.g_usart3rxfifo
                0x20000bd8       0x20 c:/px4/workspace/PX4Firmware/Build/px4io-v2_default.build/nuttx-export/libs\libnuttx.a(arch-stm32_serial.o)
 .bss.__dso_handle
                0x20000bf8        0x4 c:/px4/workspace/PX4Firmware/Build/px4io-v2_default.build/nuttx-export/libs\libnuttx.a(cxx-libxx_cxa_atexit.o)
                0x20000bf8                __dso_handle
 .bss.g_irqerrno
                0x20000bfc        0x4 c:/px4/workspace/PX4Firmware/Build/px4io-v2_default.build/nuttx-export/libs\libnuttx.a(sched-errno_getptr.o)
 .bss.g_pendingtasks
                0x20000c00        0x8 c:/px4/workspace/PX4Firmware/Build/px4io-v2_default.build/nuttx-export/libs\libnuttx.a(sched-os_start.o)
                0x20000c00                g_pendingtasks
 .bss.g_delayed_kufree
                0x20000c08        0x8 c:/px4/workspace/PX4Firmware/Build/px4io-v2_default.build/nuttx-export/libs\libnuttx.a(sched-os_start.o)
                0x20000c08                g_delayed_kufree
 .bss.g_waitingforsemaphore
                0x20000c10        0x8 c:/px4/workspace/PX4Firmware/Build/px4io-v2_default.build/nuttx-export/libs\libnuttx.a(sched-os_start.o)
                0x20000c10                g_waitingforsemaphore
 .bss.g_pidhash
                0x20000c18       0x20 c:/px4/workspace/PX4Firmware/Build/px4io-v2_default.build/nuttx-export/libs\libnuttx.a(sched-os_start.o)
                0x20000c18                g_pidhash
 .bss.g_lastpid
                0x20000c38        0x2 c:/px4/workspace/PX4Firmware/Build/px4io-v2_default.build/nuttx-export/libs\libnuttx.a(sched-os_start.o)
                0x20000c38                g_lastpid
 *fill*         0x20000c3a        0x2 00
 .bss.g_readytorun
                0x20000c3c        0x8 c:/px4/workspace/PX4Firmware/Build/px4io-v2_default.build/nuttx-export/libs\libnuttx.a(sched-os_start.o)
                0x20000c3c                g_readytorun
 .bss.g_inactivetasks
                0x20000c44        0x8 c:/px4/workspace/PX4Firmware/Build/px4io-v2_default.build/nuttx-export/libs\libnuttx.a(sched-os_start.o)
                0x20000c44                g_inactivetasks
 .bss.g_idletcb
                0x20000c4c       0xa4 c:/px4/workspace/PX4Firmware/Build/px4io-v2_default.build/nuttx-export/libs\libnuttx.a(sched-os_start.o)
 .bss.g_wdfreelist
                0x20000cf0        0x8 c:/px4/workspace/PX4Firmware/Build/px4io-v2_default.build/nuttx-export/libs\libnuttx.a(sched-wd_initialize.o)
                0x20000cf0                g_wdfreelist
 .bss.g_wdpool  0x20000cf8        0x4 c:/px4/workspace/PX4Firmware/Build/px4io-v2_default.build/nuttx-export/libs\libnuttx.a(sched-wd_initialize.o)
                0x20000cf8                g_wdpool
 .bss.g_wdactivelist
                0x20000cfc        0x8 c:/px4/workspace/PX4Firmware/Build/px4io-v2_default.build/nuttx-export/libs\libnuttx.a(sched-wd_initialize.o)
                0x20000cfc                g_wdactivelist
 .bss.root_inode
                0x20000d04        0x4 c:/px4/workspace/PX4Firmware/Build/px4io-v2_default.build/nuttx-export/libs\libnuttx.a(fs-fs_inode.o)
                0x20000d04                root_inode
 .bss.tree_sem  0x20000d08        0x2 c:/px4/workspace/PX4Firmware/Build/px4io-v2_default.build/nuttx-export/libs\libnuttx.a(fs-fs_inode.o)
 *(.gnu.linkonce.b.*)
 *(COMMON)
                0x20000d0a                _ebss = ABSOLUTE (.)

.stab
 *(.stab)

.stabstr
 *(.stabstr)

.stab.excl
 *(.stab.excl)

.stab.exclstr
 *(.stab.exclstr)

.stab.index
 *(.stab.index)

.stab.indexstr
 *(.stab.indexstr)

.comment        0x00000000       0x70
 *(.comment)
 .comment       0x00000000       0x70 c:/px4/workspace/PX4Firmware/Build/px4io-v2_default.build/c/px4/workspace/PX4Firmware/Build/px4io-v2_default.build/empty.c.o
                                 0x71 (size before relaxing)
 .comment       0x00000000       0xe2 c:/px4/workspace/PX4Firmware/Build/px4io-v2_default.build/c/px4/workspace/PX4Firmware/src/drivers/boards/px4io-v2/module.pre.o
 .comment       0x00000000       0xe2 c:/px4/workspace/PX4Firmware/Build/px4io-v2_default.build/c/px4/workspace/PX4Firmware/src/drivers/stm32/module.pre.o
 .comment       0x00000000      0x781 c:/px4/workspace/PX4Firmware/Build/px4io-v2_default.build/c/px4/workspace/PX4Firmware/src/modules/px4iofirmware/module.pre.o
 .comment       0x00000000       0x71 c:/px4/workspace/PX4Firmware/Build/px4io-v2_default.build/nuttx-export/libs\libnuttx.a(sched-irq_attach.o)
 .comment       0x00000000       0x71 c:/px4/workspace/PX4Firmware/Build/px4io-v2_default.build/nuttx-export/libs\libnuttx.a(sched-irq_initialize.o)
 .comment       0x00000000       0x71 c:/px4/workspace/PX4Firmware/Build/px4io-v2_default.build/nuttx-export/libs\libnuttx.a(sched-irq_unexpectedisr.o)
 .comment       0x00000000       0x71 c:/px4/workspace/PX4Firmware/Build/px4io-v2_default.build/nuttx-export/libs\libnuttx.a(c-lib_abort.o)
 .comment       0x00000000       0x71 c:/px4/workspace/PX4Firmware/Build/px4io-v2_default.build/nuttx-export/libs\libnuttx.a(c-lib_cfsetspeed.o)
 .comment       0x00000000       0x71 c:/px4/workspace/PX4Firmware/Build/px4io-v2_default.build/nuttx-export/libs\libnuttx.a(c-lib_crc32.o)
 .comment       0x00000000       0x71 c:/px4/workspace/PX4Firmware/Build/px4io-v2_default.build/nuttx-export/libs\libnuttx.a(c-lib_lowsyslog.o)
 .comment       0x00000000       0x71 c:/px4/workspace/PX4Firmware/Build/px4io-v2_default.build/nuttx-export/libs\libnuttx.a(c-lib_memchr.o)
 .comment       0x00000000       0x71 c:/px4/workspace/PX4Firmware/Build/px4io-v2_default.build/nuttx-export/libs\libnuttx.a(c-lib_memcpy.o)
 .comment       0x00000000       0x71 c:/px4/workspace/PX4Firmware/Build/px4io-v2_default.build/nuttx-export/libs\libnuttx.a(c-lib_memset.o)
 .comment       0x00000000       0x71 c:/px4/workspace/PX4Firmware/Build/px4io-v2_default.build/nuttx-export/libs\libnuttx.a(c-lib_printf.o)
 .comment       0x00000000       0x71 c:/px4/workspace/PX4Firmware/Build/px4io-v2_default.build/nuttx-export/libs\libnuttx.a(c-lib_sscanf.o)
 .comment       0x00000000       0x71 c:/px4/workspace/PX4Firmware/Build/px4io-v2_default.build/nuttx-export/libs\libnuttx.a(c-lib_strchr.o)
 .comment       0x00000000       0x71 c:/px4/workspace/PX4Firmware/Build/px4io-v2_default.build/nuttx-export/libs\libnuttx.a(c-lib_strcmp.o)
 .comment       0x00000000       0x71 c:/px4/workspace/PX4Firmware/Build/px4io-v2_default.build/nuttx-export/libs\libnuttx.a(c-lib_strcspn.o)
 .comment       0x00000000       0x71 c:/px4/workspace/PX4Firmware/Build/px4io-v2_default.build/nuttx-export/libs\libnuttx.a(c-lib_strncpy.o)
 .comment       0x00000000       0x71 c:/px4/workspace/PX4Firmware/Build/px4io-v2_default.build/nuttx-export/libs\libnuttx.a(c-lib_strtol.o)
 .comment       0x00000000       0x71 c:/px4/workspace/PX4Firmware/Build/px4io-v2_default.build/nuttx-export/libs\libnuttx.a(c-lib_strtoul.o)
 .comment       0x00000000       0x71 c:/px4/workspace/PX4Firmware/Build/px4io-v2_default.build/nuttx-export/libs\libnuttx.a(c-lib_syslog.o)
 .comment       0x00000000       0x71 c:/px4/workspace/PX4Firmware/Build/px4io-v2_default.build/nuttx-export/libs\libnuttx.a(c-lib_tcgetattr.o)
 .comment       0x00000000       0x71 c:/px4/workspace/PX4Firmware/Build/px4io-v2_default.build/nuttx-export/libs\libnuttx.a(c-lib_tcsetattr.o)
 .comment       0x00000000       0x71 c:/px4/workspace/PX4Firmware/Build/px4io-v2_default.build/nuttx-export/libs\libnuttx.a(c-lib_vsnprintf.o)
 .comment       0x00000000       0x71 c:/px4/workspace/PX4Firmware/Build/px4io-v2_default.build/nuttx-export/libs\libnuttx.a(c-sq_addafter.o)
 .comment       0x00000000       0x71 c:/px4/workspace/PX4Firmware/Build/px4io-v2_default.build/nuttx-export/libs\libnuttx.a(c-sq_addfirst.o)
 .comment       0x00000000       0x71 c:/px4/workspace/PX4Firmware/Build/px4io-v2_default.build/nuttx-export/libs\libnuttx.a(c-sq_addlast.o)
 .comment       0x00000000       0x71 c:/px4/workspace/PX4Firmware/Build/px4io-v2_default.build/nuttx-export/libs\libnuttx.a(c-sq_rem.o)
 .comment       0x00000000       0x71 c:/px4/workspace/PX4Firmware/Build/px4io-v2_default.build/nuttx-export/libs\libnuttx.a(c-sq_remafter.o)
 .comment       0x00000000       0x71 c:/px4/workspace/PX4Firmware/Build/px4io-v2_default.build/nuttx-export/libs\libnuttx.a(mm-mm_calloc.o)
 .comment       0x00000000       0x71 c:/px4/workspace/PX4Firmware/Build/px4io-v2_default.build/nuttx-export/libs\libnuttx.a(mm-mm_free.o)
 .comment       0x00000000       0x71 c:/px4/workspace/PX4Firmware/Build/px4io-v2_default.build/nuttx-export/libs\libnuttx.a(mm-mm_mallinfo.o)
 .comment       0x00000000       0x71 c:/px4/workspace/PX4Firmware/Build/px4io-v2_default.build/nuttx-export/libs\libnuttx.a(mm-mm_malloc.o)
 .comment       0x00000000       0x71 c:/px4/workspace/PX4Firmware/Build/px4io-v2_default.build/nuttx-export/libs\libnuttx.a(mm-mm_sem.o)
 .comment       0x00000000       0x71 c:/px4/workspace/PX4Firmware/Build/px4io-v2_default.build/nuttx-export/libs\libnuttx.a(mm-mm_size2ndx.o)
 .comment       0x00000000       0x71 c:/px4/workspace/PX4Firmware/Build/px4io-v2_default.build/nuttx-export/libs\libnuttx.a(mm-mm_user.o)
 .comment       0x00000000       0x71 c:/px4/workspace/PX4Firmware/Build/px4io-v2_default.build/nuttx-export/libs\libnuttx.a(mm-mm_zalloc.o)
 .comment       0x00000000       0x71 c:/px4/workspace/PX4Firmware/Build/px4io-v2_default.build/nuttx-export/libs\libnuttx.a(arch-stm32_dma.o)
 .comment       0x00000000       0x71 c:/px4/workspace/PX4Firmware/Build/px4io-v2_default.build/nuttx-export/libs\libnuttx.a(arch-stm32_gpio.o)
 .comment       0x00000000       0x71 c:/px4/workspace/PX4Firmware/Build/px4io-v2_default.build/nuttx-export/libs\libnuttx.a(arch-stm32_irq.o)
 .comment       0x00000000       0x71 c:/px4/workspace/PX4Firmware/Build/px4io-v2_default.build/nuttx-export/libs\libnuttx.a(arch-stm32_serial.o)
 .comment       0x00000000       0x71 c:/px4/workspace/PX4Firmware/Build/px4io-v2_default.build/nuttx-export/libs\libnuttx.a(arch-stm32_start.o)
 .comment       0x00000000       0x71 c:/px4/workspace/PX4Firmware/Build/px4io-v2_default.build/nuttx-export/libs\libnuttx.a(arch-up_assert.o)
 .comment       0x00000000       0x71 c:/px4/workspace/PX4Firmware/Build/px4io-v2_default.build/nuttx-export/libs\libnuttx.a(arch-up_hardfault.o)
 .comment       0x00000000       0x71 c:/px4/workspace/PX4Firmware/Build/px4io-v2_default.build/nuttx-export/libs\libnuttx.a(arch-up_modifyreg32.o)
 .comment       0x00000000       0x71 c:/px4/workspace/PX4Firmware/Build/px4io-v2_default.build/nuttx-export/libs\libnuttx.a(arch-up_svcall.o)
 .comment       0x00000000       0x71 c:/px4/workspace/PX4Firmware/Build/px4io-v2_default.build/nuttx-export/libs\libnuttx.a(arch-up_systemreset.o)
 .comment       0x00000000       0x71 c:/px4/workspace/PX4Firmware/Build/px4io-v2_default.build/nuttx-export/libs\libnuttx.a(arch-up_udelay.o)
 .comment       0x00000000       0x71 c:/px4/workspace/PX4Firmware/Build/px4io-v2_default.build/nuttx-export/libs\libnuttx.a(arch-up_vectors.o)
 .comment       0x00000000       0x71 c:/px4/workspace/PX4Firmware/Build/px4io-v2_default.build/nuttx-export/libs\libnuttx.a(cxx-libxx_cxa_atexit.o)
 .comment       0x00000000       0x71 c:/px4/workspace/PX4Firmware/Build/px4io-v2_default.build/nuttx-export/libs\libnuttx.a(cxx-libxx_cxapurevirtual.o)
 .comment       0x00000000       0x71 c:/px4/workspace/PX4Firmware/Build/px4io-v2_default.build/nuttx-export/libs\libnuttx.a(cxx-libxx_delete.o)
 .comment       0x00000000       0x71 c:/px4/workspace/PX4Firmware/Build/px4io-v2_default.build/nuttx-export/libs\libnuttx.a(cxx-libxx_eabi_atexit.o)
 .comment       0x00000000       0x71 c:/px4/workspace/PX4Firmware/Build/px4io-v2_default.build/nuttx-export/libs\libnuttx.a(cxx-libxx_new.o)
 .comment       0x00000000       0x71 c:/px4/workspace/PX4Firmware/Build/px4io-v2_default.build/nuttx-export/libs\libnuttx.a(fs-fs_ioctl.o)
 .comment       0x00000000       0x71 c:/px4/workspace/PX4Firmware/Build/px4io-v2_default.build/nuttx-export/libs\libnuttx.a(fs-fs_open.o)
 .comment       0x00000000       0x71 c:/px4/workspace/PX4Firmware/Build/px4io-v2_default.build/nuttx-export/libs\libnuttx.a(fs-fs_read.o)
 .comment       0x00000000       0x71 c:/px4/workspace/PX4Firmware/Build/px4io-v2_default.build/nuttx-export/libs\libnuttx.a(fs-fs_write.o)
 .comment       0x00000000       0x71 c:/px4/workspace/PX4Firmware/Build/px4io-v2_default.build/nuttx-export/libs\libnuttx.a(drivers-serial.o)
 .comment       0x00000000       0x71 c:/px4/workspace/PX4Firmware/Build/px4io-v2_default.build/nuttx-export/libs\libnuttx.a(drivers-serialirq.o)
 .comment       0x00000000       0x71 c:/px4/workspace/PX4Firmware/Build/px4io-v2_default.build/nuttx-export/libs\libnuttx.a(sched-errno_getptr.o)
 .comment       0x00000000       0x71 c:/px4/workspace/PX4Firmware/Build/px4io-v2_default.build/nuttx-export/libs\libnuttx.a(sched-exit.o)
 .comment       0x00000000       0x71 c:/px4/workspace/PX4Firmware/Build/px4io-v2_default.build/nuttx-export/libs\libnuttx.a(sched-getpid.o)
 .comment       0x00000000       0x71 c:/px4/workspace/PX4Firmware/Build/px4io-v2_default.build/nuttx-export/libs\libnuttx.a(sched-os_start.o)
 .comment       0x00000000       0x71 c:/px4/workspace/PX4Firmware/Build/px4io-v2_default.build/nuttx-export/libs\libnuttx.a(sched-sched_garbage.o)
 .comment       0x00000000       0x71 c:/px4/workspace/PX4Firmware/Build/px4io-v2_default.build/nuttx-export/libs\libnuttx.a(sched-sched_getfiles.o)
 .comment       0x00000000       0x71 c:/px4/workspace/PX4Firmware/Build/px4io-v2_default.build/nuttx-export/libs\libnuttx.a(sched-sem_post.o)
 .comment       0x00000000       0x71 c:/px4/workspace/PX4Firmware/Build/px4io-v2_default.build/nuttx-export/libs\libnuttx.a(sched-sem_trywait.o)
 .comment       0x00000000       0x71 c:/px4/workspace/PX4Firmware/Build/px4io-v2_default.build/nuttx-export/libs\libnuttx.a(sched-sem_wait.o)
 .comment       0x00000000       0x71 c:/px4/workspace/PX4Firmware/Build/px4io-v2_default.build/nuttx-export/libs\libnuttx.a(sched-task_exithook.o)
 .comment       0x00000000       0x71 c:/px4/workspace/PX4Firmware/Build/px4io-v2_default.build/nuttx-export/libs\libnuttx.a(sched-task_recover.o)
 .comment       0x00000000       0x71 c:/px4/workspace/PX4Firmware/Build/px4io-v2_default.build/nuttx-export/libs\libnuttx.a(sched-wd_cancel.o)
 .comment       0x00000000       0x71 c:/px4/workspace/PX4Firmware/Build/px4io-v2_default.build/nuttx-export/libs\libnuttx.a(sched-wd_delete.o)
 .comment       0x00000000       0x71 c:/px4/workspace/PX4Firmware/Build/px4io-v2_default.build/nuttx-export/libs\libnuttx.a(sched-wd_initialize.o)
 .comment       0x00000000       0x71 c:/px4/workspace/PX4Firmware/Build/px4io-v2_default.build/nuttx-export/libs\libnuttx.a(c-dq_addfirst.o)
 .comment       0x00000000       0x71 c:/px4/workspace/PX4Firmware/Build/px4io-v2_default.build/nuttx-export/libs\libnuttx.a(c-lib_cfgetspeed.o)
 .comment       0x00000000       0x71 c:/px4/workspace/PX4Firmware/Build/px4io-v2_default.build/nuttx-export/libs\libnuttx.a(c-lib_checkbase.o)
 .comment       0x00000000       0x71 c:/px4/workspace/PX4Firmware/Build/px4io-v2_default.build/nuttx-export/libs\libnuttx.a(c-lib_isbasedigit.o)
 .comment       0x00000000       0x71 c:/px4/workspace/PX4Firmware/Build/px4io-v2_default.build/nuttx-export/libs\libnuttx.a(c-lib_libvsprintf.o)
 .comment       0x00000000       0x71 c:/px4/workspace/PX4Firmware/Build/px4io-v2_default.build/nuttx-export/libs\libnuttx.a(c-lib_lowoutstream.o)
 .comment       0x00000000       0x71 c:/px4/workspace/PX4Firmware/Build/px4io-v2_default.build/nuttx-export/libs\libnuttx.a(c-lib_memoutstream.o)
 .comment       0x00000000       0x71 c:/px4/workspace/PX4Firmware/Build/px4io-v2_default.build/nuttx-export/libs\libnuttx.a(c-lib_nulloutstream.o)
 .comment       0x00000000       0x71 c:/px4/workspace/PX4Firmware/Build/px4io-v2_default.build/nuttx-export/libs\libnuttx.a(c-lib_rawoutstream.o)
 .comment       0x00000000       0x71 c:/px4/workspace/PX4Firmware/Build/px4io-v2_default.build/nuttx-export/libs\libnuttx.a(c-lib_skipspace.o)
 .comment       0x00000000       0x71 c:/px4/workspace/PX4Firmware/Build/px4io-v2_default.build/nuttx-export/libs\libnuttx.a(c-lib_strcpy.o)
 .comment       0x00000000       0x71 c:/px4/workspace/PX4Firmware/Build/px4io-v2_default.build/nuttx-export/libs\libnuttx.a(c-lib_strlen.o)
 .comment       0x00000000       0x71 c:/px4/workspace/PX4Firmware/Build/px4io-v2_default.build/nuttx-export/libs\libnuttx.a(c-sem_init.o)
 .comment       0x00000000       0x71 c:/px4/workspace/PX4Firmware/Build/px4io-v2_default.build/nuttx-export/libs\libnuttx.a(c-sq_remfirst.o)
 .comment       0x00000000       0x71 c:/px4/workspace/PX4Firmware/Build/px4io-v2_default.build/nuttx-export/libs\libnuttx.a(mm-mm_addfreechunk.o)
 .comment       0x00000000       0x71 c:/px4/workspace/PX4Firmware/Build/px4io-v2_default.build/nuttx-export/libs\libnuttx.a(mm-mm_initialize.o)
 .comment       0x00000000       0x71 c:/px4/workspace/PX4Firmware/Build/px4io-v2_default.build/nuttx-export/libs\libnuttx.a(arch-stm32_allocateheap.o)
 .comment       0x00000000       0x71 c:/px4/workspace/PX4Firmware/Build/px4io-v2_default.build/nuttx-export/libs\libnuttx.a(arch-stm32_idle.o)
 .comment       0x00000000       0x71 c:/px4/workspace/PX4Firmware/Build/px4io-v2_default.build/nuttx-export/libs\libnuttx.a(arch-stm32_lowputc.o)
 .comment       0x00000000       0x71 c:/px4/workspace/PX4Firmware/Build/px4io-v2_default.build/nuttx-export/libs\libnuttx.a(arch-stm32_rcc.o)
 .comment       0x00000000       0x71 c:/px4/workspace/PX4Firmware/Build/px4io-v2_default.build/nuttx-export/libs\libnuttx.a(arch-up_blocktask.o)
 .comment       0x00000000       0x71 c:/px4/workspace/PX4Firmware/Build/px4io-v2_default.build/nuttx-export/libs\libnuttx.a(arch-up_copystate.o)
 .comment       0x00000000       0x71 c:/px4/workspace/PX4Firmware/Build/px4io-v2_default.build/nuttx-export/libs\libnuttx.a(arch-up_exit.o)
 .comment       0x00000000       0x71 c:/px4/workspace/PX4Firmware/Build/px4io-v2_default.build/nuttx-export/libs\libnuttx.a(arch-up_initialize.o)
 .comment       0x00000000       0x71 c:/px4/workspace/PX4Firmware/Build/px4io-v2_default.build/nuttx-export/libs\libnuttx.a(arch-up_initialstate.o)
 .comment       0x00000000       0x71 c:/px4/workspace/PX4Firmware/Build/px4io-v2_default.build/nuttx-export/libs\libnuttx.a(arch-up_interruptcontext.o)
 .comment       0x00000000       0x71 c:/px4/workspace/PX4Firmware/Build/px4io-v2_default.build/nuttx-export/libs\libnuttx.a(arch-up_mdelay.o)
 .comment       0x00000000       0x71 c:/px4/workspace/PX4Firmware/Build/px4io-v2_default.build/nuttx-export/libs\libnuttx.a(arch-up_unblocktask.o)
 .comment       0x00000000       0x71 c:/px4/workspace/PX4Firmware/Build/px4io-v2_default.build/nuttx-export/libs\libnuttx.a(fs-fs_files.o)
 .comment       0x00000000       0x71 c:/px4/workspace/PX4Firmware/Build/px4io-v2_default.build/nuttx-export/libs\libnuttx.a(fs-fs_inodeaddref.o)
 .comment       0x00000000       0x71 c:/px4/workspace/PX4Firmware/Build/px4io-v2_default.build/nuttx-export/libs\libnuttx.a(fs-fs_inodefind.o)
 .comment       0x00000000       0x71 c:/px4/workspace/PX4Firmware/Build/px4io-v2_default.build/nuttx-export/libs\libnuttx.a(fs-fs_inoderelease.o)
 .comment       0x00000000       0x71 c:/px4/workspace/PX4Firmware/Build/px4io-v2_default.build/nuttx-export/libs\libnuttx.a(fs-fs_registerdriver.o)
 .comment       0x00000000       0x71 c:/px4/workspace/PX4Firmware/Build/px4io-v2_default.build/nuttx-export/libs\libnuttx.a(sched-group_create.o)
 .comment       0x00000000       0x71 c:/px4/workspace/PX4Firmware/Build/px4io-v2_default.build/nuttx-export/libs\libnuttx.a(sched-group_leave.o)
 .comment       0x00000000       0x71 c:/px4/workspace/PX4Firmware/Build/px4io-v2_default.build/nuttx-export/libs\libnuttx.a(sched-group_setupidlefiles.o)
 .comment       0x00000000       0x71 c:/px4/workspace/PX4Firmware/Build/px4io-v2_default.build/nuttx-export/libs\libnuttx.a(sched-os_bringup.o)
 .comment       0x00000000       0x71 c:/px4/workspace/PX4Firmware/Build/px4io-v2_default.build/nuttx-export/libs\libnuttx.a(sched-sched_addblocked.o)
 .comment       0x00000000       0x71 c:/px4/workspace/PX4Firmware/Build/px4io-v2_default.build/nuttx-export/libs\libnuttx.a(sched-sched_addprioritized.o)
 .comment       0x00000000       0x71 c:/px4/workspace/PX4Firmware/Build/px4io-v2_default.build/nuttx-export/libs\libnuttx.a(sched-sched_addreadytorun.o)
 .comment       0x00000000       0x71 c:/px4/workspace/PX4Firmware/Build/px4io-v2_default.build/nuttx-export/libs\libnuttx.a(sched-sched_free.o)
 .comment       0x00000000       0x71 c:/px4/workspace/PX4Firmware/Build/px4io-v2_default.build/nuttx-export/libs\libnuttx.a(sched-sched_mergepending.o)
 .comment       0x00000000       0x71 c:/px4/workspace/PX4Firmware/Build/px4io-v2_default.build/nuttx-export/libs\libnuttx.a(sched-sched_removeblocked.o)
 .comment       0x00000000       0x71 c:/px4/workspace/PX4Firmware/Build/px4io-v2_default.build/nuttx-export/libs\libnuttx.a(sched-sched_removereadytorun.o)
 .comment       0x00000000       0x71 c:/px4/workspace/PX4Firmware/Build/px4io-v2_default.build/nuttx-export/libs\libnuttx.a(sched-sem_destroy.o)
 .comment       0x00000000       0x71 c:/px4/workspace/PX4Firmware/Build/px4io-v2_default.build/nuttx-export/libs\libnuttx.a(sched-task_create.o)
 .comment       0x00000000       0x71 c:/px4/workspace/PX4Firmware/Build/px4io-v2_default.build/nuttx-export/libs\libnuttx.a(sched-task_exit.o)
 .comment       0x00000000       0x71 c:/px4/workspace/PX4Firmware/Build/px4io-v2_default.build/nuttx-export/libs\libnuttx.a(sched-task_setup.o)
 .comment       0x00000000       0x71 c:/px4/workspace/PX4Firmware/Build/px4io-v2_default.build/nuttx-export/libs\libnuttx.a(sched-task_start.o)
 .comment       0x00000000       0x71 c:/px4/workspace/PX4Firmware/Build/px4io-v2_default.build/nuttx-export/libs\libnuttx.a(sched-task_terminate.o)
 .comment       0x00000000       0x71 c:/px4/workspace/PX4Firmware/Build/px4io-v2_default.build/nuttx-export/libs\libnuttx.a(c-dq_addlast.o)
 .comment       0x00000000       0x71 c:/px4/workspace/PX4Firmware/Build/px4io-v2_default.build/nuttx-export/libs\libnuttx.a(c-dq_rem.o)
 .comment       0x00000000       0x71 c:/px4/workspace/PX4Firmware/Build/px4io-v2_default.build/nuttx-export/libs\libnuttx.a(c-lib_strdup.o)
 .comment       0x00000000       0x71 c:/px4/workspace/PX4Firmware/Build/px4io-v2_default.build/nuttx-export/libs\libnuttx.a(arch-stm32_timerisr.o)
 .comment       0x00000000       0x71 c:/px4/workspace/PX4Firmware/Build/px4io-v2_default.build/nuttx-export/libs\libnuttx.a(arch-up_createstack.o)
 .comment       0x00000000       0x71 c:/px4/workspace/PX4Firmware/Build/px4io-v2_default.build/nuttx-export/libs\libnuttx.a(arch-up_doirq.o)
 .comment       0x00000000       0x71 c:/px4/workspace/PX4Firmware/Build/px4io-v2_default.build/nuttx-export/libs\libnuttx.a(arch-up_releasestack.o)
 .comment       0x00000000       0x71 c:/px4/workspace/PX4Firmware/Build/px4io-v2_default.build/nuttx-export/libs\libnuttx.a(fs-fs_close.o)
 .comment       0x00000000       0x71 c:/px4/workspace/PX4Firmware/Build/px4io-v2_default.build/nuttx-export/libs\libnuttx.a(fs-fs_filedup2.o)
 .comment       0x00000000       0x71 c:/px4/workspace/PX4Firmware/Build/px4io-v2_default.build/nuttx-export/libs\libnuttx.a(fs-fs_inode.o)
 .comment       0x00000000       0x71 c:/px4/workspace/PX4Firmware/Build/px4io-v2_default.build/nuttx-export/libs\libnuttx.a(fs-fs_inodereserve.o)
 .comment       0x00000000       0x71 c:/px4/workspace/PX4Firmware/Build/px4io-v2_default.build/nuttx-export/libs\libnuttx.a(sched-group_setuptaskfiles.o)
 .comment       0x00000000       0x71 c:/px4/workspace/PX4Firmware/Build/px4io-v2_default.build/nuttx-export/libs\libnuttx.a(sched-irq_dispatch.o)
 .comment       0x00000000       0x71 c:/px4/workspace/PX4Firmware/Build/px4io-v2_default.build/nuttx-export/libs\libnuttx.a(sched-sched_gettcb.o)
 .comment       0x00000000       0x71 c:/px4/workspace/PX4Firmware/Build/px4io-v2_default.build/nuttx-export/libs\libnuttx.a(sched-sched_lock.o)
 .comment       0x00000000       0x71 c:/px4/workspace/PX4Firmware/Build/px4io-v2_default.build/nuttx-export/libs\libnuttx.a(sched-sched_processtimer.o)
 .comment       0x00000000       0x71 c:/px4/workspace/PX4Firmware/Build/px4io-v2_default.build/nuttx-export/libs\libnuttx.a(sched-sched_releasetcb.o)
 .comment       0x00000000       0x71 c:/px4/workspace/PX4Firmware/Build/px4io-v2_default.build/nuttx-export/libs\libnuttx.a(sched-sched_unlock.o)
 .comment       0x00000000       0x71 c:/px4/workspace/PX4Firmware/Build/px4io-v2_default.build/nuttx-export/libs\libnuttx.a(sched-task_activate.o)
 .comment       0x00000000       0x71 c:/px4/workspace/PX4Firmware/Build/px4io-v2_default.build/nuttx-export/libs\libnuttx.a(arch-up_releasepending.o)

.ARM.attributes
                0x00000000       0x31
 .ARM.attributes
                0x00000000       0x2f c:/px4/workspace/PX4Firmware/Build/px4io-v2_default.build/c/px4/workspace/PX4Firmware/Build/px4io-v2_default.build/empty.c.o
 .ARM.attributes
                0x0000002f       0x2f c:/px4/workspace/PX4Firmware/Build/px4io-v2_default.build/c/px4/workspace/PX4Firmware/src/drivers/boards/px4io-v2/module.pre.o
 .ARM.attributes
                0x0000005e       0x2f c:/px4/workspace/PX4Firmware/Build/px4io-v2_default.build/c/px4/workspace/PX4Firmware/src/drivers/stm32/module.pre.o
 .ARM.attributes
                0x0000008d       0x2f c:/px4/workspace/PX4Firmware/Build/px4io-v2_default.build/c/px4/workspace/PX4Firmware/src/modules/px4iofirmware/module.pre.o
 .ARM.attributes
                0x000000bc       0x2f c:/px4/workspace/PX4Firmware/Build/px4io-v2_default.build/nuttx-export/libs\libnuttx.a(sched-irq_attach.o)
 .ARM.attributes
                0x000000eb       0x2f c:/px4/workspace/PX4Firmware/Build/px4io-v2_default.build/nuttx-export/libs\libnuttx.a(sched-irq_initialize.o)
 .ARM.attributes
                0x0000011a       0x2f c:/px4/workspace/PX4Firmware/Build/px4io-v2_default.build/nuttx-export/libs\libnuttx.a(sched-irq_unexpectedisr.o)
 .ARM.attributes
                0x00000149       0x2f c:/px4/workspace/PX4Firmware/Build/px4io-v2_default.build/nuttx-export/libs\libnuttx.a(c-lib_abort.o)
 .ARM.attributes
                0x00000178       0x2f c:/px4/workspace/PX4Firmware/Build/px4io-v2_default.build/nuttx-export/libs\libnuttx.a(c-lib_cfsetspeed.o)
 .ARM.attributes
                0x000001a7       0x2f c:/px4/workspace/PX4Firmware/Build/px4io-v2_default.build/nuttx-export/libs\libnuttx.a(c-lib_crc32.o)
 .ARM.attributes
                0x000001d6       0x2f c:/px4/workspace/PX4Firmware/Build/px4io-v2_default.build/nuttx-export/libs\libnuttx.a(c-lib_lowsyslog.o)
 .ARM.attributes
                0x00000205       0x2f c:/px4/workspace/PX4Firmware/Build/px4io-v2_default.build/nuttx-export/libs\libnuttx.a(c-lib_memchr.o)
 .ARM.attributes
                0x00000234       0x2f c:/px4/workspace/PX4Firmware/Build/px4io-v2_default.build/nuttx-export/libs\libnuttx.a(c-lib_memcpy.o)
 .ARM.attributes
                0x00000263       0x2f c:/px4/workspace/PX4Firmware/Build/px4io-v2_default.build/nuttx-export/libs\libnuttx.a(c-lib_memset.o)
 .ARM.attributes
                0x00000292       0x2f c:/px4/workspace/PX4Firmware/Build/px4io-v2_default.build/nuttx-export/libs\libnuttx.a(c-lib_printf.o)
 .ARM.attributes
                0x000002c1       0x2f c:/px4/workspace/PX4Firmware/Build/px4io-v2_default.build/nuttx-export/libs\libnuttx.a(c-lib_sscanf.o)
 .ARM.attributes
                0x000002f0       0x2f c:/px4/workspace/PX4Firmware/Build/px4io-v2_default.build/nuttx-export/libs\libnuttx.a(c-lib_strchr.o)
 .ARM.attributes
                0x0000031f       0x2f c:/px4/workspace/PX4Firmware/Build/px4io-v2_default.build/nuttx-export/libs\libnuttx.a(c-lib_strcmp.o)
 .ARM.attributes
                0x0000034e       0x2f c:/px4/workspace/PX4Firmware/Build/px4io-v2_default.build/nuttx-export/libs\libnuttx.a(c-lib_strcspn.o)
 .ARM.attributes
                0x0000037d       0x2f c:/px4/workspace/PX4Firmware/Build/px4io-v2_default.build/nuttx-export/libs\libnuttx.a(c-lib_strncpy.o)
 .ARM.attributes
                0x000003ac       0x2f c:/px4/workspace/PX4Firmware/Build/px4io-v2_default.build/nuttx-export/libs\libnuttx.a(c-lib_strtol.o)
 .ARM.attributes
                0x000003db       0x2f c:/px4/workspace/PX4Firmware/Build/px4io-v2_default.build/nuttx-export/libs\libnuttx.a(c-lib_strtoul.o)
 .ARM.attributes
                0x0000040a       0x2f c:/px4/workspace/PX4Firmware/Build/px4io-v2_default.build/nuttx-export/libs\libnuttx.a(c-lib_syslog.o)
 .ARM.attributes
                0x00000439       0x2f c:/px4/workspace/PX4Firmware/Build/px4io-v2_default.build/nuttx-export/libs\libnuttx.a(c-lib_tcgetattr.o)
 .ARM.attributes
                0x00000468       0x2f c:/px4/workspace/PX4Firmware/Build/px4io-v2_default.build/nuttx-export/libs\libnuttx.a(c-lib_tcsetattr.o)
 .ARM.attributes
                0x00000497       0x2f c:/px4/workspace/PX4Firmware/Build/px4io-v2_default.build/nuttx-export/libs\libnuttx.a(c-lib_vsnprintf.o)
 .ARM.attributes
                0x000004c6       0x2f c:/px4/workspace/PX4Firmware/Build/px4io-v2_default.build/nuttx-export/libs\libnuttx.a(c-sq_addafter.o)
 .ARM.attributes
                0x000004f5       0x2f c:/px4/workspace/PX4Firmware/Build/px4io-v2_default.build/nuttx-export/libs\libnuttx.a(c-sq_addfirst.o)
 .ARM.attributes
                0x00000524       0x2f c:/px4/workspace/PX4Firmware/Build/px4io-v2_default.build/nuttx-export/libs\libnuttx.a(c-sq_addlast.o)
 .ARM.attributes
                0x00000553       0x2f c:/px4/workspace/PX4Firmware/Build/px4io-v2_default.build/nuttx-export/libs\libnuttx.a(c-sq_rem.o)
 .ARM.attributes
                0x00000582       0x2f c:/px4/workspace/PX4Firmware/Build/px4io-v2_default.build/nuttx-export/libs\libnuttx.a(c-sq_remafter.o)
 .ARM.attributes
                0x000005b1       0x2f c:/px4/workspace/PX4Firmware/Build/px4io-v2_default.build/nuttx-export/libs\libnuttx.a(mm-mm_calloc.o)
 .ARM.attributes
                0x000005e0       0x2f c:/px4/workspace/PX4Firmware/Build/px4io-v2_default.build/nuttx-export/libs\libnuttx.a(mm-mm_free.o)
 .ARM.attributes
                0x0000060f       0x2f c:/px4/workspace/PX4Firmware/Build/px4io-v2_default.build/nuttx-export/libs\libnuttx.a(mm-mm_mallinfo.o)
 .ARM.attributes
                0x0000063e       0x2f c:/px4/workspace/PX4Firmware/Build/px4io-v2_default.build/nuttx-export/libs\libnuttx.a(mm-mm_malloc.o)
 .ARM.attributes
                0x0000066d       0x2f c:/px4/workspace/PX4Firmware/Build/px4io-v2_default.build/nuttx-export/libs\libnuttx.a(mm-mm_sem.o)
 .ARM.attributes
                0x0000069c       0x2f c:/px4/workspace/PX4Firmware/Build/px4io-v2_default.build/nuttx-export/libs\libnuttx.a(mm-mm_size2ndx.o)
 .ARM.attributes
                0x000006cb       0x2f c:/px4/workspace/PX4Firmware/Build/px4io-v2_default.build/nuttx-export/libs\libnuttx.a(mm-mm_user.o)
 .ARM.attributes
                0x000006fa       0x2f c:/px4/workspace/PX4Firmware/Build/px4io-v2_default.build/nuttx-export/libs\libnuttx.a(mm-mm_zalloc.o)
 .ARM.attributes
                0x00000729       0x2f c:/px4/workspace/PX4Firmware/Build/px4io-v2_default.build/nuttx-export/libs\libnuttx.a(arch-stm32_dma.o)
 .ARM.attributes
                0x00000758       0x2f c:/px4/workspace/PX4Firmware/Build/px4io-v2_default.build/nuttx-export/libs\libnuttx.a(arch-stm32_gpio.o)
 .ARM.attributes
                0x00000787       0x2f c:/px4/workspace/PX4Firmware/Build/px4io-v2_default.build/nuttx-export/libs\libnuttx.a(arch-stm32_irq.o)
 .ARM.attributes
                0x000007b6       0x2f c:/px4/workspace/PX4Firmware/Build/px4io-v2_default.build/nuttx-export/libs\libnuttx.a(arch-stm32_serial.o)
 .ARM.attributes
                0x000007e5       0x2f c:/px4/workspace/PX4Firmware/Build/px4io-v2_default.build/nuttx-export/libs\libnuttx.a(arch-stm32_start.o)
 .ARM.attributes
                0x00000814       0x2f c:/px4/workspace/PX4Firmware/Build/px4io-v2_default.build/nuttx-export/libs\libnuttx.a(arch-up_assert.o)
 .ARM.attributes
                0x00000843       0x2f c:/px4/workspace/PX4Firmware/Build/px4io-v2_default.build/nuttx-export/libs\libnuttx.a(arch-up_hardfault.o)
 .ARM.attributes
                0x00000872       0x2f c:/px4/workspace/PX4Firmware/Build/px4io-v2_default.build/nuttx-export/libs\libnuttx.a(arch-up_modifyreg32.o)
 .ARM.attributes
                0x000008a1       0x2f c:/px4/workspace/PX4Firmware/Build/px4io-v2_default.build/nuttx-export/libs\libnuttx.a(arch-up_svcall.o)
 .ARM.attributes
                0x000008d0       0x2f c:/px4/workspace/PX4Firmware/Build/px4io-v2_default.build/nuttx-export/libs\libnuttx.a(arch-up_systemreset.o)
 .ARM.attributes
                0x000008ff       0x2f c:/px4/workspace/PX4Firmware/Build/px4io-v2_default.build/nuttx-export/libs\libnuttx.a(arch-up_udelay.o)
 .ARM.attributes
                0x0000092e       0x2f c:/px4/workspace/PX4Firmware/Build/px4io-v2_default.build/nuttx-export/libs\libnuttx.a(arch-up_vectors.o)
 .ARM.attributes
                0x0000095d       0x2f c:/px4/workspace/PX4Firmware/Build/px4io-v2_default.build/nuttx-export/libs\libnuttx.a(cxx-libxx_cxa_atexit.o)
 .ARM.attributes
                0x0000098c       0x2f c:/px4/workspace/PX4Firmware/Build/px4io-v2_default.build/nuttx-export/libs\libnuttx.a(cxx-libxx_cxapurevirtual.o)
 .ARM.attributes
                0x000009bb       0x2f c:/px4/workspace/PX4Firmware/Build/px4io-v2_default.build/nuttx-export/libs\libnuttx.a(cxx-libxx_delete.o)
 .ARM.attributes
                0x000009ea       0x2f c:/px4/workspace/PX4Firmware/Build/px4io-v2_default.build/nuttx-export/libs\libnuttx.a(cxx-libxx_eabi_atexit.o)
 .ARM.attributes
                0x00000a19       0x2f c:/px4/workspace/PX4Firmware/Build/px4io-v2_default.build/nuttx-export/libs\libnuttx.a(cxx-libxx_new.o)
 .ARM.attributes
                0x00000a48       0x2f c:/px4/workspace/PX4Firmware/Build/px4io-v2_default.build/nuttx-export/libs\libnuttx.a(fs-fs_ioctl.o)
 .ARM.attributes
                0x00000a77       0x2f c:/px4/workspace/PX4Firmware/Build/px4io-v2_default.build/nuttx-export/libs\libnuttx.a(fs-fs_open.o)
 .ARM.attributes
                0x00000aa6       0x2f c:/px4/workspace/PX4Firmware/Build/px4io-v2_default.build/nuttx-export/libs\libnuttx.a(fs-fs_read.o)
 .ARM.attributes
                0x00000ad5       0x2f c:/px4/workspace/PX4Firmware/Build/px4io-v2_default.build/nuttx-export/libs\libnuttx.a(fs-fs_write.o)
 .ARM.attributes
                0x00000b04       0x2f c:/px4/workspace/PX4Firmware/Build/px4io-v2_default.build/nuttx-export/libs\libnuttx.a(drivers-serial.o)
 .ARM.attributes
                0x00000b33       0x2f c:/px4/workspace/PX4Firmware/Build/px4io-v2_default.build/nuttx-export/libs\libnuttx.a(drivers-serialirq.o)
 .ARM.attributes
                0x00000b62       0x2f c:/px4/workspace/PX4Firmware/Build/px4io-v2_default.build/nuttx-export/libs\libnuttx.a(sched-errno_getptr.o)
 .ARM.attributes
                0x00000b91       0x2f c:/px4/workspace/PX4Firmware/Build/px4io-v2_default.build/nuttx-export/libs\libnuttx.a(sched-exit.o)
 .ARM.attributes
                0x00000bc0       0x2f c:/px4/workspace/PX4Firmware/Build/px4io-v2_default.build/nuttx-export/libs\libnuttx.a(sched-getpid.o)
 .ARM.attributes
                0x00000bef       0x2f c:/px4/workspace/PX4Firmware/Build/px4io-v2_default.build/nuttx-export/libs\libnuttx.a(sched-os_start.o)
 .ARM.attributes
                0x00000c1e       0x2f c:/px4/workspace/PX4Firmware/Build/px4io-v2_default.build/nuttx-export/libs\libnuttx.a(sched-sched_garbage.o)
 .ARM.attributes
                0x00000c4d       0x2f c:/px4/workspace/PX4Firmware/Build/px4io-v2_default.build/nuttx-export/libs\libnuttx.a(sched-sched_getfiles.o)
 .ARM.attributes
                0x00000c7c       0x2f c:/px4/workspace/PX4Firmware/Build/px4io-v2_default.build/nuttx-export/libs\libnuttx.a(sched-sem_post.o)
 .ARM.attributes
                0x00000cab       0x2f c:/px4/workspace/PX4Firmware/Build/px4io-v2_default.build/nuttx-export/libs\libnuttx.a(sched-sem_trywait.o)
 .ARM.attributes
                0x00000cda       0x2f c:/px4/workspace/PX4Firmware/Build/px4io-v2_default.build/nuttx-export/libs\libnuttx.a(sched-sem_wait.o)
 .ARM.attributes
                0x00000d09       0x2f c:/px4/workspace/PX4Firmware/Build/px4io-v2_default.build/nuttx-export/libs\libnuttx.a(sched-task_exithook.o)
 .ARM.attributes
                0x00000d38       0x2f c:/px4/workspace/PX4Firmware/Build/px4io-v2_default.build/nuttx-export/libs\libnuttx.a(sched-task_recover.o)
 .ARM.attributes
                0x00000d67       0x2f c:/px4/workspace/PX4Firmware/Build/px4io-v2_default.build/nuttx-export/libs\libnuttx.a(sched-wd_cancel.o)
 .ARM.attributes
                0x00000d96       0x2f c:/px4/workspace/PX4Firmware/Build/px4io-v2_default.build/nuttx-export/libs\libnuttx.a(sched-wd_delete.o)
 .ARM.attributes
                0x00000dc5       0x2f c:/px4/workspace/PX4Firmware/Build/px4io-v2_default.build/nuttx-export/libs\libnuttx.a(sched-wd_initialize.o)
 .ARM.attributes
                0x00000df4       0x2f c:/px4/workspace/PX4Firmware/Build/px4io-v2_default.build/nuttx-export/libs\libnuttx.a(c-dq_addfirst.o)
 .ARM.attributes
                0x00000e23       0x2f c:/px4/workspace/PX4Firmware/Build/px4io-v2_default.build/nuttx-export/libs\libnuttx.a(c-lib_cfgetspeed.o)
 .ARM.attributes
                0x00000e52       0x2f c:/px4/workspace/PX4Firmware/Build/px4io-v2_default.build/nuttx-export/libs\libnuttx.a(c-lib_checkbase.o)
 .ARM.attributes
                0x00000e81       0x2f c:/px4/workspace/PX4Firmware/Build/px4io-v2_default.build/nuttx-export/libs\libnuttx.a(c-lib_isbasedigit.o)
 .ARM.attributes
                0x00000eb0       0x2f c:/px4/workspace/PX4Firmware/Build/px4io-v2_default.build/nuttx-export/libs\libnuttx.a(c-lib_libvsprintf.o)
 .ARM.attributes
                0x00000edf       0x2f c:/px4/workspace/PX4Firmware/Build/px4io-v2_default.build/nuttx-export/libs\libnuttx.a(c-lib_lowoutstream.o)
 .ARM.attributes
                0x00000f0e       0x2f c:/px4/workspace/PX4Firmware/Build/px4io-v2_default.build/nuttx-export/libs\libnuttx.a(c-lib_memoutstream.o)
 .ARM.attributes
                0x00000f3d       0x2f c:/px4/workspace/PX4Firmware/Build/px4io-v2_default.build/nuttx-export/libs\libnuttx.a(c-lib_nulloutstream.o)
 .ARM.attributes
                0x00000f6c       0x2f c:/px4/workspace/PX4Firmware/Build/px4io-v2_default.build/nuttx-export/libs\libnuttx.a(c-lib_rawoutstream.o)
 .ARM.attributes
                0x00000f9b       0x2f c:/px4/workspace/PX4Firmware/Build/px4io-v2_default.build/nuttx-export/libs\libnuttx.a(c-lib_skipspace.o)
 .ARM.attributes
                0x00000fca       0x2f c:/px4/workspace/PX4Firmware/Build/px4io-v2_default.build/nuttx-export/libs\libnuttx.a(c-lib_strcpy.o)
 .ARM.attributes
                0x00000ff9       0x2f c:/px4/workspace/PX4Firmware/Build/px4io-v2_default.build/nuttx-export/libs\libnuttx.a(c-lib_strlen.o)
 .ARM.attributes
                0x00001028       0x2f c:/px4/workspace/PX4Firmware/Build/px4io-v2_default.build/nuttx-export/libs\libnuttx.a(c-sem_init.o)
 .ARM.attributes
                0x00001057       0x2f c:/px4/workspace/PX4Firmware/Build/px4io-v2_default.build/nuttx-export/libs\libnuttx.a(c-sq_remfirst.o)
 .ARM.attributes
                0x00001086       0x2f c:/px4/workspace/PX4Firmware/Build/px4io-v2_default.build/nuttx-export/libs\libnuttx.a(mm-mm_addfreechunk.o)
 .ARM.attributes
                0x000010b5       0x2f c:/px4/workspace/PX4Firmware/Build/px4io-v2_default.build/nuttx-export/libs\libnuttx.a(mm-mm_initialize.o)
 .ARM.attributes
                0x000010e4       0x2f c:/px4/workspace/PX4Firmware/Build/px4io-v2_default.build/nuttx-export/libs\libnuttx.a(arch-stm32_allocateheap.o)
 .ARM.attributes
                0x00001113       0x2f c:/px4/workspace/PX4Firmware/Build/px4io-v2_default.build/nuttx-export/libs\libnuttx.a(arch-stm32_idle.o)
 .ARM.attributes
                0x00001142       0x2f c:/px4/workspace/PX4Firmware/Build/px4io-v2_default.build/nuttx-export/libs\libnuttx.a(arch-stm32_lowputc.o)
 .ARM.attributes
                0x00001171       0x2f c:/px4/workspace/PX4Firmware/Build/px4io-v2_default.build/nuttx-export/libs\libnuttx.a(arch-stm32_rcc.o)
 .ARM.attributes
                0x000011a0       0x1b c:/px4/workspace/PX4Firmware/Build/px4io-v2_default.build/nuttx-export/libs\libnuttx.a(arch-stm32_vectors.o)
 .ARM.attributes
                0x000011bb       0x2f c:/px4/workspace/PX4Firmware/Build/px4io-v2_default.build/nuttx-export/libs\libnuttx.a(arch-up_blocktask.o)
 .ARM.attributes
                0x000011ea       0x2f c:/px4/workspace/PX4Firmware/Build/px4io-v2_default.build/nuttx-export/libs\libnuttx.a(arch-up_copystate.o)
 .ARM.attributes
                0x00001219       0x1b c:/px4/workspace/PX4Firmware/Build/px4io-v2_default.build/nuttx-export/libs\libnuttx.a(arch-up_exception.o)
 .ARM.attributes
                0x00001234       0x2f c:/px4/workspace/PX4Firmware/Build/px4io-v2_default.build/nuttx-export/libs\libnuttx.a(arch-up_exit.o)
 .ARM.attributes
                0x00001263       0x1b c:/px4/workspace/PX4Firmware/Build/px4io-v2_default.build/nuttx-export/libs\libnuttx.a(arch-up_fullcontextrestore.o)
 .ARM.attributes
                0x0000127e       0x2f c:/px4/workspace/PX4Firmware/Build/px4io-v2_default.build/nuttx-export/libs\libnuttx.a(arch-up_initialize.o)
 .ARM.attributes
                0x000012ad       0x2f c:/px4/workspace/PX4Firmware/Build/px4io-v2_default.build/nuttx-export/libs\libnuttx.a(arch-up_initialstate.o)
 .ARM.attributes
                0x000012dc       0x2f c:/px4/workspace/PX4Firmware/Build/px4io-v2_default.build/nuttx-export/libs\libnuttx.a(arch-up_interruptcontext.o)
 .ARM.attributes
                0x0000130b       0x2f c:/px4/workspace/PX4Firmware/Build/px4io-v2_default.build/nuttx-export/libs\libnuttx.a(arch-up_mdelay.o)
 .ARM.attributes
                0x0000133a       0x1b c:/px4/workspace/PX4Firmware/Build/px4io-v2_default.build/nuttx-export/libs\libnuttx.a(arch-up_switchcontext.o)
 .ARM.attributes
                0x00001355       0x2f c:/px4/workspace/PX4Firmware/Build/px4io-v2_default.build/nuttx-export/libs\libnuttx.a(arch-up_unblocktask.o)
 .ARM.attributes
                0x00001384       0x2f c:/px4/workspace/PX4Firmware/Build/px4io-v2_default.build/nuttx-export/libs\libnuttx.a(fs-fs_files.o)
 .ARM.attributes
                0x000013b3       0x2f c:/px4/workspace/PX4Firmware/Build/px4io-v2_default.build/nuttx-export/libs\libnuttx.a(fs-fs_inodeaddref.o)
 .ARM.attributes
                0x000013e2       0x2f c:/px4/workspace/PX4Firmware/Build/px4io-v2_default.build/nuttx-export/libs\libnuttx.a(fs-fs_inodefind.o)
 .ARM.attributes
                0x00001411       0x2f c:/px4/workspace/PX4Firmware/Build/px4io-v2_default.build/nuttx-export/libs\libnuttx.a(fs-fs_inoderelease.o)
 .ARM.attributes
                0x00001440       0x2f c:/px4/workspace/PX4Firmware/Build/px4io-v2_default.build/nuttx-export/libs\libnuttx.a(fs-fs_registerdriver.o)
 .ARM.attributes
                0x0000146f       0x2f c:/px4/workspace/PX4Firmware/Build/px4io-v2_default.build/nuttx-export/libs\libnuttx.a(sched-group_create.o)
 .ARM.attributes
                0x0000149e       0x2f c:/px4/workspace/PX4Firmware/Build/px4io-v2_default.build/nuttx-export/libs\libnuttx.a(sched-group_leave.o)
 .ARM.attributes
                0x000014cd       0x2f c:/px4/workspace/PX4Firmware/Build/px4io-v2_default.build/nuttx-export/libs\libnuttx.a(sched-group_setupidlefiles.o)
 .ARM.attributes
                0x000014fc       0x2f c:/px4/workspace/PX4Firmware/Build/px4io-v2_default.build/nuttx-export/libs\libnuttx.a(sched-os_bringup.o)
 .ARM.attributes
                0x0000152b       0x2f c:/px4/workspace/PX4Firmware/Build/px4io-v2_default.build/nuttx-export/libs\libnuttx.a(sched-sched_addblocked.o)
 .ARM.attributes
                0x0000155a       0x2f c:/px4/workspace/PX4Firmware/Build/px4io-v2_default.build/nuttx-export/libs\libnuttx.a(sched-sched_addprioritized.o)
 .ARM.attributes
                0x00001589       0x2f c:/px4/workspace/PX4Firmware/Build/px4io-v2_default.build/nuttx-export/libs\libnuttx.a(sched-sched_addreadytorun.o)
 .ARM.attributes
                0x000015b8       0x2f c:/px4/workspace/PX4Firmware/Build/px4io-v2_default.build/nuttx-export/libs\libnuttx.a(sched-sched_free.o)
 .ARM.attributes
                0x000015e7       0x2f c:/px4/workspace/PX4Firmware/Build/px4io-v2_default.build/nuttx-export/libs\libnuttx.a(sched-sched_mergepending.o)
 .ARM.attributes
                0x00001616       0x2f c:/px4/workspace/PX4Firmware/Build/px4io-v2_default.build/nuttx-export/libs\libnuttx.a(sched-sched_removeblocked.o)
 .ARM.attributes
                0x00001645       0x2f c:/px4/workspace/PX4Firmware/Build/px4io-v2_default.build/nuttx-export/libs\libnuttx.a(sched-sched_removereadytorun.o)
 .ARM.attributes
                0x00001674       0x2f c:/px4/workspace/PX4Firmware/Build/px4io-v2_default.build/nuttx-export/libs\libnuttx.a(sched-sem_destroy.o)
 .ARM.attributes
                0x000016a3       0x2f c:/px4/workspace/PX4Firmware/Build/px4io-v2_default.build/nuttx-export/libs\libnuttx.a(sched-task_create.o)
 .ARM.attributes
                0x000016d2       0x2f c:/px4/workspace/PX4Firmware/Build/px4io-v2_default.build/nuttx-export/libs\libnuttx.a(sched-task_exit.o)
 .ARM.attributes
                0x00001701       0x2f c:/px4/workspace/PX4Firmware/Build/px4io-v2_default.build/nuttx-export/libs\libnuttx.a(sched-task_setup.o)
 .ARM.attributes
                0x00001730       0x2f c:/px4/workspace/PX4Firmware/Build/px4io-v2_default.build/nuttx-export/libs\libnuttx.a(sched-task_start.o)
 .ARM.attributes
                0x0000175f       0x2f c:/px4/workspace/PX4Firmware/Build/px4io-v2_default.build/nuttx-export/libs\libnuttx.a(sched-task_terminate.o)
 .ARM.attributes
                0x0000178e       0x2f c:/px4/workspace/PX4Firmware/Build/px4io-v2_default.build/nuttx-export/libs\libnuttx.a(c-dq_addlast.o)
 .ARM.attributes
                0x000017bd       0x2f c:/px4/workspace/PX4Firmware/Build/px4io-v2_default.build/nuttx-export/libs\libnuttx.a(c-dq_rem.o)
 .ARM.attributes
                0x000017ec       0x2f c:/px4/workspace/PX4Firmware/Build/px4io-v2_default.build/nuttx-export/libs\libnuttx.a(c-lib_strdup.o)
 .ARM.attributes
                0x0000181b       0x2f c:/px4/workspace/PX4Firmware/Build/px4io-v2_default.build/nuttx-export/libs\libnuttx.a(arch-stm32_timerisr.o)
 .ARM.attributes
                0x0000184a       0x2f c:/px4/workspace/PX4Firmware/Build/px4io-v2_default.build/nuttx-export/libs\libnuttx.a(arch-up_createstack.o)
 .ARM.attributes
                0x00001879       0x2f c:/px4/workspace/PX4Firmware/Build/px4io-v2_default.build/nuttx-export/libs\libnuttx.a(arch-up_doirq.o)
 .ARM.attributes
                0x000018a8       0x2f c:/px4/workspace/PX4Firmware/Build/px4io-v2_default.build/nuttx-export/libs\libnuttx.a(arch-up_releasestack.o)
 .ARM.attributes
                0x000018d7       0x2f c:/px4/workspace/PX4Firmware/Build/px4io-v2_default.build/nuttx-export/libs\libnuttx.a(fs-fs_close.o)
 .ARM.attributes
                0x00001906       0x2f c:/px4/workspace/PX4Firmware/Build/px4io-v2_default.build/nuttx-export/libs\libnuttx.a(fs-fs_filedup2.o)
 .ARM.attributes
                0x00001935       0x2f c:/px4/workspace/PX4Firmware/Build/px4io-v2_default.build/nuttx-export/libs\libnuttx.a(fs-fs_inode.o)
 .ARM.attributes
                0x00001964       0x2f c:/px4/workspace/PX4Firmware/Build/px4io-v2_default.build/nuttx-export/libs\libnuttx.a(fs-fs_inodereserve.o)
 .ARM.attributes
                0x00001993       0x2f c:/px4/workspace/PX4Firmware/Build/px4io-v2_default.build/nuttx-export/libs\libnuttx.a(sched-group_setuptaskfiles.o)
 .ARM.attributes
                0x000019c2       0x2f c:/px4/workspace/PX4Firmware/Build/px4io-v2_default.build/nuttx-export/libs\libnuttx.a(sched-irq_dispatch.o)
 .ARM.attributes
                0x000019f1       0x2f c:/px4/workspace/PX4Firmware/Build/px4io-v2_default.build/nuttx-export/libs\libnuttx.a(sched-sched_gettcb.o)
 .ARM.attributes
                0x00001a20       0x2f c:/px4/workspace/PX4Firmware/Build/px4io-v2_default.build/nuttx-export/libs\libnuttx.a(sched-sched_lock.o)
 .ARM.attributes
                0x00001a4f       0x2f c:/px4/workspace/PX4Firmware/Build/px4io-v2_default.build/nuttx-export/libs\libnuttx.a(sched-sched_processtimer.o)
 .ARM.attributes
                0x00001a7e       0x2f c:/px4/workspace/PX4Firmware/Build/px4io-v2_default.build/nuttx-export/libs\libnuttx.a(sched-sched_releasetcb.o)
 .ARM.attributes
                0x00001aad       0x2f c:/px4/workspace/PX4Firmware/Build/px4io-v2_default.build/nuttx-export/libs\libnuttx.a(sched-sched_unlock.o)
 .ARM.attributes
                0x00001adc       0x2f c:/px4/workspace/PX4Firmware/Build/px4io-v2_default.build/nuttx-export/libs\libnuttx.a(sched-task_activate.o)
 .ARM.attributes
                0x00001b0b       0x2f c:/px4/workspace/PX4Firmware/Build/px4io-v2_default.build/nuttx-export/libs\libnuttx.a(arch-up_releasepending.o)
 .ARM.attributes
                0x00001b3a       0x1d c:/px4/toolchain/bin/../lib/gcc/arm-none-eabi/4.6.2/armv7-m/libgcc.a(_lshrdi3.o)
 .ARM.attributes
                0x00001b57       0x1d c:/px4/toolchain/bin/../lib/gcc/arm-none-eabi/4.6.2/armv7-m/libgcc.a(_arm_addsubsf3.o)
 .ARM.attributes
                0x00001b74       0x1d c:/px4/toolchain/bin/../lib/gcc/arm-none-eabi/4.6.2/armv7-m/libgcc.a(_arm_muldivsf3.o)
 .ARM.attributes
                0x00001b91       0x1d c:/px4/toolchain/bin/../lib/gcc/arm-none-eabi/4.6.2/armv7-m/libgcc.a(_arm_cmpsf2.o)
 .ARM.attributes
                0x00001bae       0x1d c:/px4/toolchain/bin/../lib/gcc/arm-none-eabi/4.6.2/armv7-m/libgcc.a(_arm_fixsfsi.o)
 .ARM.attributes
                0x00001bcb       0x1d c:/px4/toolchain/bin/../lib/gcc/arm-none-eabi/4.6.2/armv7-m/libgcc.a(_arm_fixunssfsi.o)
 .ARM.attributes
                0x00001be8       0x1d c:/px4/toolchain/bin/../lib/gcc/arm-none-eabi/4.6.2/armv7-m/libgcc.a(_aeabi_uldivmod.o)
 .ARM.attributes
                0x00001c05       0x2d c:/px4/toolchain/bin/../lib/gcc/arm-none-eabi/4.6.2/armv7-m/libgcc.a(bpabi.o)
 .ARM.attributes
                0x00001c32       0x1d c:/px4/toolchain/bin/../lib/gcc/arm-none-eabi/4.6.2/armv7-m/libgcc.a(_dvmd_tls.o)
 .ARM.attributes
                0x00001c4f       0x2d c:/px4/toolchain/bin/../lib/gcc/arm-none-eabi/4.6.2/armv7-m/libgcc.a(_divdi3.o)
 .ARM.attributes
                0x00001c7c       0x2d c:/px4/toolchain/bin/../lib/gcc/arm-none-eabi/4.6.2/armv7-m/libgcc.a(_udivdi3.o)

.debug_abbrev   0x00000000     0xc4f1
 *(.debug_abbrev)
 .debug_abbrev  0x00000000        0x1 c:/px4/workspace/PX4Firmware/Build/px4io-v2_default.build/c/px4/workspace/PX4Firmware/Build/px4io-v2_default.build/empty.c.o
 .debug_abbrev  0x00000001       0xcb c:/px4/workspace/PX4Firmware/Build/px4io-v2_default.build/c/px4/workspace/PX4Firmware/src/drivers/boards/px4io-v2/module.pre.o
 .debug_abbrev  0x000000cc      0x55f c:/px4/workspace/PX4Firmware/Build/px4io-v2_default.build/c/px4/workspace/PX4Firmware/src/drivers/stm32/module.pre.o
 .debug_abbrev  0x0000062b     0x28e7 c:/px4/workspace/PX4Firmware/Build/px4io-v2_default.build/c/px4/workspace/PX4Firmware/src/modules/px4iofirmware/module.pre.o
 .debug_abbrev  0x00002f12      0x13b c:/px4/workspace/PX4Firmware/Build/px4io-v2_default.build/nuttx-export/libs\libnuttx.a(sched-irq_attach.o)
 .debug_abbrev  0x0000304d       0xb5 c:/px4/workspace/PX4Firmware/Build/px4io-v2_default.build/nuttx-export/libs\libnuttx.a(sched-irq_initialize.o)
 .debug_abbrev  0x00003102       0xb4 c:/px4/workspace/PX4Firmware/Build/px4io-v2_default.build/nuttx-export/libs\libnuttx.a(sched-irq_unexpectedisr.o)
 .debug_abbrev  0x000031b6       0x41 c:/px4/workspace/PX4Firmware/Build/px4io-v2_default.build/nuttx-export/libs\libnuttx.a(c-lib_abort.o)
 .debug_abbrev  0x000031f7       0xa9 c:/px4/workspace/PX4Firmware/Build/px4io-v2_default.build/nuttx-export/libs\libnuttx.a(c-lib_cfsetspeed.o)
 .debug_abbrev  0x000032a0       0xd8 c:/px4/workspace/PX4Firmware/Build/px4io-v2_default.build/nuttx-export/libs\libnuttx.a(c-lib_crc32.o)
 .debug_abbrev  0x00003378      0x10b c:/px4/workspace/PX4Firmware/Build/px4io-v2_default.build/nuttx-export/libs\libnuttx.a(c-lib_lowsyslog.o)
 .debug_abbrev  0x00003483       0x8c c:/px4/workspace/PX4Firmware/Build/px4io-v2_default.build/nuttx-export/libs\libnuttx.a(c-lib_memchr.o)
 .debug_abbrev  0x0000350f       0xb2 c:/px4/workspace/PX4Firmware/Build/px4io-v2_default.build/nuttx-export/libs\libnuttx.a(c-lib_memcpy.o)
 .debug_abbrev  0x000035c1       0x8f c:/px4/workspace/PX4Firmware/Build/px4io-v2_default.build/nuttx-export/libs\libnuttx.a(c-lib_memset.o)
 .debug_abbrev  0x00003650       0xb7 c:/px4/workspace/PX4Firmware/Build/px4io-v2_default.build/nuttx-export/libs\libnuttx.a(c-lib_printf.o)
 .debug_abbrev  0x00003707      0x1ae c:/px4/workspace/PX4Firmware/Build/px4io-v2_default.build/nuttx-export/libs\libnuttx.a(c-lib_sscanf.o)
 .debug_abbrev  0x000038b5       0x73 c:/px4/workspace/PX4Firmware/Build/px4io-v2_default.build/nuttx-export/libs\libnuttx.a(c-lib_strchr.o)
 .debug_abbrev  0x00003928       0x82 c:/px4/workspace/PX4Firmware/Build/px4io-v2_default.build/nuttx-export/libs\libnuttx.a(c-lib_strcmp.o)
 .debug_abbrev  0x000039aa       0x8f c:/px4/workspace/PX4Firmware/Build/px4io-v2_default.build/nuttx-export/libs\libnuttx.a(c-lib_strcspn.o)
 .debug_abbrev  0x00003a39       0x8f c:/px4/workspace/PX4Firmware/Build/px4io-v2_default.build/nuttx-export/libs\libnuttx.a(c-lib_strncpy.o)
 .debug_abbrev  0x00003ac8       0x7e c:/px4/workspace/PX4Firmware/Build/px4io-v2_default.build/nuttx-export/libs\libnuttx.a(c-lib_strtol.o)
 .debug_abbrev  0x00003b46       0x80 c:/px4/workspace/PX4Firmware/Build/px4io-v2_default.build/nuttx-export/libs\libnuttx.a(c-lib_strtoul.o)
 .debug_abbrev  0x00003bc6      0x10b c:/px4/workspace/PX4Firmware/Build/px4io-v2_default.build/nuttx-export/libs\libnuttx.a(c-lib_syslog.o)
 .debug_abbrev  0x00003cd1       0xa9 c:/px4/workspace/PX4Firmware/Build/px4io-v2_default.build/nuttx-export/libs\libnuttx.a(c-lib_tcgetattr.o)
 .debug_abbrev  0x00003d7a       0xb0 c:/px4/workspace/PX4Firmware/Build/px4io-v2_default.build/nuttx-export/libs\libnuttx.a(c-lib_tcsetattr.o)
 .debug_abbrev  0x00003e2a       0xed c:/px4/workspace/PX4Firmware/Build/px4io-v2_default.build/nuttx-export/libs\libnuttx.a(c-lib_vsnprintf.o)
 .debug_abbrev  0x00003f17       0x86 c:/px4/workspace/PX4Firmware/Build/px4io-v2_default.build/nuttx-export/libs\libnuttx.a(c-sq_addafter.o)
 .debug_abbrev  0x00003f9d       0x86 c:/px4/workspace/PX4Firmware/Build/px4io-v2_default.build/nuttx-export/libs\libnuttx.a(c-sq_addfirst.o)
 .debug_abbrev  0x00004023       0x86 c:/px4/workspace/PX4Firmware/Build/px4io-v2_default.build/nuttx-export/libs\libnuttx.a(c-sq_addlast.o)
 .debug_abbrev  0x000040a9       0x9c c:/px4/workspace/PX4Firmware/Build/px4io-v2_default.build/nuttx-export/libs\libnuttx.a(c-sq_rem.o)
 .debug_abbrev  0x00004145       0x97 c:/px4/workspace/PX4Firmware/Build/px4io-v2_default.build/nuttx-export/libs\libnuttx.a(c-sq_remafter.o)
 .debug_abbrev  0x000041dc       0x86 c:/px4/workspace/PX4Firmware/Build/px4io-v2_default.build/nuttx-export/libs\libnuttx.a(mm-mm_calloc.o)
 .debug_abbrev  0x00004262      0x125 c:/px4/workspace/PX4Firmware/Build/px4io-v2_default.build/nuttx-export/libs\libnuttx.a(mm-mm_free.o)
 .debug_abbrev  0x00004387      0x107 c:/px4/workspace/PX4Firmware/Build/px4io-v2_default.build/nuttx-export/libs\libnuttx.a(mm-mm_mallinfo.o)
 .debug_abbrev  0x0000448e      0x120 c:/px4/workspace/PX4Firmware/Build/px4io-v2_default.build/nuttx-export/libs\libnuttx.a(mm-mm_malloc.o)
 .debug_abbrev  0x000045ae       0xec c:/px4/workspace/PX4Firmware/Build/px4io-v2_default.build/nuttx-export/libs\libnuttx.a(mm-mm_sem.o)
 .debug_abbrev  0x0000469a       0x6e c:/px4/workspace/PX4Firmware/Build/px4io-v2_default.build/nuttx-export/libs\libnuttx.a(mm-mm_size2ndx.o)
 .debug_abbrev  0x00004708       0xed c:/px4/workspace/PX4Firmware/Build/px4io-v2_default.build/nuttx-export/libs\libnuttx.a(mm-mm_user.o)
 .debug_abbrev  0x000047f5       0x77 c:/px4/workspace/PX4Firmware/Build/px4io-v2_default.build/nuttx-export/libs\libnuttx.a(mm-mm_zalloc.o)
 .debug_abbrev  0x0000486c      0x29f c:/px4/workspace/PX4Firmware/Build/px4io-v2_default.build/nuttx-export/libs\libnuttx.a(arch-stm32_dma.o)
 .debug_abbrev  0x00004b0b      0x1e8 c:/px4/workspace/PX4Firmware/Build/px4io-v2_default.build/nuttx-export/libs\libnuttx.a(arch-stm32_gpio.o)
 .debug_abbrev  0x00004cf3      0x19b c:/px4/workspace/PX4Firmware/Build/px4io-v2_default.build/nuttx-export/libs\libnuttx.a(arch-stm32_irq.o)
 .debug_abbrev  0x00004e8e      0x323 c:/px4/workspace/PX4Firmware/Build/px4io-v2_default.build/nuttx-export/libs\libnuttx.a(arch-stm32_serial.o)
 .debug_abbrev  0x000051b1       0x8d c:/px4/workspace/PX4Firmware/Build/px4io-v2_default.build/nuttx-export/libs\libnuttx.a(arch-stm32_start.o)
 .debug_abbrev  0x0000523e      0x26a c:/px4/workspace/PX4Firmware/Build/px4io-v2_default.build/nuttx-export/libs\libnuttx.a(arch-up_assert.o)
 .debug_abbrev  0x000054a8      0x104 c:/px4/workspace/PX4Firmware/Build/px4io-v2_default.build/nuttx-export/libs\libnuttx.a(arch-up_hardfault.o)
 .debug_abbrev  0x000055ac      0x101 c:/px4/workspace/PX4Firmware/Build/px4io-v2_default.build/nuttx-export/libs\libnuttx.a(arch-up_modifyreg32.o)
 .debug_abbrev  0x000056ad       0xb6 c:/px4/workspace/PX4Firmware/Build/px4io-v2_default.build/nuttx-export/libs\libnuttx.a(arch-up_svcall.o)
 .debug_abbrev  0x00005763       0x5d c:/px4/workspace/PX4Firmware/Build/px4io-v2_default.build/nuttx-export/libs\libnuttx.a(arch-up_systemreset.o)
 .debug_abbrev  0x000057c0       0x75 c:/px4/workspace/PX4Firmware/Build/px4io-v2_default.build/nuttx-export/libs\libnuttx.a(arch-up_udelay.o)
 .debug_abbrev  0x00005835       0x53 c:/px4/workspace/PX4Firmware/Build/px4io-v2_default.build/nuttx-export/libs\libnuttx.a(arch-up_vectors.o)
 .debug_abbrev  0x00005888      0x11e c:/px4/workspace/PX4Firmware/Build/px4io-v2_default.build/nuttx-export/libs\libnuttx.a(cxx-libxx_cxa_atexit.o)
 .debug_abbrev  0x000059a6       0x3f c:/px4/workspace/PX4Firmware/Build/px4io-v2_default.build/nuttx-export/libs\libnuttx.a(cxx-libxx_cxapurevirtual.o)
 .debug_abbrev  0x000059e5       0xe7 c:/px4/workspace/PX4Firmware/Build/px4io-v2_default.build/nuttx-export/libs\libnuttx.a(cxx-libxx_delete.o)
 .debug_abbrev  0x00005acc       0xed c:/px4/workspace/PX4Firmware/Build/px4io-v2_default.build/nuttx-export/libs\libnuttx.a(cxx-libxx_eabi_atexit.o)
 .debug_abbrev  0x00005bb9       0xfd c:/px4/workspace/PX4Firmware/Build/px4io-v2_default.build/nuttx-export/libs\libnuttx.a(cxx-libxx_new.o)
 .debug_abbrev  0x00005cb6      0x11e c:/px4/workspace/PX4Firmware/Build/px4io-v2_default.build/nuttx-export/libs\libnuttx.a(fs-fs_ioctl.o)
 .debug_abbrev  0x00005dd4      0x15a c:/px4/workspace/PX4Firmware/Build/px4io-v2_default.build/nuttx-export/libs\libnuttx.a(fs-fs_open.o)
 .debug_abbrev  0x00005f2e      0x174 c:/px4/workspace/PX4Firmware/Build/px4io-v2_default.build/nuttx-export/libs\libnuttx.a(fs-fs_read.o)
 .debug_abbrev  0x000060a2      0x18e c:/px4/workspace/PX4Firmware/Build/px4io-v2_default.build/nuttx-export/libs\libnuttx.a(fs-fs_write.o)
 .debug_abbrev  0x00006230      0x2f0 c:/px4/workspace/PX4Firmware/Build/px4io-v2_default.build/nuttx-export/libs\libnuttx.a(drivers-serial.o)
 .debug_abbrev  0x00006520      0x14c c:/px4/workspace/PX4Firmware/Build/px4io-v2_default.build/nuttx-export/libs\libnuttx.a(drivers-serialirq.o)
 .debug_abbrev  0x0000666c      0x16d c:/px4/workspace/PX4Firmware/Build/px4io-v2_default.build/nuttx-export/libs\libnuttx.a(sched-errno_getptr.o)
 .debug_abbrev  0x000067d9      0x14c c:/px4/workspace/PX4Firmware/Build/px4io-v2_default.build/nuttx-export/libs\libnuttx.a(sched-exit.o)
 .debug_abbrev  0x00006925      0x12e c:/px4/workspace/PX4Firmware/Build/px4io-v2_default.build/nuttx-export/libs\libnuttx.a(sched-getpid.o)
 .debug_abbrev  0x00006a53      0x19b c:/px4/workspace/PX4Firmware/Build/px4io-v2_default.build/nuttx-export/libs\libnuttx.a(sched-os_start.o)
 .debug_abbrev  0x00006bee      0x134 c:/px4/workspace/PX4Firmware/Build/px4io-v2_default.build/nuttx-export/libs\libnuttx.a(sched-sched_garbage.o)
 .debug_abbrev  0x00006d22      0x13f c:/px4/workspace/PX4Firmware/Build/px4io-v2_default.build/nuttx-export/libs\libnuttx.a(sched-sched_getfiles.o)
 .debug_abbrev  0x00006e61      0x1e3 c:/px4/workspace/PX4Firmware/Build/px4io-v2_default.build/nuttx-export/libs\libnuttx.a(sched-sem_post.o)
 .debug_abbrev  0x00007044      0x1e3 c:/px4/workspace/PX4Firmware/Build/px4io-v2_default.build/nuttx-export/libs\libnuttx.a(sched-sem_trywait.o)
 .debug_abbrev  0x00007227      0x1fb c:/px4/workspace/PX4Firmware/Build/px4io-v2_default.build/nuttx-export/libs\libnuttx.a(sched-sem_wait.o)
 .debug_abbrev  0x00007422      0x132 c:/px4/workspace/PX4Firmware/Build/px4io-v2_default.build/nuttx-export/libs\libnuttx.a(sched-task_exithook.o)
 .debug_abbrev  0x00007554      0x1a9 c:/px4/workspace/PX4Firmware/Build/px4io-v2_default.build/nuttx-export/libs\libnuttx.a(sched-task_recover.o)
 .debug_abbrev  0x000076fd      0x173 c:/px4/workspace/PX4Firmware/Build/px4io-v2_default.build/nuttx-export/libs\libnuttx.a(sched-wd_cancel.o)
 .debug_abbrev  0x00007870      0x155 c:/px4/workspace/PX4Firmware/Build/px4io-v2_default.build/nuttx-export/libs\libnuttx.a(sched-wd_delete.o)
 .debug_abbrev  0x000079c5      0x10c c:/px4/workspace/PX4Firmware/Build/px4io-v2_default.build/nuttx-export/libs\libnuttx.a(sched-wd_initialize.o)
 .debug_abbrev  0x00007ad1       0x86 c:/px4/workspace/PX4Firmware/Build/px4io-v2_default.build/nuttx-export/libs\libnuttx.a(c-dq_addfirst.o)
 .debug_abbrev  0x00007b57       0xa1 c:/px4/workspace/PX4Firmware/Build/px4io-v2_default.build/nuttx-export/libs\libnuttx.a(c-lib_cfgetspeed.o)
 .debug_abbrev  0x00007bf8       0x73 c:/px4/workspace/PX4Firmware/Build/px4io-v2_default.build/nuttx-export/libs\libnuttx.a(c-lib_checkbase.o)
 .debug_abbrev  0x00007c6b       0x97 c:/px4/workspace/PX4Firmware/Build/px4io-v2_default.build/nuttx-export/libs\libnuttx.a(c-lib_isbasedigit.o)
 .debug_abbrev  0x00007d02      0x245 c:/px4/workspace/PX4Firmware/Build/px4io-v2_default.build/nuttx-export/libs\libnuttx.a(c-lib_libvsprintf.o)
 .debug_abbrev  0x00007f47       0xd6 c:/px4/workspace/PX4Firmware/Build/px4io-v2_default.build/nuttx-export/libs\libnuttx.a(c-lib_lowoutstream.o)
 .debug_abbrev  0x0000801d      0x133 c:/px4/workspace/PX4Firmware/Build/px4io-v2_default.build/nuttx-export/libs\libnuttx.a(c-lib_memoutstream.o)
 .debug_abbrev  0x00008150       0xc7 c:/px4/workspace/PX4Firmware/Build/px4io-v2_default.build/nuttx-export/libs\libnuttx.a(c-lib_nulloutstream.o)
 .debug_abbrev  0x00008217      0x103 c:/px4/workspace/PX4Firmware/Build/px4io-v2_default.build/nuttx-export/libs\libnuttx.a(c-lib_rawoutstream.o)
 .debug_abbrev  0x0000831a       0x71 c:/px4/workspace/PX4Firmware/Build/px4io-v2_default.build/nuttx-export/libs\libnuttx.a(c-lib_skipspace.o)
 .debug_abbrev  0x0000838b       0x82 c:/px4/workspace/PX4Firmware/Build/px4io-v2_default.build/nuttx-export/libs\libnuttx.a(c-lib_strcpy.o)
 .debug_abbrev  0x0000840d       0x80 c:/px4/workspace/PX4Firmware/Build/px4io-v2_default.build/nuttx-export/libs\libnuttx.a(c-lib_strlen.o)
 .debug_abbrev  0x0000848d       0x97 c:/px4/workspace/PX4Firmware/Build/px4io-v2_default.build/nuttx-export/libs\libnuttx.a(c-sem_init.o)
 .debug_abbrev  0x00008524       0x97 c:/px4/workspace/PX4Firmware/Build/px4io-v2_default.build/nuttx-export/libs\libnuttx.a(c-sq_remfirst.o)
 .debug_abbrev  0x000085bb       0xb6 c:/px4/workspace/PX4Firmware/Build/px4io-v2_default.build/nuttx-export/libs\libnuttx.a(mm-mm_addfreechunk.o)
 .debug_abbrev  0x00008671       0xdf c:/px4/workspace/PX4Firmware/Build/px4io-v2_default.build/nuttx-export/libs\libnuttx.a(mm-mm_initialize.o)
 .debug_abbrev  0x00008750       0x87 c:/px4/workspace/PX4Firmware/Build/px4io-v2_default.build/nuttx-export/libs\libnuttx.a(arch-stm32_allocateheap.o)
 .debug_abbrev  0x000087d7       0x41 c:/px4/workspace/PX4Firmware/Build/px4io-v2_default.build/nuttx-export/libs\libnuttx.a(arch-stm32_idle.o)
 .debug_abbrev  0x00008818       0x92 c:/px4/workspace/PX4Firmware/Build/px4io-v2_default.build/nuttx-export/libs\libnuttx.a(arch-stm32_lowputc.o)
 .debug_abbrev  0x000088aa      0x100 c:/px4/workspace/PX4Firmware/Build/px4io-v2_default.build/nuttx-export/libs\libnuttx.a(arch-stm32_rcc.o)
 .debug_abbrev  0x000089aa      0x17a c:/px4/workspace/PX4Firmware/Build/px4io-v2_default.build/nuttx-export/libs\libnuttx.a(arch-up_blocktask.o)
 .debug_abbrev  0x00008b24       0x84 c:/px4/workspace/PX4Firmware/Build/px4io-v2_default.build/nuttx-export/libs\libnuttx.a(arch-up_copystate.o)
 .debug_abbrev  0x00008ba8       0x14 c:/px4/workspace/PX4Firmware/Build/px4io-v2_default.build/nuttx-export/libs\libnuttx.a(arch-up_exception.o)
 .debug_abbrev  0x00008bbc      0x18b c:/px4/workspace/PX4Firmware/Build/px4io-v2_default.build/nuttx-export/libs\libnuttx.a(arch-up_exit.o)
 .debug_abbrev  0x00008d47       0x14 c:/px4/workspace/PX4Firmware/Build/px4io-v2_default.build/nuttx-export/libs\libnuttx.a(arch-up_fullcontextrestore.o)
 .debug_abbrev  0x00008d5b       0x6f c:/px4/workspace/PX4Firmware/Build/px4io-v2_default.build/nuttx-export/libs\libnuttx.a(arch-up_initialize.o)
 .debug_abbrev  0x00008dca      0x134 c:/px4/workspace/PX4Firmware/Build/px4io-v2_default.build/nuttx-export/libs\libnuttx.a(arch-up_initialstate.o)
 .debug_abbrev  0x00008efe       0x71 c:/px4/workspace/PX4Firmware/Build/px4io-v2_default.build/nuttx-export/libs\libnuttx.a(arch-up_interruptcontext.o)
 .debug_abbrev  0x00008f6f       0x68 c:/px4/workspace/PX4Firmware/Build/px4io-v2_default.build/nuttx-export/libs\libnuttx.a(arch-up_mdelay.o)
 .debug_abbrev  0x00008fd7       0x14 c:/px4/workspace/PX4Firmware/Build/px4io-v2_default.build/nuttx-export/libs\libnuttx.a(arch-up_switchcontext.o)
 .debug_abbrev  0x00008feb      0x16b c:/px4/workspace/PX4Firmware/Build/px4io-v2_default.build/nuttx-export/libs\libnuttx.a(arch-up_unblocktask.o)
 .debug_abbrev  0x00009156      0x21e c:/px4/workspace/PX4Firmware/Build/px4io-v2_default.build/nuttx-export/libs\libnuttx.a(fs-fs_files.o)
 .debug_abbrev  0x00009374       0xef c:/px4/workspace/PX4Firmware/Build/px4io-v2_default.build/nuttx-export/libs\libnuttx.a(fs-fs_inodeaddref.o)
 .debug_abbrev  0x00009463      0x102 c:/px4/workspace/PX4Firmware/Build/px4io-v2_default.build/nuttx-export/libs\libnuttx.a(fs-fs_inodefind.o)
 .debug_abbrev  0x00009565       0xef c:/px4/workspace/PX4Firmware/Build/px4io-v2_default.build/nuttx-export/libs\libnuttx.a(fs-fs_inoderelease.o)
 .debug_abbrev  0x00009654      0x10f c:/px4/workspace/PX4Firmware/Build/px4io-v2_default.build/nuttx-export/libs\libnuttx.a(fs-fs_registerdriver.o)
 .debug_abbrev  0x00009763      0x17a c:/px4/workspace/PX4Firmware/Build/px4io-v2_default.build/nuttx-export/libs\libnuttx.a(sched-group_create.o)
 .debug_abbrev  0x000098dd      0x168 c:/px4/workspace/PX4Firmware/Build/px4io-v2_default.build/nuttx-export/libs\libnuttx.a(sched-group_leave.o)
 .debug_abbrev  0x00009a45      0x145 c:/px4/workspace/PX4Firmware/Build/px4io-v2_default.build/nuttx-export/libs\libnuttx.a(sched-group_setupidlefiles.o)
 .debug_abbrev  0x00009b8a       0x7a c:/px4/workspace/PX4Firmware/Build/px4io-v2_default.build/nuttx-export/libs\libnuttx.a(sched-os_bringup.o)
 .debug_abbrev  0x00009c04      0x155 c:/px4/workspace/PX4Firmware/Build/px4io-v2_default.build/nuttx-export/libs\libnuttx.a(sched-sched_addblocked.o)
 .debug_abbrev  0x00009d59      0x154 c:/px4/workspace/PX4Firmware/Build/px4io-v2_default.build/nuttx-export/libs\libnuttx.a(sched-sched_addprioritized.o)
 .debug_abbrev  0x00009ead      0x175 c:/px4/workspace/PX4Firmware/Build/px4io-v2_default.build/nuttx-export/libs\libnuttx.a(sched-sched_addreadytorun.o)
 .debug_abbrev  0x0000a022      0x12b c:/px4/workspace/PX4Firmware/Build/px4io-v2_default.build/nuttx-export/libs\libnuttx.a(sched-sched_free.o)
 .debug_abbrev  0x0000a14d      0x166 c:/px4/workspace/PX4Firmware/Build/px4io-v2_default.build/nuttx-export/libs\libnuttx.a(sched-sched_mergepending.o)
 .debug_abbrev  0x0000a2b3      0x164 c:/px4/workspace/PX4Firmware/Build/px4io-v2_default.build/nuttx-export/libs\libnuttx.a(sched-sched_removeblocked.o)
 .debug_abbrev  0x0000a417      0x166 c:/px4/workspace/PX4Firmware/Build/px4io-v2_default.build/nuttx-export/libs\libnuttx.a(sched-sched_removereadytorun.o)
 .debug_abbrev  0x0000a57d       0x86 c:/px4/workspace/PX4Firmware/Build/px4io-v2_default.build/nuttx-export/libs\libnuttx.a(sched-sem_destroy.o)
 .debug_abbrev  0x0000a603      0x1c7 c:/px4/workspace/PX4Firmware/Build/px4io-v2_default.build/nuttx-export/libs\libnuttx.a(sched-task_create.o)
 .debug_abbrev  0x0000a7ca      0x157 c:/px4/workspace/PX4Firmware/Build/px4io-v2_default.build/nuttx-export/libs\libnuttx.a(sched-task_exit.o)
 .debug_abbrev  0x0000a921      0x26c c:/px4/workspace/PX4Firmware/Build/px4io-v2_default.build/nuttx-export/libs\libnuttx.a(sched-task_setup.o)
 .debug_abbrev  0x0000ab8d      0x14c c:/px4/workspace/PX4Firmware/Build/px4io-v2_default.build/nuttx-export/libs\libnuttx.a(sched-task_start.o)
 .debug_abbrev  0x0000acd9      0x20a c:/px4/workspace/PX4Firmware/Build/px4io-v2_default.build/nuttx-export/libs\libnuttx.a(sched-task_terminate.o)
 .debug_abbrev  0x0000aee3       0x86 c:/px4/workspace/PX4Firmware/Build/px4io-v2_default.build/nuttx-export/libs\libnuttx.a(c-dq_addlast.o)
 .debug_abbrev  0x0000af69       0x95 c:/px4/workspace/PX4Firmware/Build/px4io-v2_default.build/nuttx-export/libs\libnuttx.a(c-dq_rem.o)
 .debug_abbrev  0x0000affe       0x71 c:/px4/workspace/PX4Firmware/Build/px4io-v2_default.build/nuttx-export/libs\libnuttx.a(c-lib_strdup.o)
 .debug_abbrev  0x0000b06f       0xb6 c:/px4/workspace/PX4Firmware/Build/px4io-v2_default.build/nuttx-export/libs\libnuttx.a(arch-stm32_timerisr.o)
 .debug_abbrev  0x0000b125      0x14c c:/px4/workspace/PX4Firmware/Build/px4io-v2_default.build/nuttx-export/libs\libnuttx.a(arch-up_createstack.o)
 .debug_abbrev  0x0000b271       0xa0 c:/px4/workspace/PX4Firmware/Build/px4io-v2_default.build/nuttx-export/libs\libnuttx.a(arch-up_doirq.o)
 .debug_abbrev  0x0000b311      0x123 c:/px4/workspace/PX4Firmware/Build/px4io-v2_default.build/nuttx-export/libs\libnuttx.a(arch-up_releasestack.o)
 .debug_abbrev  0x0000b434       0x6e c:/px4/workspace/PX4Firmware/Build/px4io-v2_default.build/nuttx-export/libs\libnuttx.a(fs-fs_close.o)
 .debug_abbrev  0x0000b4a2      0x102 c:/px4/workspace/PX4Firmware/Build/px4io-v2_default.build/nuttx-export/libs\libnuttx.a(fs-fs_filedup2.o)
 .debug_abbrev  0x0000b5a4      0x206 c:/px4/workspace/PX4Firmware/Build/px4io-v2_default.build/nuttx-export/libs\libnuttx.a(fs-fs_inode.o)
 .debug_abbrev  0x0000b7aa      0x1fa c:/px4/workspace/PX4Firmware/Build/px4io-v2_default.build/nuttx-export/libs\libnuttx.a(fs-fs_inodereserve.o)
 .debug_abbrev  0x0000b9a4      0x136 c:/px4/workspace/PX4Firmware/Build/px4io-v2_default.build/nuttx-export/libs\libnuttx.a(sched-group_setuptaskfiles.o)
 .debug_abbrev  0x0000bada       0xc2 c:/px4/workspace/PX4Firmware/Build/px4io-v2_default.build/nuttx-export/libs\libnuttx.a(sched-irq_dispatch.o)
 .debug_abbrev  0x0000bb9c      0x156 c:/px4/workspace/PX4Firmware/Build/px4io-v2_default.build/nuttx-export/libs\libnuttx.a(sched-sched_gettcb.o)
 .debug_abbrev  0x0000bcf2      0x13f c:/px4/workspace/PX4Firmware/Build/px4io-v2_default.build/nuttx-export/libs\libnuttx.a(sched-sched_lock.o)
 .debug_abbrev  0x0000be31       0x50 c:/px4/workspace/PX4Firmware/Build/px4io-v2_default.build/nuttx-export/libs\libnuttx.a(sched-sched_processtimer.o)
 .debug_abbrev  0x0000be81      0x1bc c:/px4/workspace/PX4Firmware/Build/px4io-v2_default.build/nuttx-export/libs\libnuttx.a(sched-sched_releasetcb.o)
 .debug_abbrev  0x0000c03d      0x1c5 c:/px4/workspace/PX4Firmware/Build/px4io-v2_default.build/nuttx-export/libs\libnuttx.a(sched-sched_unlock.o)
 .debug_abbrev  0x0000c202      0x1ab c:/px4/workspace/PX4Firmware/Build/px4io-v2_default.build/nuttx-export/libs\libnuttx.a(sched-task_activate.o)
 .debug_abbrev  0x0000c3ad      0x144 c:/px4/workspace/PX4Firmware/Build/px4io-v2_default.build/nuttx-export/libs\libnuttx.a(arch-up_releasepending.o)

.debug_info     0x00000000    0x376f7
 *(.debug_info)
 .debug_info    0x00000000      0x256 c:/px4/workspace/PX4Firmware/Build/px4io-v2_default.build/c/px4/workspace/PX4Firmware/src/drivers/boards/px4io-v2/module.pre.o
 .debug_info    0x00000256     0x18b9 c:/px4/workspace/PX4Firmware/Build/px4io-v2_default.build/c/px4/workspace/PX4Firmware/src/drivers/stm32/module.pre.o
 .debug_info    0x00001b0f     0x71da c:/px4/workspace/PX4Firmware/Build/px4io-v2_default.build/c/px4/workspace/PX4Firmware/src/modules/px4iofirmware/module.pre.o
 .debug_info    0x00008ce9      0x1bb c:/px4/workspace/PX4Firmware/Build/px4io-v2_default.build/nuttx-export/libs\libnuttx.a(sched-irq_attach.o)
 .debug_info    0x00008ea4      0x102 c:/px4/workspace/PX4Firmware/Build/px4io-v2_default.build/nuttx-export/libs\libnuttx.a(sched-irq_initialize.o)
 .debug_info    0x00008fa6      0x11d c:/px4/workspace/PX4Firmware/Build/px4io-v2_default.build/nuttx-export/libs\libnuttx.a(sched-irq_unexpectedisr.o)
 .debug_info    0x000090c3       0x93 c:/px4/workspace/PX4Firmware/Build/px4io-v2_default.build/nuttx-export/libs\libnuttx.a(c-lib_abort.o)
 .debug_info    0x00009156      0x175 c:/px4/workspace/PX4Firmware/Build/px4io-v2_default.build/nuttx-export/libs\libnuttx.a(c-lib_cfsetspeed.o)
 .debug_info    0x000092cb      0x16e c:/px4/workspace/PX4Firmware/Build/px4io-v2_default.build/nuttx-export/libs\libnuttx.a(c-lib_crc32.o)
 .debug_info    0x00009439      0x19f c:/px4/workspace/PX4Firmware/Build/px4io-v2_default.build/nuttx-export/libs\libnuttx.a(c-lib_lowsyslog.o)
 .debug_info    0x000095d8       0xfe c:/px4/workspace/PX4Firmware/Build/px4io-v2_default.build/nuttx-export/libs\libnuttx.a(c-lib_memchr.o)
 .debug_info    0x000096d6      0x10a c:/px4/workspace/PX4Firmware/Build/px4io-v2_default.build/nuttx-export/libs\libnuttx.a(c-lib_memcpy.o)
 .debug_info    0x000097e0       0xed c:/px4/workspace/PX4Firmware/Build/px4io-v2_default.build/nuttx-export/libs\libnuttx.a(c-lib_memset.o)
 .debug_info    0x000098cd      0x114 c:/px4/workspace/PX4Firmware/Build/px4io-v2_default.build/nuttx-export/libs\libnuttx.a(c-lib_printf.o)
 .debug_info    0x000099e1      0x40a c:/px4/workspace/PX4Firmware/Build/px4io-v2_default.build/nuttx-export/libs\libnuttx.a(c-lib_sscanf.o)
 .debug_info    0x00009deb       0xbd c:/px4/workspace/PX4Firmware/Build/px4io-v2_default.build/nuttx-export/libs\libnuttx.a(c-lib_strchr.o)
 .debug_info    0x00009ea8       0xc6 c:/px4/workspace/PX4Firmware/Build/px4io-v2_default.build/nuttx-export/libs\libnuttx.a(c-lib_strcmp.o)
 .debug_info    0x00009f6e       0xea c:/px4/workspace/PX4Firmware/Build/px4io-v2_default.build/nuttx-export/libs\libnuttx.a(c-lib_strcspn.o)
 .debug_info    0x0000a058      0x10c c:/px4/workspace/PX4Firmware/Build/px4io-v2_default.build/nuttx-export/libs\libnuttx.a(c-lib_strncpy.o)
 .debug_info    0x0000a164      0x122 c:/px4/workspace/PX4Firmware/Build/px4io-v2_default.build/nuttx-export/libs\libnuttx.a(c-lib_strtol.o)
 .debug_info    0x0000a286      0x100 c:/px4/workspace/PX4Firmware/Build/px4io-v2_default.build/nuttx-export/libs\libnuttx.a(c-lib_strtoul.o)
 .debug_info    0x0000a386      0x1c7 c:/px4/workspace/PX4Firmware/Build/px4io-v2_default.build/nuttx-export/libs\libnuttx.a(c-lib_syslog.o)
 .debug_info    0x0000a54d      0x176 c:/px4/workspace/PX4Firmware/Build/px4io-v2_default.build/nuttx-export/libs\libnuttx.a(c-lib_tcgetattr.o)
 .debug_info    0x0000a6c3      0x18a c:/px4/workspace/PX4Firmware/Build/px4io-v2_default.build/nuttx-export/libs\libnuttx.a(c-lib_tcsetattr.o)
 .debug_info    0x0000a84d      0x1df c:/px4/workspace/PX4Firmware/Build/px4io-v2_default.build/nuttx-export/libs\libnuttx.a(c-lib_vsnprintf.o)
 .debug_info    0x0000aa2c      0x129 c:/px4/workspace/PX4Firmware/Build/px4io-v2_default.build/nuttx-export/libs\libnuttx.a(c-sq_addafter.o)
 .debug_info    0x0000ab55      0x116 c:/px4/workspace/PX4Firmware/Build/px4io-v2_default.build/nuttx-export/libs\libnuttx.a(c-sq_addfirst.o)
 .debug_info    0x0000ac6b      0x116 c:/px4/workspace/PX4Firmware/Build/px4io-v2_default.build/nuttx-export/libs\libnuttx.a(c-sq_addlast.o)
 .debug_info    0x0000ad81      0x12f c:/px4/workspace/PX4Firmware/Build/px4io-v2_default.build/nuttx-export/libs\libnuttx.a(c-sq_rem.o)
 .debug_info    0x0000aeb0      0x12c c:/px4/workspace/PX4Firmware/Build/px4io-v2_default.build/nuttx-export/libs\libnuttx.a(c-sq_remafter.o)
 .debug_info    0x0000afdc       0xe2 c:/px4/workspace/PX4Firmware/Build/px4io-v2_default.build/nuttx-export/libs\libnuttx.a(mm-mm_calloc.o)
 .debug_info    0x0000b0be      0x2f8 c:/px4/workspace/PX4Firmware/Build/px4io-v2_default.build/nuttx-export/libs\libnuttx.a(mm-mm_free.o)
 .debug_info    0x0000b3b6      0x36c c:/px4/workspace/PX4Firmware/Build/px4io-v2_default.build/nuttx-export/libs\libnuttx.a(mm-mm_mallinfo.o)
 .debug_info    0x0000b722      0x324 c:/px4/workspace/PX4Firmware/Build/px4io-v2_default.build/nuttx-export/libs\libnuttx.a(mm-mm_malloc.o)
 .debug_info    0x0000ba46      0x2ea c:/px4/workspace/PX4Firmware/Build/px4io-v2_default.build/nuttx-export/libs\libnuttx.a(mm-mm_sem.o)
 .debug_info    0x0000bd30       0xd0 c:/px4/workspace/PX4Firmware/Build/px4io-v2_default.build/nuttx-export/libs\libnuttx.a(mm-mm_size2ndx.o)
 .debug_info    0x0000be00      0x2c6 c:/px4/workspace/PX4Firmware/Build/px4io-v2_default.build/nuttx-export/libs\libnuttx.a(mm-mm_user.o)
 .debug_info    0x0000c0c6       0xd6 c:/px4/workspace/PX4Firmware/Build/px4io-v2_default.build/nuttx-export/libs\libnuttx.a(mm-mm_zalloc.o)
 .debug_info    0x0000c19c      0x82b c:/px4/workspace/PX4Firmware/Build/px4io-v2_default.build/nuttx-export/libs\libnuttx.a(arch-stm32_dma.o)
 .debug_info    0x0000c9c7      0x3dd c:/px4/workspace/PX4Firmware/Build/px4io-v2_default.build/nuttx-export/libs\libnuttx.a(arch-stm32_gpio.o)
 .debug_info    0x0000cda4      0x32e c:/px4/workspace/PX4Firmware/Build/px4io-v2_default.build/nuttx-export/libs\libnuttx.a(arch-stm32_irq.o)
 .debug_info    0x0000d0d2     0x1d73 c:/px4/workspace/PX4Firmware/Build/px4io-v2_default.build/nuttx-export/libs\libnuttx.a(arch-stm32_serial.o)
 .debug_info    0x0000ee45      0x15b c:/px4/workspace/PX4Firmware/Build/px4io-v2_default.build/nuttx-export/libs\libnuttx.a(arch-stm32_start.o)
 .debug_info    0x0000efa0      0xd6c c:/px4/workspace/PX4Firmware/Build/px4io-v2_default.build/nuttx-export/libs\libnuttx.a(arch-up_assert.o)
 .debug_info    0x0000fd0c      0x1da c:/px4/workspace/PX4Firmware/Build/px4io-v2_default.build/nuttx-export/libs\libnuttx.a(arch-up_hardfault.o)
 .debug_info    0x0000fee6      0x174 c:/px4/workspace/PX4Firmware/Build/px4io-v2_default.build/nuttx-export/libs\libnuttx.a(arch-up_modifyreg32.o)
 .debug_info    0x0001005a      0x122 c:/px4/workspace/PX4Firmware/Build/px4io-v2_default.build/nuttx-export/libs\libnuttx.a(arch-up_svcall.o)
 .debug_info    0x0001017c       0x9c c:/px4/workspace/PX4Firmware/Build/px4io-v2_default.build/nuttx-export/libs\libnuttx.a(arch-up_systemreset.o)
 .debug_info    0x00010218       0xe0 c:/px4/workspace/PX4Firmware/Build/px4io-v2_default.build/nuttx-export/libs\libnuttx.a(arch-up_udelay.o)
 .debug_info    0x000102f8       0x70 c:/px4/workspace/PX4Firmware/Build/px4io-v2_default.build/nuttx-export/libs\libnuttx.a(arch-up_vectors.o)
 .debug_info    0x00010368      0x328 c:/px4/workspace/PX4Firmware/Build/px4io-v2_default.build/nuttx-export/libs\libnuttx.a(cxx-libxx_cxa_atexit.o)
 .debug_info    0x00010690       0x76 c:/px4/workspace/PX4Firmware/Build/px4io-v2_default.build/nuttx-export/libs\libnuttx.a(cxx-libxx_cxapurevirtual.o)
 .debug_info    0x00010706      0x2dc c:/px4/workspace/PX4Firmware/Build/px4io-v2_default.build/nuttx-export/libs\libnuttx.a(cxx-libxx_delete.o)
 .debug_info    0x000109e2      0x316 c:/px4/workspace/PX4Firmware/Build/px4io-v2_default.build/nuttx-export/libs\libnuttx.a(cxx-libxx_eabi_atexit.o)
 .debug_info    0x00010cf8      0x44f c:/px4/workspace/PX4Firmware/Build/px4io-v2_default.build/nuttx-export/libs\libnuttx.a(cxx-libxx_new.o)
 .debug_info    0x00011147      0x86f c:/px4/workspace/PX4Firmware/Build/px4io-v2_default.build/nuttx-export/libs\libnuttx.a(fs-fs_ioctl.o)
 .debug_info    0x000119b6      0x8b1 c:/px4/workspace/PX4Firmware/Build/px4io-v2_default.build/nuttx-export/libs\libnuttx.a(fs-fs_open.o)
 .debug_info    0x00012267      0x8d0 c:/px4/workspace/PX4Firmware/Build/px4io-v2_default.build/nuttx-export/libs\libnuttx.a(fs-fs_read.o)
 .debug_info    0x00012b37      0x8ec c:/px4/workspace/PX4Firmware/Build/px4io-v2_default.build/nuttx-export/libs\libnuttx.a(fs-fs_write.o)
 .debug_info    0x00013423     0x125b c:/px4/workspace/PX4Firmware/Build/px4io-v2_default.build/nuttx-export/libs\libnuttx.a(drivers-serial.o)
 .debug_info    0x0001467e      0xac9 c:/px4/workspace/PX4Firmware/Build/px4io-v2_default.build/nuttx-export/libs\libnuttx.a(drivers-serialirq.o)
 .debug_info    0x00015147      0xb33 c:/px4/workspace/PX4Firmware/Build/px4io-v2_default.build/nuttx-export/libs\libnuttx.a(sched-errno_getptr.o)
 .debug_info    0x00015c7a      0xae9 c:/px4/workspace/PX4Firmware/Build/px4io-v2_default.build/nuttx-export/libs\libnuttx.a(sched-exit.o)
 .debug_info    0x00016763      0xac9 c:/px4/workspace/PX4Firmware/Build/px4io-v2_default.build/nuttx-export/libs\libnuttx.a(sched-getpid.o)
 .debug_info    0x0001722c      0xe1d c:/px4/workspace/PX4Firmware/Build/px4io-v2_default.build/nuttx-export/libs\libnuttx.a(sched-os_start.o)
 .debug_info    0x00018049      0x1f6 c:/px4/workspace/PX4Firmware/Build/px4io-v2_default.build/nuttx-export/libs\libnuttx.a(sched-sched_garbage.o)
 .debug_info    0x0001823f      0xaf0 c:/px4/workspace/PX4Firmware/Build/px4io-v2_default.build/nuttx-export/libs\libnuttx.a(sched-sched_getfiles.o)
 .debug_info    0x00018d2f      0xb8b c:/px4/workspace/PX4Firmware/Build/px4io-v2_default.build/nuttx-export/libs\libnuttx.a(sched-sem_post.o)
 .debug_info    0x000198ba      0xb89 c:/px4/workspace/PX4Firmware/Build/px4io-v2_default.build/nuttx-export/libs\libnuttx.a(sched-sem_trywait.o)
 .debug_info    0x0001a443      0xbc0 c:/px4/workspace/PX4Firmware/Build/px4io-v2_default.build/nuttx-export/libs\libnuttx.a(sched-sem_wait.o)
 .debug_info    0x0001b003      0xa65 c:/px4/workspace/PX4Firmware/Build/px4io-v2_default.build/nuttx-export/libs\libnuttx.a(sched-task_exithook.o)
 .debug_info    0x0001ba68      0xace c:/px4/workspace/PX4Firmware/Build/px4io-v2_default.build/nuttx-export/libs\libnuttx.a(sched-task_recover.o)
 .debug_info    0x0001c536      0x2d9 c:/px4/workspace/PX4Firmware/Build/px4io-v2_default.build/nuttx-export/libs\libnuttx.a(sched-wd_cancel.o)
 .debug_info    0x0001c80f      0x299 c:/px4/workspace/PX4Firmware/Build/px4io-v2_default.build/nuttx-export/libs\libnuttx.a(sched-wd_delete.o)
 .debug_info    0x0001caa8      0x29d c:/px4/workspace/PX4Firmware/Build/px4io-v2_default.build/nuttx-export/libs\libnuttx.a(sched-wd_initialize.o)
 .debug_info    0x0001cd45      0x124 c:/px4/workspace/PX4Firmware/Build/px4io-v2_default.build/nuttx-export/libs\libnuttx.a(c-dq_addfirst.o)
 .debug_info    0x0001ce69      0x16d c:/px4/workspace/PX4Firmware/Build/px4io-v2_default.build/nuttx-export/libs\libnuttx.a(c-lib_cfgetspeed.o)
 .debug_info    0x0001cfd6       0xe1 c:/px4/workspace/PX4Firmware/Build/px4io-v2_default.build/nuttx-export/libs\libnuttx.a(c-lib_checkbase.o)
 .debug_info    0x0001d0b7      0x111 c:/px4/workspace/PX4Firmware/Build/px4io-v2_default.build/nuttx-export/libs\libnuttx.a(c-lib_isbasedigit.o)
 .debug_info    0x0001d1c8      0xad3 c:/px4/workspace/PX4Firmware/Build/px4io-v2_default.build/nuttx-export/libs\libnuttx.a(c-lib_libvsprintf.o)
 .debug_info    0x0001dc9b      0x12e c:/px4/workspace/PX4Firmware/Build/px4io-v2_default.build/nuttx-export/libs\libnuttx.a(c-lib_lowoutstream.o)
 .debug_info    0x0001ddc9      0x1e2 c:/px4/workspace/PX4Firmware/Build/px4io-v2_default.build/nuttx-export/libs\libnuttx.a(c-lib_memoutstream.o)
 .debug_info    0x0001dfab      0x12a c:/px4/workspace/PX4Firmware/Build/px4io-v2_default.build/nuttx-export/libs\libnuttx.a(c-lib_nulloutstream.o)
 .debug_info    0x0001e0d5      0x194 c:/px4/workspace/PX4Firmware/Build/px4io-v2_default.build/nuttx-export/libs\libnuttx.a(c-lib_rawoutstream.o)
 .debug_info    0x0001e269       0xcb c:/px4/workspace/PX4Firmware/Build/px4io-v2_default.build/nuttx-export/libs\libnuttx.a(c-lib_skipspace.o)
 .debug_info    0x0001e334       0xd0 c:/px4/workspace/PX4Firmware/Build/px4io-v2_default.build/nuttx-export/libs\libnuttx.a(c-lib_strcpy.o)
 .debug_info    0x0001e404       0xdb c:/px4/workspace/PX4Firmware/Build/px4io-v2_default.build/nuttx-export/libs\libnuttx.a(c-lib_strlen.o)
 .debug_info    0x0001e4df      0x104 c:/px4/workspace/PX4Firmware/Build/px4io-v2_default.build/nuttx-export/libs\libnuttx.a(c-sem_init.o)
 .debug_info    0x0001e5e3      0x11e c:/px4/workspace/PX4Firmware/Build/px4io-v2_default.build/nuttx-export/libs\libnuttx.a(c-sq_remfirst.o)
 .debug_info    0x0001e701      0x275 c:/px4/workspace/PX4Firmware/Build/px4io-v2_default.build/nuttx-export/libs\libnuttx.a(mm-mm_addfreechunk.o)
 .debug_info    0x0001e976      0x2ec c:/px4/workspace/PX4Firmware/Build/px4io-v2_default.build/nuttx-export/libs\libnuttx.a(mm-mm_initialize.o)
 .debug_info    0x0001ec62      0x109 c:/px4/workspace/PX4Firmware/Build/px4io-v2_default.build/nuttx-export/libs\libnuttx.a(arch-stm32_allocateheap.o)
 .debug_info    0x0001ed6b       0x99 c:/px4/workspace/PX4Firmware/Build/px4io-v2_default.build/nuttx-export/libs\libnuttx.a(arch-stm32_idle.o)
 .debug_info    0x0001ee04       0xf0 c:/px4/workspace/PX4Firmware/Build/px4io-v2_default.build/nuttx-export/libs\libnuttx.a(arch-stm32_lowputc.o)
 .debug_info    0x0001eef4      0x247 c:/px4/workspace/PX4Firmware/Build/px4io-v2_default.build/nuttx-export/libs\libnuttx.a(arch-stm32_rcc.o)
 .debug_info    0x0001f13b      0xb9e c:/px4/workspace/PX4Firmware/Build/px4io-v2_default.build/nuttx-export/libs\libnuttx.a(arch-up_blocktask.o)
 .debug_info    0x0001fcd9       0xe1 c:/px4/workspace/PX4Firmware/Build/px4io-v2_default.build/nuttx-export/libs\libnuttx.a(arch-up_copystate.o)
 .debug_info    0x0001fdba       0x6c c:/px4/workspace/PX4Firmware/Build/px4io-v2_default.build/nuttx-export/libs\libnuttx.a(arch-up_exception.o)
 .debug_info    0x0001fe26      0xb31 c:/px4/workspace/PX4Firmware/Build/px4io-v2_default.build/nuttx-export/libs\libnuttx.a(arch-up_exit.o)
 .debug_info    0x00020957       0x75 c:/px4/workspace/PX4Firmware/Build/px4io-v2_default.build/nuttx-export/libs\libnuttx.a(arch-up_fullcontextrestore.o)
 .debug_info    0x000209cc       0xd5 c:/px4/workspace/PX4Firmware/Build/px4io-v2_default.build/nuttx-export/libs\libnuttx.a(arch-up_initialize.o)
 .debug_info    0x00020aa1      0xa5c c:/px4/workspace/PX4Firmware/Build/px4io-v2_default.build/nuttx-export/libs\libnuttx.a(arch-up_initialstate.o)
 .debug_info    0x000214fd       0xfa c:/px4/workspace/PX4Firmware/Build/px4io-v2_default.build/nuttx-export/libs\libnuttx.a(arch-up_interruptcontext.o)
 .debug_info    0x000215f7       0xcc c:/px4/workspace/PX4Firmware/Build/px4io-v2_default.build/nuttx-export/libs\libnuttx.a(arch-up_mdelay.o)
 .debug_info    0x000216c3       0x70 c:/px4/workspace/PX4Firmware/Build/px4io-v2_default.build/nuttx-export/libs\libnuttx.a(arch-up_switchcontext.o)
 .debug_info    0x00021733      0xb5b c:/px4/workspace/PX4Firmware/Build/px4io-v2_default.build/nuttx-export/libs\libnuttx.a(arch-up_unblocktask.o)
 .debug_info    0x0002228e      0xa84 c:/px4/workspace/PX4Firmware/Build/px4io-v2_default.build/nuttx-export/libs\libnuttx.a(fs-fs_files.o)
 .debug_info    0x00022d12      0x788 c:/px4/workspace/PX4Firmware/Build/px4io-v2_default.build/nuttx-export/libs\libnuttx.a(fs-fs_inodeaddref.o)
 .debug_info    0x0002349a      0x7b4 c:/px4/workspace/PX4Firmware/Build/px4io-v2_default.build/nuttx-export/libs\libnuttx.a(fs-fs_inodefind.o)
 .debug_info    0x00023c4e      0x78f c:/px4/workspace/PX4Firmware/Build/px4io-v2_default.build/nuttx-export/libs\libnuttx.a(fs-fs_inoderelease.o)
 .debug_info    0x000243dd      0x7d7 c:/px4/workspace/PX4Firmware/Build/px4io-v2_default.build/nuttx-export/libs\libnuttx.a(fs-fs_registerdriver.o)
 .debug_info    0x00024bb4      0xaf6 c:/px4/workspace/PX4Firmware/Build/px4io-v2_default.build/nuttx-export/libs\libnuttx.a(sched-group_create.o)
 .debug_info    0x000256aa      0xa88 c:/px4/workspace/PX4Firmware/Build/px4io-v2_default.build/nuttx-export/libs\libnuttx.a(sched-group_leave.o)
 .debug_info    0x00026132      0xabb c:/px4/workspace/PX4Firmware/Build/px4io-v2_default.build/nuttx-export/libs\libnuttx.a(sched-group_setupidlefiles.o)
 .debug_info    0x00026bed       0xf6 c:/px4/workspace/PX4Firmware/Build/px4io-v2_default.build/nuttx-export/libs\libnuttx.a(sched-os_bringup.o)
 .debug_info    0x00026ce3      0xb7f c:/px4/workspace/PX4Firmware/Build/px4io-v2_default.build/nuttx-export/libs\libnuttx.a(sched-sched_addblocked.o)
 .debug_info    0x00027862      0xb10 c:/px4/workspace/PX4Firmware/Build/px4io-v2_default.build/nuttx-export/libs\libnuttx.a(sched-sched_addprioritized.o)
 .debug_info    0x00028372      0xb4b c:/px4/workspace/PX4Firmware/Build/px4io-v2_default.build/nuttx-export/libs\libnuttx.a(sched-sched_addreadytorun.o)
 .debug_info    0x00028ebd      0x1c4 c:/px4/workspace/PX4Firmware/Build/px4io-v2_default.build/nuttx-export/libs\libnuttx.a(sched-sched_free.o)
 .debug_info    0x00029081      0xb6b c:/px4/workspace/PX4Firmware/Build/px4io-v2_default.build/nuttx-export/libs\libnuttx.a(sched-sched_mergepending.o)
 .debug_info    0x00029bec      0xb7f c:/px4/workspace/PX4Firmware/Build/px4io-v2_default.build/nuttx-export/libs\libnuttx.a(sched-sched_removeblocked.o)
 .debug_info    0x0002a76b      0xb24 c:/px4/workspace/PX4Firmware/Build/px4io-v2_default.build/nuttx-export/libs\libnuttx.a(sched-sched_removereadytorun.o)
 .debug_info    0x0002b28f       0xf0 c:/px4/workspace/PX4Firmware/Build/px4io-v2_default.build/nuttx-export/libs\libnuttx.a(sched-sem_destroy.o)
 .debug_info    0x0002b37f      0xcac c:/px4/workspace/PX4Firmware/Build/px4io-v2_default.build/nuttx-export/libs\libnuttx.a(sched-task_create.o)
 .debug_info    0x0002c02b      0xb3a c:/px4/workspace/PX4Firmware/Build/px4io-v2_default.build/nuttx-export/libs\libnuttx.a(sched-task_exit.o)
 .debug_info    0x0002cb65      0xe94 c:/px4/workspace/PX4Firmware/Build/px4io-v2_default.build/nuttx-export/libs\libnuttx.a(sched-task_setup.o)
 .debug_info    0x0002d9f9      0xb4b c:/px4/workspace/PX4Firmware/Build/px4io-v2_default.build/nuttx-export/libs\libnuttx.a(sched-task_start.o)
 .debug_info    0x0002e544      0xc22 c:/px4/workspace/PX4Firmware/Build/px4io-v2_default.build/nuttx-export/libs\libnuttx.a(sched-task_terminate.o)
 .debug_info    0x0002f166      0x124 c:/px4/workspace/PX4Firmware/Build/px4io-v2_default.build/nuttx-export/libs\libnuttx.a(c-dq_addlast.o)
 .debug_info    0x0002f28a      0x140 c:/px4/workspace/PX4Firmware/Build/px4io-v2_default.build/nuttx-export/libs\libnuttx.a(c-dq_rem.o)
 .debug_info    0x0002f3ca       0xcc c:/px4/workspace/PX4Firmware/Build/px4io-v2_default.build/nuttx-export/libs\libnuttx.a(c-lib_strdup.o)
 .debug_info    0x0002f496      0x12c c:/px4/workspace/PX4Firmware/Build/px4io-v2_default.build/nuttx-export/libs\libnuttx.a(arch-stm32_timerisr.o)
 .debug_info    0x0002f5c2      0xa8d c:/px4/workspace/PX4Firmware/Build/px4io-v2_default.build/nuttx-export/libs\libnuttx.a(arch-up_createstack.o)
 .debug_info    0x0003004f      0x112 c:/px4/workspace/PX4Firmware/Build/px4io-v2_default.build/nuttx-export/libs\libnuttx.a(arch-up_doirq.o)
 .debug_info    0x00030161      0xa53 c:/px4/workspace/PX4Firmware/Build/px4io-v2_default.build/nuttx-export/libs\libnuttx.a(arch-up_releasestack.o)
 .debug_info    0x00030bb4       0xd6 c:/px4/workspace/PX4Firmware/Build/px4io-v2_default.build/nuttx-export/libs\libnuttx.a(fs-fs_close.o)
 .debug_info    0x00030c8a      0x81a c:/px4/workspace/PX4Firmware/Build/px4io-v2_default.build/nuttx-export/libs\libnuttx.a(fs-fs_filedup2.o)
 .debug_info    0x000314a4      0x969 c:/px4/workspace/PX4Firmware/Build/px4io-v2_default.build/nuttx-export/libs\libnuttx.a(fs-fs_inode.o)
 .debug_info    0x00031e0d      0x9d5 c:/px4/workspace/PX4Firmware/Build/px4io-v2_default.build/nuttx-export/libs\libnuttx.a(fs-fs_inodereserve.o)
 .debug_info    0x000327e2      0xaad c:/px4/workspace/PX4Firmware/Build/px4io-v2_default.build/nuttx-export/libs\libnuttx.a(sched-group_setuptaskfiles.o)
 .debug_info    0x0003328f      0x11f c:/px4/workspace/PX4Firmware/Build/px4io-v2_default.build/nuttx-export/libs\libnuttx.a(sched-irq_dispatch.o)
 .debug_info    0x000333ae      0xac6 c:/px4/workspace/PX4Firmware/Build/px4io-v2_default.build/nuttx-export/libs\libnuttx.a(sched-sched_gettcb.o)
 .debug_info    0x00033e74      0xadc c:/px4/workspace/PX4Firmware/Build/px4io-v2_default.build/nuttx-export/libs\libnuttx.a(sched-sched_lock.o)
 .debug_info    0x00034950       0xa4 c:/px4/workspace/PX4Firmware/Build/px4io-v2_default.build/nuttx-export/libs\libnuttx.a(sched-sched_processtimer.o)
 .debug_info    0x000349f4      0xb8d c:/px4/workspace/PX4Firmware/Build/px4io-v2_default.build/nuttx-export/libs\libnuttx.a(sched-sched_releasetcb.o)
 .debug_info    0x00035581      0xb8f c:/px4/workspace/PX4Firmware/Build/px4io-v2_default.build/nuttx-export/libs\libnuttx.a(sched-sched_unlock.o)
 .debug_info    0x00036110      0xad2 c:/px4/workspace/PX4Firmware/Build/px4io-v2_default.build/nuttx-export/libs\libnuttx.a(sched-task_activate.o)
 .debug_info    0x00036be2      0xb15 c:/px4/workspace/PX4Firmware/Build/px4io-v2_default.build/nuttx-export/libs\libnuttx.a(arch-up_releasepending.o)

.debug_line     0x00000000    0x111c4
 *(.debug_line)
 .debug_line    0x00000000        0x0 c:/px4/workspace/PX4Firmware/Build/px4io-v2_default.build/c/px4/workspace/PX4Firmware/Build/px4io-v2_default.build/empty.c.o
 .debug_line    0x00000000      0x305 c:/px4/workspace/PX4Firmware/Build/px4io-v2_default.build/c/px4/workspace/PX4Firmware/src/drivers/boards/px4io-v2/module.pre.o
 .debug_line    0x00000305      0xb1b c:/px4/workspace/PX4Firmware/Build/px4io-v2_default.build/c/px4/workspace/PX4Firmware/src/drivers/stm32/module.pre.o
 .debug_line    0x00000e20     0x3a9d c:/px4/workspace/PX4Firmware/Build/px4io-v2_default.build/c/px4/workspace/PX4Firmware/src/modules/px4iofirmware/module.pre.o
 .debug_line    0x000048bd      0x123 c:/px4/workspace/PX4Firmware/Build/px4io-v2_default.build/nuttx-export/libs\libnuttx.a(sched-irq_attach.o)
 .debug_line    0x000049e0       0x99 c:/px4/workspace/PX4Firmware/Build/px4io-v2_default.build/nuttx-export/libs\libnuttx.a(sched-irq_initialize.o)
 .debug_line    0x00004a79       0xfa c:/px4/workspace/PX4Firmware/Build/px4io-v2_default.build/nuttx-export/libs\libnuttx.a(sched-irq_unexpectedisr.o)
 .debug_line    0x00004b73       0x7a c:/px4/workspace/PX4Firmware/Build/px4io-v2_default.build/nuttx-export/libs\libnuttx.a(c-lib_abort.o)
 .debug_line    0x00004bed       0xc4 c:/px4/workspace/PX4Firmware/Build/px4io-v2_default.build/nuttx-export/libs\libnuttx.a(c-lib_cfsetspeed.o)
 .debug_line    0x00004cb1      0x11a c:/px4/workspace/PX4Firmware/Build/px4io-v2_default.build/nuttx-export/libs\libnuttx.a(c-lib_crc32.o)
 .debug_line    0x00004dcb      0x125 c:/px4/workspace/PX4Firmware/Build/px4io-v2_default.build/nuttx-export/libs\libnuttx.a(c-lib_lowsyslog.o)
 .debug_line    0x00004ef0      0x10e c:/px4/workspace/PX4Firmware/Build/px4io-v2_default.build/nuttx-export/libs\libnuttx.a(c-lib_memchr.o)
 .debug_line    0x00004ffe      0x100 c:/px4/workspace/PX4Firmware/Build/px4io-v2_default.build/nuttx-export/libs\libnuttx.a(c-lib_memcpy.o)
 .debug_line    0x000050fe      0x104 c:/px4/workspace/PX4Firmware/Build/px4io-v2_default.build/nuttx-export/libs\libnuttx.a(c-lib_memset.o)
 .debug_line    0x00005202       0xd2 c:/px4/workspace/PX4Firmware/Build/px4io-v2_default.build/nuttx-export/libs\libnuttx.a(c-lib_printf.o)
 .debug_line    0x000052d4      0x38e c:/px4/workspace/PX4Firmware/Build/px4io-v2_default.build/nuttx-export/libs\libnuttx.a(c-lib_sscanf.o)
 .debug_line    0x00005662       0x86 c:/px4/workspace/PX4Firmware/Build/px4io-v2_default.build/nuttx-export/libs\libnuttx.a(c-lib_strchr.o)
 .debug_line    0x000056e8       0x81 c:/px4/workspace/PX4Firmware/Build/px4io-v2_default.build/nuttx-export/libs\libnuttx.a(c-lib_strcmp.o)
 .debug_line    0x00005769      0x102 c:/px4/workspace/PX4Firmware/Build/px4io-v2_default.build/nuttx-export/libs\libnuttx.a(c-lib_strcspn.o)
 .debug_line    0x0000586b      0x10d c:/px4/workspace/PX4Firmware/Build/px4io-v2_default.build/nuttx-export/libs\libnuttx.a(c-lib_strncpy.o)
 .debug_line    0x00005978       0xda c:/px4/workspace/PX4Firmware/Build/px4io-v2_default.build/nuttx-export/libs\libnuttx.a(c-lib_strtol.o)
 .debug_line    0x00005a52       0x8e c:/px4/workspace/PX4Firmware/Build/px4io-v2_default.build/nuttx-export/libs\libnuttx.a(c-lib_strtoul.o)
 .debug_line    0x00005ae0      0x126 c:/px4/workspace/PX4Firmware/Build/px4io-v2_default.build/nuttx-export/libs\libnuttx.a(c-lib_syslog.o)
 .debug_line    0x00005c06       0xc5 c:/px4/workspace/PX4Firmware/Build/px4io-v2_default.build/nuttx-export/libs\libnuttx.a(c-lib_tcgetattr.o)
 .debug_line    0x00005ccb       0xc6 c:/px4/workspace/PX4Firmware/Build/px4io-v2_default.build/nuttx-export/libs\libnuttx.a(c-lib_tcsetattr.o)
 .debug_line    0x00005d91      0x189 c:/px4/workspace/PX4Firmware/Build/px4io-v2_default.build/nuttx-export/libs\libnuttx.a(c-lib_vsnprintf.o)
 .debug_line    0x00005f1a       0x87 c:/px4/workspace/PX4Firmware/Build/px4io-v2_default.build/nuttx-export/libs\libnuttx.a(c-sq_addafter.o)
 .debug_line    0x00005fa1       0x7b c:/px4/workspace/PX4Firmware/Build/px4io-v2_default.build/nuttx-export/libs\libnuttx.a(c-sq_addfirst.o)
 .debug_line    0x0000601c       0x7a c:/px4/workspace/PX4Firmware/Build/px4io-v2_default.build/nuttx-export/libs\libnuttx.a(c-sq_addlast.o)
 .debug_line    0x00006096       0x8b c:/px4/workspace/PX4Firmware/Build/px4io-v2_default.build/nuttx-export/libs\libnuttx.a(c-sq_rem.o)
 .debug_line    0x00006121       0x88 c:/px4/workspace/PX4Firmware/Build/px4io-v2_default.build/nuttx-export/libs\libnuttx.a(c-sq_remafter.o)
 .debug_line    0x000061a9       0xfa c:/px4/workspace/PX4Firmware/Build/px4io-v2_default.build/nuttx-export/libs\libnuttx.a(mm-mm_calloc.o)
 .debug_line    0x000062a3      0x15a c:/px4/workspace/PX4Firmware/Build/px4io-v2_default.build/nuttx-export/libs\libnuttx.a(mm-mm_free.o)
 .debug_line    0x000063fd      0x157 c:/px4/workspace/PX4Firmware/Build/px4io-v2_default.build/nuttx-export/libs\libnuttx.a(mm-mm_mallinfo.o)
 .debug_line    0x00006554      0x167 c:/px4/workspace/PX4Firmware/Build/px4io-v2_default.build/nuttx-export/libs\libnuttx.a(mm-mm_malloc.o)
 .debug_line    0x000066bb      0x193 c:/px4/workspace/PX4Firmware/Build/px4io-v2_default.build/nuttx-export/libs\libnuttx.a(mm-mm_sem.o)
 .debug_line    0x0000684e      0x127 c:/px4/workspace/PX4Firmware/Build/px4io-v2_default.build/nuttx-export/libs\libnuttx.a(mm-mm_size2ndx.o)
 .debug_line    0x00006975      0x164 c:/px4/workspace/PX4Firmware/Build/px4io-v2_default.build/nuttx-export/libs\libnuttx.a(mm-mm_user.o)
 .debug_line    0x00006ad9       0xf0 c:/px4/workspace/PX4Firmware/Build/px4io-v2_default.build/nuttx-export/libs\libnuttx.a(mm-mm_zalloc.o)
 .debug_line    0x00006bc9      0x297 c:/px4/workspace/PX4Firmware/Build/px4io-v2_default.build/nuttx-export/libs\libnuttx.a(arch-stm32_dma.o)
 .debug_line    0x00006e60      0x1cf c:/px4/workspace/PX4Firmware/Build/px4io-v2_default.build/nuttx-export/libs\libnuttx.a(arch-stm32_gpio.o)
 .debug_line    0x0000702f      0x235 c:/px4/workspace/PX4Firmware/Build/px4io-v2_default.build/nuttx-export/libs\libnuttx.a(arch-stm32_irq.o)
 .debug_line    0x00007264      0x729 c:/px4/workspace/PX4Firmware/Build/px4io-v2_default.build/nuttx-export/libs\libnuttx.a(arch-stm32_serial.o)
 .debug_line    0x0000798d      0x115 c:/px4/workspace/PX4Firmware/Build/px4io-v2_default.build/nuttx-export/libs\libnuttx.a(arch-stm32_start.o)
 .debug_line    0x00007aa2      0x2a1 c:/px4/workspace/PX4Firmware/Build/px4io-v2_default.build/nuttx-export/libs\libnuttx.a(arch-up_assert.o)
 .debug_line    0x00007d43      0x15c c:/px4/workspace/PX4Firmware/Build/px4io-v2_default.build/nuttx-export/libs\libnuttx.a(arch-up_hardfault.o)
 .debug_line    0x00007e9f      0x10d c:/px4/workspace/PX4Firmware/Build/px4io-v2_default.build/nuttx-export/libs\libnuttx.a(arch-up_modifyreg32.o)
 .debug_line    0x00007fac      0x113 c:/px4/workspace/PX4Firmware/Build/px4io-v2_default.build/nuttx-export/libs\libnuttx.a(arch-up_svcall.o)
 .debug_line    0x000080bf       0xba c:/px4/workspace/PX4Firmware/Build/px4io-v2_default.build/nuttx-export/libs\libnuttx.a(arch-up_systemreset.o)
 .debug_line    0x00008179      0x184 c:/px4/workspace/PX4Firmware/Build/px4io-v2_default.build/nuttx-export/libs\libnuttx.a(arch-up_udelay.o)
 .debug_line    0x000082fd       0x35 c:/px4/workspace/PX4Firmware/Build/px4io-v2_default.build/nuttx-export/libs\libnuttx.a(arch-up_vectors.o)
 .debug_line    0x00008332      0x152 c:/px4/workspace/PX4Firmware/Build/px4io-v2_default.build/nuttx-export/libs\libnuttx.a(cxx-libxx_cxa_atexit.o)
 .debug_line    0x00008484       0x4a c:/px4/workspace/PX4Firmware/Build/px4io-v2_default.build/nuttx-export/libs\libnuttx.a(cxx-libxx_cxapurevirtual.o)
 .debug_line    0x000084ce      0x136 c:/px4/workspace/PX4Firmware/Build/px4io-v2_default.build/nuttx-export/libs\libnuttx.a(cxx-libxx_delete.o)
 .debug_line    0x00008604      0x154 c:/px4/workspace/PX4Firmware/Build/px4io-v2_default.build/nuttx-export/libs\libnuttx.a(cxx-libxx_eabi_atexit.o)
 .debug_line    0x00008758      0x144 c:/px4/workspace/PX4Firmware/Build/px4io-v2_default.build/nuttx-export/libs\libnuttx.a(cxx-libxx_new.o)
 .debug_line    0x0000889c      0x16a c:/px4/workspace/PX4Firmware/Build/px4io-v2_default.build/nuttx-export/libs\libnuttx.a(fs-fs_ioctl.o)
 .debug_line    0x00008a06      0x19e c:/px4/workspace/PX4Firmware/Build/px4io-v2_default.build/nuttx-export/libs\libnuttx.a(fs-fs_open.o)
 .debug_line    0x00008ba4      0x16a c:/px4/workspace/PX4Firmware/Build/px4io-v2_default.build/nuttx-export/libs\libnuttx.a(fs-fs_read.o)
 .debug_line    0x00008d0e      0x161 c:/px4/workspace/PX4Firmware/Build/px4io-v2_default.build/nuttx-export/libs\libnuttx.a(fs-fs_write.o)
 .debug_line    0x00008e6f      0x478 c:/px4/workspace/PX4Firmware/Build/px4io-v2_default.build/nuttx-export/libs\libnuttx.a(drivers-serial.o)
 .debug_line    0x000092e7      0x1e4 c:/px4/workspace/PX4Firmware/Build/px4io-v2_default.build/nuttx-export/libs\libnuttx.a(drivers-serialirq.o)
 .debug_line    0x000094cb      0x1ea c:/px4/workspace/PX4Firmware/Build/px4io-v2_default.build/nuttx-export/libs\libnuttx.a(sched-errno_getptr.o)
 .debug_line    0x000096b5      0x1e2 c:/px4/workspace/PX4Firmware/Build/px4io-v2_default.build/nuttx-export/libs\libnuttx.a(sched-exit.o)
 .debug_line    0x00009897      0x1df c:/px4/workspace/PX4Firmware/Build/px4io-v2_default.build/nuttx-export/libs\libnuttx.a(sched-getpid.o)
 .debug_line    0x00009a76      0x258 c:/px4/workspace/PX4Firmware/Build/px4io-v2_default.build/nuttx-export/libs\libnuttx.a(sched-os_start.o)
 .debug_line    0x00009cce      0x159 c:/px4/workspace/PX4Firmware/Build/px4io-v2_default.build/nuttx-export/libs\libnuttx.a(sched-sched_garbage.o)
 .debug_line    0x00009e27      0x1de c:/px4/workspace/PX4Firmware/Build/px4io-v2_default.build/nuttx-export/libs\libnuttx.a(sched-sched_getfiles.o)
 .debug_line    0x0000a005      0x207 c:/px4/workspace/PX4Firmware/Build/px4io-v2_default.build/nuttx-export/libs\libnuttx.a(sched-sem_post.o)
 .debug_line    0x0000a20c      0x200 c:/px4/workspace/PX4Firmware/Build/px4io-v2_default.build/nuttx-export/libs\libnuttx.a(sched-sem_trywait.o)
 .debug_line    0x0000a40c      0x220 c:/px4/workspace/PX4Firmware/Build/px4io-v2_default.build/nuttx-export/libs\libnuttx.a(sched-sem_wait.o)
 .debug_line    0x0000a62c      0x1ca c:/px4/workspace/PX4Firmware/Build/px4io-v2_default.build/nuttx-export/libs\libnuttx.a(sched-task_exithook.o)
 .debug_line    0x0000a7f6      0x1d7 c:/px4/workspace/PX4Firmware/Build/px4io-v2_default.build/nuttx-export/libs\libnuttx.a(sched-task_recover.o)
 .debug_line    0x0000a9cd      0x159 c:/px4/workspace/PX4Firmware/Build/px4io-v2_default.build/nuttx-export/libs\libnuttx.a(sched-wd_cancel.o)
 .debug_line    0x0000ab26      0x138 c:/px4/workspace/PX4Firmware/Build/px4io-v2_default.build/nuttx-export/libs\libnuttx.a(sched-wd_delete.o)
 .debug_line    0x0000ac5e      0x12f c:/px4/workspace/PX4Firmware/Build/px4io-v2_default.build/nuttx-export/libs\libnuttx.a(sched-wd_initialize.o)
 .debug_line    0x0000ad8d       0x7d c:/px4/workspace/PX4Firmware/Build/px4io-v2_default.build/nuttx-export/libs\libnuttx.a(c-dq_addfirst.o)
 .debug_line    0x0000ae0a       0xc4 c:/px4/workspace/PX4Firmware/Build/px4io-v2_default.build/nuttx-export/libs\libnuttx.a(c-lib_cfgetspeed.o)
 .debug_line    0x0000aece       0x78 c:/px4/workspace/PX4Firmware/Build/px4io-v2_default.build/nuttx-export/libs\libnuttx.a(c-lib_checkbase.o)
 .debug_line    0x0000af46       0xea c:/px4/workspace/PX4Firmware/Build/px4io-v2_default.build/nuttx-export/libs\libnuttx.a(c-lib_isbasedigit.o)
 .debug_line    0x0000b030      0x3f1 c:/px4/workspace/PX4Firmware/Build/px4io-v2_default.build/nuttx-export/libs\libnuttx.a(c-lib_libvsprintf.o)
 .debug_line    0x0000b421       0x99 c:/px4/workspace/PX4Firmware/Build/px4io-v2_default.build/nuttx-export/libs\libnuttx.a(c-lib_lowoutstream.o)
 .debug_line    0x0000b4ba       0xa7 c:/px4/workspace/PX4Firmware/Build/px4io-v2_default.build/nuttx-export/libs\libnuttx.a(c-lib_memoutstream.o)
 .debug_line    0x0000b561       0x99 c:/px4/workspace/PX4Firmware/Build/px4io-v2_default.build/nuttx-export/libs\libnuttx.a(c-lib_nulloutstream.o)
 .debug_line    0x0000b5fa       0xa5 c:/px4/workspace/PX4Firmware/Build/px4io-v2_default.build/nuttx-export/libs\libnuttx.a(c-lib_rawoutstream.o)
 .debug_line    0x0000b69f       0x69 c:/px4/workspace/PX4Firmware/Build/px4io-v2_default.build/nuttx-export/libs\libnuttx.a(c-lib_skipspace.o)
 .debug_line    0x0000b708       0x80 c:/px4/workspace/PX4Firmware/Build/px4io-v2_default.build/nuttx-export/libs\libnuttx.a(c-lib_strcpy.o)
 .debug_line    0x0000b788       0xfa c:/px4/workspace/PX4Firmware/Build/px4io-v2_default.build/nuttx-export/libs\libnuttx.a(c-lib_strlen.o)
 .debug_line    0x0000b882       0xcf c:/px4/workspace/PX4Firmware/Build/px4io-v2_default.build/nuttx-export/libs\libnuttx.a(c-sem_init.o)
 .debug_line    0x0000b951       0x7d c:/px4/workspace/PX4Firmware/Build/px4io-v2_default.build/nuttx-export/libs\libnuttx.a(c-sq_remfirst.o)
 .debug_line    0x0000b9ce      0x144 c:/px4/workspace/PX4Firmware/Build/px4io-v2_default.build/nuttx-export/libs\libnuttx.a(mm-mm_addfreechunk.o)
 .debug_line    0x0000bb12      0x194 c:/px4/workspace/PX4Firmware/Build/px4io-v2_default.build/nuttx-export/libs\libnuttx.a(mm-mm_initialize.o)
 .debug_line    0x0000bca6      0x16f c:/px4/workspace/PX4Firmware/Build/px4io-v2_default.build/nuttx-export/libs\libnuttx.a(arch-stm32_allocateheap.o)
 .debug_line    0x0000be15       0x7e c:/px4/workspace/PX4Firmware/Build/px4io-v2_default.build/nuttx-export/libs\libnuttx.a(arch-stm32_idle.o)
 .debug_line    0x0000be93      0x178 c:/px4/workspace/PX4Firmware/Build/px4io-v2_default.build/nuttx-export/libs\libnuttx.a(arch-stm32_lowputc.o)
 .debug_line    0x0000c00b      0x15e c:/px4/workspace/PX4Firmware/Build/px4io-v2_default.build/nuttx-export/libs\libnuttx.a(arch-stm32_rcc.o)
 .debug_line    0x0000c169      0x27a c:/px4/workspace/PX4Firmware/Build/px4io-v2_default.build/nuttx-export/libs\libnuttx.a(arch-up_blocktask.o)
 .debug_line    0x0000c3e3       0xbe c:/px4/workspace/PX4Firmware/Build/px4io-v2_default.build/nuttx-export/libs\libnuttx.a(arch-up_copystate.o)
 .debug_line    0x0000c4a1       0x6c c:/px4/workspace/PX4Firmware/Build/px4io-v2_default.build/nuttx-export/libs\libnuttx.a(arch-up_exception.o)
 .debug_line    0x0000c50d      0x219 c:/px4/workspace/PX4Firmware/Build/px4io-v2_default.build/nuttx-export/libs\libnuttx.a(arch-up_exit.o)
 .debug_line    0x0000c726       0x53 c:/px4/workspace/PX4Firmware/Build/px4io-v2_default.build/nuttx-export/libs\libnuttx.a(arch-up_fullcontextrestore.o)
 .debug_line    0x0000c779      0x13f c:/px4/workspace/PX4Firmware/Build/px4io-v2_default.build/nuttx-export/libs\libnuttx.a(arch-up_initialize.o)
 .debug_line    0x0000c8b8      0x1e0 c:/px4/workspace/PX4Firmware/Build/px4io-v2_default.build/nuttx-export/libs\libnuttx.a(arch-up_initialstate.o)
 .debug_line    0x0000ca98      0x111 c:/px4/workspace/PX4Firmware/Build/px4io-v2_default.build/nuttx-export/libs\libnuttx.a(arch-up_interruptcontext.o)
 .debug_line    0x0000cba9       0x94 c:/px4/workspace/PX4Firmware/Build/px4io-v2_default.build/nuttx-export/libs\libnuttx.a(arch-up_mdelay.o)
 .debug_line    0x0000cc3d       0x4f c:/px4/workspace/PX4Firmware/Build/px4io-v2_default.build/nuttx-export/libs\libnuttx.a(arch-up_switchcontext.o)
 .debug_line    0x0000cc8c      0x275 c:/px4/workspace/PX4Firmware/Build/px4io-v2_default.build/nuttx-export/libs\libnuttx.a(arch-up_unblocktask.o)
 .debug_line    0x0000cf01      0x275 c:/px4/workspace/PX4Firmware/Build/px4io-v2_default.build/nuttx-export/libs\libnuttx.a(fs-fs_files.o)
 .debug_line    0x0000d176      0x130 c:/px4/workspace/PX4Firmware/Build/px4io-v2_default.build/nuttx-export/libs\libnuttx.a(fs-fs_inodeaddref.o)
 .debug_line    0x0000d2a6      0x13a c:/px4/workspace/PX4Firmware/Build/px4io-v2_default.build/nuttx-export/libs\libnuttx.a(fs-fs_inodefind.o)
 .debug_line    0x0000d3e0      0x141 c:/px4/workspace/PX4Firmware/Build/px4io-v2_default.build/nuttx-export/libs\libnuttx.a(fs-fs_inoderelease.o)
 .debug_line    0x0000d521      0x13d c:/px4/workspace/PX4Firmware/Build/px4io-v2_default.build/nuttx-export/libs\libnuttx.a(fs-fs_registerdriver.o)
 .debug_line    0x0000d65e      0x1df c:/px4/workspace/PX4Firmware/Build/px4io-v2_default.build/nuttx-export/libs\libnuttx.a(sched-group_create.o)
 .debug_line    0x0000d83d      0x1cc c:/px4/workspace/PX4Firmware/Build/px4io-v2_default.build/nuttx-export/libs\libnuttx.a(sched-group_leave.o)
 .debug_line    0x0000da09      0x1d9 c:/px4/workspace/PX4Firmware/Build/px4io-v2_default.build/nuttx-export/libs\libnuttx.a(sched-group_setupidlefiles.o)
 .debug_line    0x0000dbe2       0xef c:/px4/workspace/PX4Firmware/Build/px4io-v2_default.build/nuttx-export/libs\libnuttx.a(sched-os_bringup.o)
 .debug_line    0x0000dcd1      0x1ec c:/px4/workspace/PX4Firmware/Build/px4io-v2_default.build/nuttx-export/libs\libnuttx.a(sched-sched_addblocked.o)
 .debug_line    0x0000debd      0x204 c:/px4/workspace/PX4Firmware/Build/px4io-v2_default.build/nuttx-export/libs\libnuttx.a(sched-sched_addprioritized.o)
 .debug_line    0x0000e0c1      0x201 c:/px4/workspace/PX4Firmware/Build/px4io-v2_default.build/nuttx-export/libs\libnuttx.a(sched-sched_addreadytorun.o)
 .debug_line    0x0000e2c2      0x156 c:/px4/workspace/PX4Firmware/Build/px4io-v2_default.build/nuttx-export/libs\libnuttx.a(sched-sched_free.o)
 .debug_line    0x0000e418      0x226 c:/px4/workspace/PX4Firmware/Build/px4io-v2_default.build/nuttx-export/libs\libnuttx.a(sched-sched_mergepending.o)
 .debug_line    0x0000e63e      0x1eb c:/px4/workspace/PX4Firmware/Build/px4io-v2_default.build/nuttx-export/libs\libnuttx.a(sched-sched_removeblocked.o)
 .debug_line    0x0000e829      0x1f8 c:/px4/workspace/PX4Firmware/Build/px4io-v2_default.build/nuttx-export/libs\libnuttx.a(sched-sched_removereadytorun.o)
 .debug_line    0x0000ea21       0xc3 c:/px4/workspace/PX4Firmware/Build/px4io-v2_default.build/nuttx-export/libs\libnuttx.a(sched-sem_destroy.o)
 .debug_line    0x0000eae4      0x23c c:/px4/workspace/PX4Firmware/Build/px4io-v2_default.build/nuttx-export/libs\libnuttx.a(sched-task_create.o)
 .debug_line    0x0000ed20      0x1f1 c:/px4/workspace/PX4Firmware/Build/px4io-v2_default.build/nuttx-export/libs\libnuttx.a(sched-task_exit.o)
 .debug_line    0x0000ef11      0x272 c:/px4/workspace/PX4Firmware/Build/px4io-v2_default.build/nuttx-export/libs\libnuttx.a(sched-task_setup.o)
 .debug_line    0x0000f183      0x1e4 c:/px4/workspace/PX4Firmware/Build/px4io-v2_default.build/nuttx-export/libs\libnuttx.a(sched-task_start.o)
 .debug_line    0x0000f367      0x20b c:/px4/workspace/PX4Firmware/Build/px4io-v2_default.build/nuttx-export/libs\libnuttx.a(sched-task_terminate.o)
 .debug_line    0x0000f572       0x7b c:/px4/workspace/PX4Firmware/Build/px4io-v2_default.build/nuttx-export/libs\libnuttx.a(c-dq_addlast.o)
 .debug_line    0x0000f5ed       0x7c c:/px4/workspace/PX4Firmware/Build/px4io-v2_default.build/nuttx-export/libs\libnuttx.a(c-dq_rem.o)
 .debug_line    0x0000f669       0x7c c:/px4/workspace/PX4Firmware/Build/px4io-v2_default.build/nuttx-export/libs\libnuttx.a(c-lib_strdup.o)
 .debug_line    0x0000f6e5      0x158 c:/px4/workspace/PX4Firmware/Build/px4io-v2_default.build/nuttx-export/libs\libnuttx.a(arch-stm32_timerisr.o)
 .debug_line    0x0000f83d      0x1ef c:/px4/workspace/PX4Firmware/Build/px4io-v2_default.build/nuttx-export/libs\libnuttx.a(arch-up_createstack.o)
 .debug_line    0x0000fa2c      0x107 c:/px4/workspace/PX4Firmware/Build/px4io-v2_default.build/nuttx-export/libs\libnuttx.a(arch-up_doirq.o)
 .debug_line    0x0000fb33      0x1d7 c:/px4/workspace/PX4Firmware/Build/px4io-v2_default.build/nuttx-export/libs\libnuttx.a(arch-up_releasestack.o)
 .debug_line    0x0000fd0a       0x85 c:/px4/workspace/PX4Firmware/Build/px4io-v2_default.build/nuttx-export/libs\libnuttx.a(fs-fs_close.o)
 .debug_line    0x0000fd8f      0x156 c:/px4/workspace/PX4Firmware/Build/px4io-v2_default.build/nuttx-export/libs\libnuttx.a(fs-fs_filedup2.o)
 .debug_line    0x0000fee5      0x20b c:/px4/workspace/PX4Firmware/Build/px4io-v2_default.build/nuttx-export/libs\libnuttx.a(fs-fs_inode.o)
 .debug_line    0x000100f0      0x1b1 c:/px4/workspace/PX4Firmware/Build/px4io-v2_default.build/nuttx-export/libs\libnuttx.a(fs-fs_inodereserve.o)
 .debug_line    0x000102a1      0x1c9 c:/px4/workspace/PX4Firmware/Build/px4io-v2_default.build/nuttx-export/libs\libnuttx.a(sched-group_setuptaskfiles.o)
 .debug_line    0x0001046a       0xb4 c:/px4/workspace/PX4Firmware/Build/px4io-v2_default.build/nuttx-export/libs\libnuttx.a(sched-irq_dispatch.o)
 .debug_line    0x0001051e      0x1d7 c:/px4/workspace/PX4Firmware/Build/px4io-v2_default.build/nuttx-export/libs\libnuttx.a(sched-sched_gettcb.o)
 .debug_line    0x000106f5      0x1f3 c:/px4/workspace/PX4Firmware/Build/px4io-v2_default.build/nuttx-export/libs\libnuttx.a(sched-sched_lock.o)
 .debug_line    0x000108e8       0x81 c:/px4/workspace/PX4Firmware/Build/px4io-v2_default.build/nuttx-export/libs\libnuttx.a(sched-sched_processtimer.o)
 .debug_line    0x00010969      0x20b c:/px4/workspace/PX4Firmware/Build/px4io-v2_default.build/nuttx-export/libs\libnuttx.a(sched-sched_releasetcb.o)
 .debug_line    0x00010b74      0x208 c:/px4/workspace/PX4Firmware/Build/px4io-v2_default.build/nuttx-export/libs\libnuttx.a(sched-sched_unlock.o)
 .debug_line    0x00010d7c      0x1df c:/px4/workspace/PX4Firmware/Build/px4io-v2_default.build/nuttx-export/libs\libnuttx.a(sched-task_activate.o)
 .debug_line    0x00010f5b      0x269 c:/px4/workspace/PX4Firmware/Build/px4io-v2_default.build/nuttx-export/libs\libnuttx.a(arch-up_releasepending.o)

.debug_pubnames
 *(.debug_pubnames)

.debug_aranges  0x00000000     0x1ad0
 *(.debug_aranges)
 .debug_aranges
                0x00000000       0x20 c:/px4/workspace/PX4Firmware/Build/px4io-v2_default.build/c/px4/workspace/PX4Firmware/src/drivers/boards/px4io-v2/module.pre.o
 .debug_aranges
                0x00000020       0xe8 c:/px4/workspace/PX4Firmware/Build/px4io-v2_default.build/c/px4/workspace/PX4Firmware/src/drivers/stm32/module.pre.o
 .debug_aranges
                0x00000108      0x488 c:/px4/workspace/PX4Firmware/Build/px4io-v2_default.build/c/px4/workspace/PX4Firmware/src/modules/px4iofirmware/module.pre.o
 .debug_aranges
                0x00000590       0x20 c:/px4/workspace/PX4Firmware/Build/px4io-v2_default.build/nuttx-export/libs\libnuttx.a(sched-irq_attach.o)
 .debug_aranges
                0x000005b0       0x20 c:/px4/workspace/PX4Firmware/Build/px4io-v2_default.build/nuttx-export/libs\libnuttx.a(sched-irq_initialize.o)
 .debug_aranges
                0x000005d0       0x20 c:/px4/workspace/PX4Firmware/Build/px4io-v2_default.build/nuttx-export/libs\libnuttx.a(sched-irq_unexpectedisr.o)
 .debug_aranges
                0x000005f0       0x20 c:/px4/workspace/PX4Firmware/Build/px4io-v2_default.build/nuttx-export/libs\libnuttx.a(c-lib_abort.o)
 .debug_aranges
                0x00000610       0x20 c:/px4/workspace/PX4Firmware/Build/px4io-v2_default.build/nuttx-export/libs\libnuttx.a(c-lib_cfsetspeed.o)
 .debug_aranges
                0x00000630       0x28 c:/px4/workspace/PX4Firmware/Build/px4io-v2_default.build/nuttx-export/libs\libnuttx.a(c-lib_crc32.o)
 .debug_aranges
                0x00000658       0x28 c:/px4/workspace/PX4Firmware/Build/px4io-v2_default.build/nuttx-export/libs\libnuttx.a(c-lib_lowsyslog.o)
 .debug_aranges
                0x00000680       0x20 c:/px4/workspace/PX4Firmware/Build/px4io-v2_default.build/nuttx-export/libs\libnuttx.a(c-lib_memchr.o)
 .debug_aranges
                0x000006a0       0x20 c:/px4/workspace/PX4Firmware/Build/px4io-v2_default.build/nuttx-export/libs\libnuttx.a(c-lib_memcpy.o)
 .debug_aranges
                0x000006c0       0x20 c:/px4/workspace/PX4Firmware/Build/px4io-v2_default.build/nuttx-export/libs\libnuttx.a(c-lib_memset.o)
 .debug_aranges
                0x000006e0       0x20 c:/px4/workspace/PX4Firmware/Build/px4io-v2_default.build/nuttx-export/libs\libnuttx.a(c-lib_printf.o)
 .debug_aranges
                0x00000700       0x30 c:/px4/workspace/PX4Firmware/Build/px4io-v2_default.build/nuttx-export/libs\libnuttx.a(c-lib_sscanf.o)
 .debug_aranges
                0x00000730       0x20 c:/px4/workspace/PX4Firmware/Build/px4io-v2_default.build/nuttx-export/libs\libnuttx.a(c-lib_strchr.o)
 .debug_aranges
                0x00000750       0x20 c:/px4/workspace/PX4Firmware/Build/px4io-v2_default.build/nuttx-export/libs\libnuttx.a(c-lib_strcmp.o)
 .debug_aranges
                0x00000770       0x20 c:/px4/workspace/PX4Firmware/Build/px4io-v2_default.build/nuttx-export/libs\libnuttx.a(c-lib_strcspn.o)
 .debug_aranges
                0x00000790       0x20 c:/px4/workspace/PX4Firmware/Build/px4io-v2_default.build/nuttx-export/libs\libnuttx.a(c-lib_strncpy.o)
 .debug_aranges
                0x000007b0       0x20 c:/px4/workspace/PX4Firmware/Build/px4io-v2_default.build/nuttx-export/libs\libnuttx.a(c-lib_strtol.o)
 .debug_aranges
                0x000007d0       0x20 c:/px4/workspace/PX4Firmware/Build/px4io-v2_default.build/nuttx-export/libs\libnuttx.a(c-lib_strtoul.o)
 .debug_aranges
                0x000007f0       0x28 c:/px4/workspace/PX4Firmware/Build/px4io-v2_default.build/nuttx-export/libs\libnuttx.a(c-lib_syslog.o)
 .debug_aranges
                0x00000818       0x20 c:/px4/workspace/PX4Firmware/Build/px4io-v2_default.build/nuttx-export/libs\libnuttx.a(c-lib_tcgetattr.o)
 .debug_aranges
                0x00000838       0x20 c:/px4/workspace/PX4Firmware/Build/px4io-v2_default.build/nuttx-export/libs\libnuttx.a(c-lib_tcsetattr.o)
 .debug_aranges
                0x00000858       0x20 c:/px4/workspace/PX4Firmware/Build/px4io-v2_default.build/nuttx-export/libs\libnuttx.a(c-lib_vsnprintf.o)
 .debug_aranges
                0x00000878       0x20 c:/px4/workspace/PX4Firmware/Build/px4io-v2_default.build/nuttx-export/libs\libnuttx.a(c-sq_addafter.o)
 .debug_aranges
                0x00000898       0x20 c:/px4/workspace/PX4Firmware/Build/px4io-v2_default.build/nuttx-export/libs\libnuttx.a(c-sq_addfirst.o)
 .debug_aranges
                0x000008b8       0x20 c:/px4/workspace/PX4Firmware/Build/px4io-v2_default.build/nuttx-export/libs\libnuttx.a(c-sq_addlast.o)
 .debug_aranges
                0x000008d8       0x20 c:/px4/workspace/PX4Firmware/Build/px4io-v2_default.build/nuttx-export/libs\libnuttx.a(c-sq_rem.o)
 .debug_aranges
                0x000008f8       0x20 c:/px4/workspace/PX4Firmware/Build/px4io-v2_default.build/nuttx-export/libs\libnuttx.a(c-sq_remafter.o)
 .debug_aranges
                0x00000918       0x20 c:/px4/workspace/PX4Firmware/Build/px4io-v2_default.build/nuttx-export/libs\libnuttx.a(mm-mm_calloc.o)
 .debug_aranges
                0x00000938       0x20 c:/px4/workspace/PX4Firmware/Build/px4io-v2_default.build/nuttx-export/libs\libnuttx.a(mm-mm_free.o)
 .debug_aranges
                0x00000958       0x20 c:/px4/workspace/PX4Firmware/Build/px4io-v2_default.build/nuttx-export/libs\libnuttx.a(mm-mm_mallinfo.o)
 .debug_aranges
                0x00000978       0x20 c:/px4/workspace/PX4Firmware/Build/px4io-v2_default.build/nuttx-export/libs\libnuttx.a(mm-mm_malloc.o)
 .debug_aranges
                0x00000998       0x38 c:/px4/workspace/PX4Firmware/Build/px4io-v2_default.build/nuttx-export/libs\libnuttx.a(mm-mm_sem.o)
 .debug_aranges
                0x000009d0       0x20 c:/px4/workspace/PX4Firmware/Build/px4io-v2_default.build/nuttx-export/libs\libnuttx.a(mm-mm_size2ndx.o)
 .debug_aranges
                0x000009f0       0x38 c:/px4/workspace/PX4Firmware/Build/px4io-v2_default.build/nuttx-export/libs\libnuttx.a(mm-mm_user.o)
 .debug_aranges
                0x00000a28       0x20 c:/px4/workspace/PX4Firmware/Build/px4io-v2_default.build/nuttx-export/libs\libnuttx.a(mm-mm_zalloc.o)
 .debug_aranges
                0x00000a48       0x60 c:/px4/workspace/PX4Firmware/Build/px4io-v2_default.build/nuttx-export/libs\libnuttx.a(arch-stm32_dma.o)
 .debug_aranges
                0x00000aa8       0x40 c:/px4/workspace/PX4Firmware/Build/px4io-v2_default.build/nuttx-export/libs\libnuttx.a(arch-stm32_gpio.o)
 .debug_aranges
                0x00000ae8       0x48 c:/px4/workspace/PX4Firmware/Build/px4io-v2_default.build/nuttx-export/libs\libnuttx.a(arch-stm32_irq.o)
 .debug_aranges
                0x00000b30      0x100 c:/px4/workspace/PX4Firmware/Build/px4io-v2_default.build/nuttx-export/libs\libnuttx.a(arch-stm32_serial.o)
 .debug_aranges
                0x00000c30       0x20 c:/px4/workspace/PX4Firmware/Build/px4io-v2_default.build/nuttx-export/libs\libnuttx.a(arch-stm32_start.o)
 .debug_aranges
                0x00000c50       0x20 c:/px4/workspace/PX4Firmware/Build/px4io-v2_default.build/nuttx-export/libs\libnuttx.a(arch-up_assert.o)
 .debug_aranges
                0x00000c70       0x20 c:/px4/workspace/PX4Firmware/Build/px4io-v2_default.build/nuttx-export/libs\libnuttx.a(arch-up_hardfault.o)
 .debug_aranges
                0x00000c90       0x20 c:/px4/workspace/PX4Firmware/Build/px4io-v2_default.build/nuttx-export/libs\libnuttx.a(arch-up_modifyreg32.o)
 .debug_aranges
                0x00000cb0       0x20 c:/px4/workspace/PX4Firmware/Build/px4io-v2_default.build/nuttx-export/libs\libnuttx.a(arch-up_svcall.o)
 .debug_aranges
                0x00000cd0       0x20 c:/px4/workspace/PX4Firmware/Build/px4io-v2_default.build/nuttx-export/libs\libnuttx.a(arch-up_systemreset.o)
 .debug_aranges
                0x00000cf0       0x20 c:/px4/workspace/PX4Firmware/Build/px4io-v2_default.build/nuttx-export/libs\libnuttx.a(arch-up_udelay.o)
 .debug_aranges
                0x00000d10       0x20 c:/px4/workspace/PX4Firmware/Build/px4io-v2_default.build/nuttx-export/libs\libnuttx.a(cxx-libxx_cxa_atexit.o)
 .debug_aranges
                0x00000d30       0x20 c:/px4/workspace/PX4Firmware/Build/px4io-v2_default.build/nuttx-export/libs\libnuttx.a(cxx-libxx_cxapurevirtual.o)
 .debug_aranges
                0x00000d50       0x20 c:/px4/workspace/PX4Firmware/Build/px4io-v2_default.build/nuttx-export/libs\libnuttx.a(cxx-libxx_delete.o)
 .debug_aranges
                0x00000d70       0x20 c:/px4/workspace/PX4Firmware/Build/px4io-v2_default.build/nuttx-export/libs\libnuttx.a(cxx-libxx_eabi_atexit.o)
 .debug_aranges
                0x00000d90       0x20 c:/px4/workspace/PX4Firmware/Build/px4io-v2_default.build/nuttx-export/libs\libnuttx.a(cxx-libxx_new.o)
 .debug_aranges
                0x00000db0       0x20 c:/px4/workspace/PX4Firmware/Build/px4io-v2_default.build/nuttx-export/libs\libnuttx.a(fs-fs_ioctl.o)
 .debug_aranges
                0x00000dd0       0x28 c:/px4/workspace/PX4Firmware/Build/px4io-v2_default.build/nuttx-export/libs\libnuttx.a(fs-fs_open.o)
 .debug_aranges
                0x00000df8       0x20 c:/px4/workspace/PX4Firmware/Build/px4io-v2_default.build/nuttx-export/libs\libnuttx.a(fs-fs_read.o)
 .debug_aranges
                0x00000e18       0x20 c:/px4/workspace/PX4Firmware/Build/px4io-v2_default.build/nuttx-export/libs\libnuttx.a(fs-fs_write.o)
 .debug_aranges
                0x00000e38       0x68 c:/px4/workspace/PX4Firmware/Build/px4io-v2_default.build/nuttx-export/libs\libnuttx.a(drivers-serial.o)
 .debug_aranges
                0x00000ea0       0x28 c:/px4/workspace/PX4Firmware/Build/px4io-v2_default.build/nuttx-export/libs\libnuttx.a(drivers-serialirq.o)
 .debug_aranges
                0x00000ec8       0x20 c:/px4/workspace/PX4Firmware/Build/px4io-v2_default.build/nuttx-export/libs\libnuttx.a(sched-errno_getptr.o)
 .debug_aranges
                0x00000ee8       0x20 c:/px4/workspace/PX4Firmware/Build/px4io-v2_default.build/nuttx-export/libs\libnuttx.a(sched-exit.o)
 .debug_aranges
                0x00000f08       0x20 c:/px4/workspace/PX4Firmware/Build/px4io-v2_default.build/nuttx-export/libs\libnuttx.a(sched-getpid.o)
 .debug_aranges
                0x00000f28       0x20 c:/px4/workspace/PX4Firmware/Build/px4io-v2_default.build/nuttx-export/libs\libnuttx.a(sched-os_start.o)
 .debug_aranges
                0x00000f48       0x20 c:/px4/workspace/PX4Firmware/Build/px4io-v2_default.build/nuttx-export/libs\libnuttx.a(sched-sched_garbage.o)
 .debug_aranges
                0x00000f68       0x20 c:/px4/workspace/PX4Firmware/Build/px4io-v2_default.build/nuttx-export/libs\libnuttx.a(sched-sched_getfiles.o)
 .debug_aranges
                0x00000f88       0x20 c:/px4/workspace/PX4Firmware/Build/px4io-v2_default.build/nuttx-export/libs\libnuttx.a(sched-sem_post.o)
 .debug_aranges
                0x00000fa8       0x20 c:/px4/workspace/PX4Firmware/Build/px4io-v2_default.build/nuttx-export/libs\libnuttx.a(sched-sem_trywait.o)
 .debug_aranges
                0x00000fc8       0x20 c:/px4/workspace/PX4Firmware/Build/px4io-v2_default.build/nuttx-export/libs\libnuttx.a(sched-sem_wait.o)
 .debug_aranges
                0x00000fe8       0x20 c:/px4/workspace/PX4Firmware/Build/px4io-v2_default.build/nuttx-export/libs\libnuttx.a(sched-task_exithook.o)
 .debug_aranges
                0x00001008       0x20 c:/px4/workspace/PX4Firmware/Build/px4io-v2_default.build/nuttx-export/libs\libnuttx.a(sched-task_recover.o)
 .debug_aranges
                0x00001028       0x20 c:/px4/workspace/PX4Firmware/Build/px4io-v2_default.build/nuttx-export/libs\libnuttx.a(sched-wd_cancel.o)
 .debug_aranges
                0x00001048       0x20 c:/px4/workspace/PX4Firmware/Build/px4io-v2_default.build/nuttx-export/libs\libnuttx.a(sched-wd_delete.o)
 .debug_aranges
                0x00001068       0x20 c:/px4/workspace/PX4Firmware/Build/px4io-v2_default.build/nuttx-export/libs\libnuttx.a(sched-wd_initialize.o)
 .debug_aranges
                0x00001088       0x20 c:/px4/workspace/PX4Firmware/Build/px4io-v2_default.build/nuttx-export/libs\libnuttx.a(c-dq_addfirst.o)
 .debug_aranges
                0x000010a8       0x20 c:/px4/workspace/PX4Firmware/Build/px4io-v2_default.build/nuttx-export/libs\libnuttx.a(c-lib_cfgetspeed.o)
 .debug_aranges
                0x000010c8       0x20 c:/px4/workspace/PX4Firmware/Build/px4io-v2_default.build/nuttx-export/libs\libnuttx.a(c-lib_checkbase.o)
 .debug_aranges
                0x000010e8       0x20 c:/px4/workspace/PX4Firmware/Build/px4io-v2_default.build/nuttx-export/libs\libnuttx.a(c-lib_isbasedigit.o)
 .debug_aranges
                0x00001108       0x80 c:/px4/workspace/PX4Firmware/Build/px4io-v2_default.build/nuttx-export/libs\libnuttx.a(c-lib_libvsprintf.o)
 .debug_aranges
                0x00001188       0x28 c:/px4/workspace/PX4Firmware/Build/px4io-v2_default.build/nuttx-export/libs\libnuttx.a(c-lib_lowoutstream.o)
 .debug_aranges
                0x000011b0       0x28 c:/px4/workspace/PX4Firmware/Build/px4io-v2_default.build/nuttx-export/libs\libnuttx.a(c-lib_memoutstream.o)
 .debug_aranges
                0x000011d8       0x28 c:/px4/workspace/PX4Firmware/Build/px4io-v2_default.build/nuttx-export/libs\libnuttx.a(c-lib_nulloutstream.o)
 .debug_aranges
                0x00001200       0x28 c:/px4/workspace/PX4Firmware/Build/px4io-v2_default.build/nuttx-export/libs\libnuttx.a(c-lib_rawoutstream.o)
 .debug_aranges
                0x00001228       0x20 c:/px4/workspace/PX4Firmware/Build/px4io-v2_default.build/nuttx-export/libs\libnuttx.a(c-lib_skipspace.o)
 .debug_aranges
                0x00001248       0x20 c:/px4/workspace/PX4Firmware/Build/px4io-v2_default.build/nuttx-export/libs\libnuttx.a(c-lib_strcpy.o)
 .debug_aranges
                0x00001268       0x20 c:/px4/workspace/PX4Firmware/Build/px4io-v2_default.build/nuttx-export/libs\libnuttx.a(c-lib_strlen.o)
 .debug_aranges
                0x00001288       0x20 c:/px4/workspace/PX4Firmware/Build/px4io-v2_default.build/nuttx-export/libs\libnuttx.a(c-sem_init.o)
 .debug_aranges
                0x000012a8       0x20 c:/px4/workspace/PX4Firmware/Build/px4io-v2_default.build/nuttx-export/libs\libnuttx.a(c-sq_remfirst.o)
 .debug_aranges
                0x000012c8       0x20 c:/px4/workspace/PX4Firmware/Build/px4io-v2_default.build/nuttx-export/libs\libnuttx.a(mm-mm_addfreechunk.o)
 .debug_aranges
                0x000012e8       0x28 c:/px4/workspace/PX4Firmware/Build/px4io-v2_default.build/nuttx-export/libs\libnuttx.a(mm-mm_initialize.o)
 .debug_aranges
                0x00001310       0x20 c:/px4/workspace/PX4Firmware/Build/px4io-v2_default.build/nuttx-export/libs\libnuttx.a(arch-stm32_allocateheap.o)
 .debug_aranges
                0x00001330       0x20 c:/px4/workspace/PX4Firmware/Build/px4io-v2_default.build/nuttx-export/libs\libnuttx.a(arch-stm32_idle.o)
 .debug_aranges
                0x00001350       0x28 c:/px4/workspace/PX4Firmware/Build/px4io-v2_default.build/nuttx-export/libs\libnuttx.a(arch-stm32_lowputc.o)
 .debug_aranges
                0x00001378       0x20 c:/px4/workspace/PX4Firmware/Build/px4io-v2_default.build/nuttx-export/libs\libnuttx.a(arch-stm32_rcc.o)
 .debug_aranges
                0x00001398       0x20 c:/px4/workspace/PX4Firmware/Build/px4io-v2_default.build/nuttx-export/libs\libnuttx.a(arch-up_blocktask.o)
 .debug_aranges
                0x000013b8       0x20 c:/px4/workspace/PX4Firmware/Build/px4io-v2_default.build/nuttx-export/libs\libnuttx.a(arch-up_copystate.o)
 .debug_aranges
                0x000013d8       0x20 c:/px4/workspace/PX4Firmware/Build/px4io-v2_default.build/nuttx-export/libs\libnuttx.a(arch-up_exception.o)
 .debug_aranges
                0x000013f8       0x20 c:/px4/workspace/PX4Firmware/Build/px4io-v2_default.build/nuttx-export/libs\libnuttx.a(arch-up_exit.o)
 .debug_aranges
                0x00001418       0x20 c:/px4/workspace/PX4Firmware/Build/px4io-v2_default.build/nuttx-export/libs\libnuttx.a(arch-up_fullcontextrestore.o)
 .debug_aranges
                0x00001438       0x20 c:/px4/workspace/PX4Firmware/Build/px4io-v2_default.build/nuttx-export/libs\libnuttx.a(arch-up_initialize.o)
 .debug_aranges
                0x00001458       0x20 c:/px4/workspace/PX4Firmware/Build/px4io-v2_default.build/nuttx-export/libs\libnuttx.a(arch-up_initialstate.o)
 .debug_aranges
                0x00001478       0x20 c:/px4/workspace/PX4Firmware/Build/px4io-v2_default.build/nuttx-export/libs\libnuttx.a(arch-up_interruptcontext.o)
 .debug_aranges
                0x00001498       0x20 c:/px4/workspace/PX4Firmware/Build/px4io-v2_default.build/nuttx-export/libs\libnuttx.a(arch-up_mdelay.o)
 .debug_aranges
                0x000014b8       0x20 c:/px4/workspace/PX4Firmware/Build/px4io-v2_default.build/nuttx-export/libs\libnuttx.a(arch-up_switchcontext.o)
 .debug_aranges
                0x000014d8       0x20 c:/px4/workspace/PX4Firmware/Build/px4io-v2_default.build/nuttx-export/libs\libnuttx.a(arch-up_unblocktask.o)
 .debug_aranges
                0x000014f8       0x60 c:/px4/workspace/PX4Firmware/Build/px4io-v2_default.build/nuttx-export/libs\libnuttx.a(fs-fs_files.o)
 .debug_aranges
                0x00001558       0x20 c:/px4/workspace/PX4Firmware/Build/px4io-v2_default.build/nuttx-export/libs\libnuttx.a(fs-fs_inodeaddref.o)
 .debug_aranges
                0x00001578       0x20 c:/px4/workspace/PX4Firmware/Build/px4io-v2_default.build/nuttx-export/libs\libnuttx.a(fs-fs_inodefind.o)
 .debug_aranges
                0x00001598       0x20 c:/px4/workspace/PX4Firmware/Build/px4io-v2_default.build/nuttx-export/libs\libnuttx.a(fs-fs_inoderelease.o)
 .debug_aranges
                0x000015b8       0x20 c:/px4/workspace/PX4Firmware/Build/px4io-v2_default.build/nuttx-export/libs\libnuttx.a(fs-fs_registerdriver.o)
 .debug_aranges
                0x000015d8       0x28 c:/px4/workspace/PX4Firmware/Build/px4io-v2_default.build/nuttx-export/libs\libnuttx.a(sched-group_create.o)
 .debug_aranges
                0x00001600       0x20 c:/px4/workspace/PX4Firmware/Build/px4io-v2_default.build/nuttx-export/libs\libnuttx.a(sched-group_leave.o)
 .debug_aranges
                0x00001620       0x20 c:/px4/workspace/PX4Firmware/Build/px4io-v2_default.build/nuttx-export/libs\libnuttx.a(sched-group_setupidlefiles.o)
 .debug_aranges
                0x00001640       0x20 c:/px4/workspace/PX4Firmware/Build/px4io-v2_default.build/nuttx-export/libs\libnuttx.a(sched-os_bringup.o)
 .debug_aranges
                0x00001660       0x20 c:/px4/workspace/PX4Firmware/Build/px4io-v2_default.build/nuttx-export/libs\libnuttx.a(sched-sched_addblocked.o)
 .debug_aranges
                0x00001680       0x20 c:/px4/workspace/PX4Firmware/Build/px4io-v2_default.build/nuttx-export/libs\libnuttx.a(sched-sched_addprioritized.o)
 .debug_aranges
                0x000016a0       0x20 c:/px4/workspace/PX4Firmware/Build/px4io-v2_default.build/nuttx-export/libs\libnuttx.a(sched-sched_addreadytorun.o)
 .debug_aranges
                0x000016c0       0x20 c:/px4/workspace/PX4Firmware/Build/px4io-v2_default.build/nuttx-export/libs\libnuttx.a(sched-sched_free.o)
 .debug_aranges
                0x000016e0       0x20 c:/px4/workspace/PX4Firmware/Build/px4io-v2_default.build/nuttx-export/libs\libnuttx.a(sched-sched_mergepending.o)
 .debug_aranges
                0x00001700       0x20 c:/px4/workspace/PX4Firmware/Build/px4io-v2_default.build/nuttx-export/libs\libnuttx.a(sched-sched_removeblocked.o)
 .debug_aranges
                0x00001720       0x20 c:/px4/workspace/PX4Firmware/Build/px4io-v2_default.build/nuttx-export/libs\libnuttx.a(sched-sched_removereadytorun.o)
 .debug_aranges
                0x00001740       0x20 c:/px4/workspace/PX4Firmware/Build/px4io-v2_default.build/nuttx-export/libs\libnuttx.a(sched-sem_destroy.o)
 .debug_aranges
                0x00001760       0x30 c:/px4/workspace/PX4Firmware/Build/px4io-v2_default.build/nuttx-export/libs\libnuttx.a(sched-task_create.o)
 .debug_aranges
                0x00001790       0x20 c:/px4/workspace/PX4Firmware/Build/px4io-v2_default.build/nuttx-export/libs\libnuttx.a(sched-task_exit.o)
 .debug_aranges
                0x000017b0       0x28 c:/px4/workspace/PX4Firmware/Build/px4io-v2_default.build/nuttx-export/libs\libnuttx.a(sched-task_setup.o)
 .debug_aranges
                0x000017d8       0x20 c:/px4/workspace/PX4Firmware/Build/px4io-v2_default.build/nuttx-export/libs\libnuttx.a(sched-task_start.o)
 .debug_aranges
                0x000017f8       0x20 c:/px4/workspace/PX4Firmware/Build/px4io-v2_default.build/nuttx-export/libs\libnuttx.a(sched-task_terminate.o)
 .debug_aranges
                0x00001818       0x20 c:/px4/workspace/PX4Firmware/Build/px4io-v2_default.build/nuttx-export/libs\libnuttx.a(c-dq_addlast.o)
 .debug_aranges
                0x00001838       0x20 c:/px4/workspace/PX4Firmware/Build/px4io-v2_default.build/nuttx-export/libs\libnuttx.a(c-dq_rem.o)
 .debug_aranges
                0x00001858       0x20 c:/px4/workspace/PX4Firmware/Build/px4io-v2_default.build/nuttx-export/libs\libnuttx.a(c-lib_strdup.o)
 .debug_aranges
                0x00001878       0x28 c:/px4/workspace/PX4Firmware/Build/px4io-v2_default.build/nuttx-export/libs\libnuttx.a(arch-stm32_timerisr.o)
 .debug_aranges
                0x000018a0       0x20 c:/px4/workspace/PX4Firmware/Build/px4io-v2_default.build/nuttx-export/libs\libnuttx.a(arch-up_createstack.o)
 .debug_aranges
                0x000018c0       0x20 c:/px4/workspace/PX4Firmware/Build/px4io-v2_default.build/nuttx-export/libs\libnuttx.a(arch-up_doirq.o)
 .debug_aranges
                0x000018e0       0x20 c:/px4/workspace/PX4Firmware/Build/px4io-v2_default.build/nuttx-export/libs\libnuttx.a(arch-up_releasestack.o)
 .debug_aranges
                0x00001900       0x20 c:/px4/workspace/PX4Firmware/Build/px4io-v2_default.build/nuttx-export/libs\libnuttx.a(fs-fs_close.o)
 .debug_aranges
                0x00001920       0x20 c:/px4/workspace/PX4Firmware/Build/px4io-v2_default.build/nuttx-export/libs\libnuttx.a(fs-fs_filedup2.o)
 .debug_aranges
                0x00001940       0x48 c:/px4/workspace/PX4Firmware/Build/px4io-v2_default.build/nuttx-export/libs\libnuttx.a(fs-fs_inode.o)
 .debug_aranges
                0x00001988       0x28 c:/px4/workspace/PX4Firmware/Build/px4io-v2_default.build/nuttx-export/libs\libnuttx.a(fs-fs_inodereserve.o)
 .debug_aranges
                0x000019b0       0x20 c:/px4/workspace/PX4Firmware/Build/px4io-v2_default.build/nuttx-export/libs\libnuttx.a(sched-group_setuptaskfiles.o)
 .debug_aranges
                0x000019d0       0x20 c:/px4/workspace/PX4Firmware/Build/px4io-v2_default.build/nuttx-export/libs\libnuttx.a(sched-irq_dispatch.o)
 .debug_aranges
                0x000019f0       0x20 c:/px4/workspace/PX4Firmware/Build/px4io-v2_default.build/nuttx-export/libs\libnuttx.a(sched-sched_gettcb.o)
 .debug_aranges
                0x00001a10       0x20 c:/px4/workspace/PX4Firmware/Build/px4io-v2_default.build/nuttx-export/libs\libnuttx.a(sched-sched_lock.o)
 .debug_aranges
                0x00001a30       0x20 c:/px4/workspace/PX4Firmware/Build/px4io-v2_default.build/nuttx-export/libs\libnuttx.a(sched-sched_processtimer.o)
 .debug_aranges
                0x00001a50       0x20 c:/px4/workspace/PX4Firmware/Build/px4io-v2_default.build/nuttx-export/libs\libnuttx.a(sched-sched_releasetcb.o)
 .debug_aranges
                0x00001a70       0x20 c:/px4/workspace/PX4Firmware/Build/px4io-v2_default.build/nuttx-export/libs\libnuttx.a(sched-sched_unlock.o)
 .debug_aranges
                0x00001a90       0x20 c:/px4/workspace/PX4Firmware/Build/px4io-v2_default.build/nuttx-export/libs\libnuttx.a(sched-task_activate.o)
 .debug_aranges
                0x00001ab0       0x20 c:/px4/workspace/PX4Firmware/Build/px4io-v2_default.build/nuttx-export/libs\libnuttx.a(arch-up_releasepending.o)
START GROUP
LOAD c:/px4/workspace/PX4Firmware/Build/px4io-v2_default.build/c/px4/workspace/PX4Firmware/Build/px4io-v2_default.build/empty.c.o
LOAD c:/px4/workspace/PX4Firmware/Build/px4io-v2_default.build/c/px4/workspace/PX4Firmware/src/drivers/boards/px4io-v2/module.pre.o
LOAD c:/px4/workspace/PX4Firmware/Build/px4io-v2_default.build/c/px4/workspace/PX4Firmware/src/drivers/stm32/module.pre.o
LOAD c:/px4/workspace/PX4Firmware/Build/px4io-v2_default.build/c/px4/workspace/PX4Firmware/src/modules/px4iofirmware/module.pre.o
LOAD c:/px4/workspace/PX4Firmware/Build/px4io-v2_default.build/nuttx-export/libs\libapps.a
LOAD c:/px4/workspace/PX4Firmware/Build/px4io-v2_default.build/nuttx-export/libs\libnuttx.a
LOAD c:/px4/toolchain/bin/../lib/gcc/arm-none-eabi/4.6.2/../../../../arm-none-eabi/lib/armv7-m/libm.a
LOAD c:/px4/toolchain/bin/../lib/gcc/arm-none-eabi/4.6.2/armv7-m/libgcc.a
END GROUP
OUTPUT(c:/px4/workspace/PX4Firmware/Build/px4io-v2_default.build/firmware.elf elf32-littlearm)

.debug_frame    0x00000000     0x2ea4
 .debug_frame   0x00000000       0x28 c:/px4/workspace/PX4Firmware/Build/px4io-v2_default.build/c/px4/workspace/PX4Firmware/src/drivers/boards/px4io-v2/module.pre.o
 .debug_frame   0x00000028      0x27c c:/px4/workspace/PX4Firmware/Build/px4io-v2_default.build/c/px4/workspace/PX4Firmware/src/drivers/stm32/module.pre.o
 .debug_frame   0x000002a4      0xb08 c:/px4/workspace/PX4Firmware/Build/px4io-v2_default.build/c/px4/workspace/PX4Firmware/src/modules/px4iofirmware/module.pre.o
 .debug_frame   0x00000dac       0x2c c:/px4/workspace/PX4Firmware/Build/px4io-v2_default.build/nuttx-export/libs\libnuttx.a(sched-irq_attach.o)
 .debug_frame   0x00000dd8       0x20 c:/px4/workspace/PX4Firmware/Build/px4io-v2_default.build/nuttx-export/libs\libnuttx.a(sched-irq_initialize.o)
 .debug_frame   0x00000df8       0x28 c:/px4/workspace/PX4Firmware/Build/px4io-v2_default.build/nuttx-export/libs\libnuttx.a(sched-irq_unexpectedisr.o)
 .debug_frame   0x00000e20       0x28 c:/px4/workspace/PX4Firmware/Build/px4io-v2_default.build/nuttx-export/libs\libnuttx.a(c-lib_abort.o)
 .debug_frame   0x00000e48       0x20 c:/px4/workspace/PX4Firmware/Build/px4io-v2_default.build/nuttx-export/libs\libnuttx.a(c-lib_cfsetspeed.o)
 .debug_frame   0x00000e68       0x3c c:/px4/workspace/PX4Firmware/Build/px4io-v2_default.build/nuttx-export/libs\libnuttx.a(c-lib_crc32.o)
 .debug_frame   0x00000ea4       0x58 c:/px4/workspace/PX4Firmware/Build/px4io-v2_default.build/nuttx-export/libs\libnuttx.a(c-lib_lowsyslog.o)
 .debug_frame   0x00000efc       0x28 c:/px4/workspace/PX4Firmware/Build/px4io-v2_default.build/nuttx-export/libs\libnuttx.a(c-lib_memchr.o)
 .debug_frame   0x00000f24       0x28 c:/px4/workspace/PX4Firmware/Build/px4io-v2_default.build/nuttx-export/libs\libnuttx.a(c-lib_memcpy.o)
 .debug_frame   0x00000f4c       0x20 c:/px4/workspace/PX4Firmware/Build/px4io-v2_default.build/nuttx-export/libs\libnuttx.a(c-lib_memset.o)
 .debug_frame   0x00000f6c       0x38 c:/px4/workspace/PX4Firmware/Build/px4io-v2_default.build/nuttx-export/libs\libnuttx.a(c-lib_printf.o)
 .debug_frame   0x00000fa4       0x78 c:/px4/workspace/PX4Firmware/Build/px4io-v2_default.build/nuttx-export/libs\libnuttx.a(c-lib_sscanf.o)
 .debug_frame   0x0000101c       0x20 c:/px4/workspace/PX4Firmware/Build/px4io-v2_default.build/nuttx-export/libs\libnuttx.a(c-lib_strchr.o)
 .debug_frame   0x0000103c       0x20 c:/px4/workspace/PX4Firmware/Build/px4io-v2_default.build/nuttx-export/libs\libnuttx.a(c-lib_strcmp.o)
 .debug_frame   0x0000105c       0x2c c:/px4/workspace/PX4Firmware/Build/px4io-v2_default.build/nuttx-export/libs\libnuttx.a(c-lib_strcspn.o)
 .debug_frame   0x00001088       0x2c c:/px4/workspace/PX4Firmware/Build/px4io-v2_default.build/nuttx-export/libs\libnuttx.a(c-lib_strncpy.o)
 .debug_frame   0x000010b4       0x30 c:/px4/workspace/PX4Firmware/Build/px4io-v2_default.build/nuttx-export/libs\libnuttx.a(c-lib_strtol.o)
 .debug_frame   0x000010e4       0x34 c:/px4/workspace/PX4Firmware/Build/px4io-v2_default.build/nuttx-export/libs\libnuttx.a(c-lib_strtoul.o)
 .debug_frame   0x00001118       0x54 c:/px4/workspace/PX4Firmware/Build/px4io-v2_default.build/nuttx-export/libs\libnuttx.a(c-lib_syslog.o)
 .debug_frame   0x0000116c       0x20 c:/px4/workspace/PX4Firmware/Build/px4io-v2_default.build/nuttx-export/libs\libnuttx.a(c-lib_tcgetattr.o)
 .debug_frame   0x0000118c       0x20 c:/px4/workspace/PX4Firmware/Build/px4io-v2_default.build/nuttx-export/libs\libnuttx.a(c-lib_tcsetattr.o)
 .debug_frame   0x000011ac       0x30 c:/px4/workspace/PX4Firmware/Build/px4io-v2_default.build/nuttx-export/libs\libnuttx.a(c-lib_vsnprintf.o)
 .debug_frame   0x000011dc       0x20 c:/px4/workspace/PX4Firmware/Build/px4io-v2_default.build/nuttx-export/libs\libnuttx.a(c-sq_addafter.o)
 .debug_frame   0x000011fc       0x20 c:/px4/workspace/PX4Firmware/Build/px4io-v2_default.build/nuttx-export/libs\libnuttx.a(c-sq_addfirst.o)
 .debug_frame   0x0000121c       0x20 c:/px4/workspace/PX4Firmware/Build/px4io-v2_default.build/nuttx-export/libs\libnuttx.a(c-sq_addlast.o)
 .debug_frame   0x0000123c       0x20 c:/px4/workspace/PX4Firmware/Build/px4io-v2_default.build/nuttx-export/libs\libnuttx.a(c-sq_rem.o)
 .debug_frame   0x0000125c       0x20 c:/px4/workspace/PX4Firmware/Build/px4io-v2_default.build/nuttx-export/libs\libnuttx.a(c-sq_remafter.o)
 .debug_frame   0x0000127c       0x20 c:/px4/workspace/PX4Firmware/Build/px4io-v2_default.build/nuttx-export/libs\libnuttx.a(mm-mm_calloc.o)
 .debug_frame   0x0000129c       0x2c c:/px4/workspace/PX4Firmware/Build/px4io-v2_default.build/nuttx-export/libs\libnuttx.a(mm-mm_free.o)
 .debug_frame   0x000012c8       0x34 c:/px4/workspace/PX4Firmware/Build/px4io-v2_default.build/nuttx-export/libs\libnuttx.a(mm-mm_mallinfo.o)
 .debug_frame   0x000012fc       0x2c c:/px4/workspace/PX4Firmware/Build/px4io-v2_default.build/nuttx-export/libs\libnuttx.a(mm-mm_malloc.o)
 .debug_frame   0x00001328       0x78 c:/px4/workspace/PX4Firmware/Build/px4io-v2_default.build/nuttx-export/libs\libnuttx.a(mm-mm_sem.o)
 .debug_frame   0x000013a0       0x20 c:/px4/workspace/PX4Firmware/Build/px4io-v2_default.build/nuttx-export/libs\libnuttx.a(mm-mm_size2ndx.o)
 .debug_frame   0x000013c0       0x50 c:/px4/workspace/PX4Firmware/Build/px4io-v2_default.build/nuttx-export/libs\libnuttx.a(mm-mm_user.o)
 .debug_frame   0x00001410       0x2c c:/px4/workspace/PX4Firmware/Build/px4io-v2_default.build/nuttx-export/libs\libnuttx.a(mm-mm_zalloc.o)
 .debug_frame   0x0000143c       0xcc c:/px4/workspace/PX4Firmware/Build/px4io-v2_default.build/nuttx-export/libs\libnuttx.a(arch-stm32_dma.o)
 .debug_frame   0x00001508       0x78 c:/px4/workspace/PX4Firmware/Build/px4io-v2_default.build/nuttx-export/libs\libnuttx.a(arch-stm32_gpio.o)
 .debug_frame   0x00001580       0x98 c:/px4/workspace/PX4Firmware/Build/px4io-v2_default.build/nuttx-export/libs\libnuttx.a(arch-stm32_irq.o)
 .debug_frame   0x00001618      0x2a4 c:/px4/workspace/PX4Firmware/Build/px4io-v2_default.build/nuttx-export/libs\libnuttx.a(arch-stm32_serial.o)
 .debug_frame   0x000018bc       0x28 c:/px4/workspace/PX4Firmware/Build/px4io-v2_default.build/nuttx-export/libs\libnuttx.a(arch-stm32_start.o)
 .debug_frame   0x000018e4       0x34 c:/px4/workspace/PX4Firmware/Build/px4io-v2_default.build/nuttx-export/libs\libnuttx.a(arch-up_assert.o)
 .debug_frame   0x00001918       0x28 c:/px4/workspace/PX4Firmware/Build/px4io-v2_default.build/nuttx-export/libs\libnuttx.a(arch-up_hardfault.o)
 .debug_frame   0x00001940       0x28 c:/px4/workspace/PX4Firmware/Build/px4io-v2_default.build/nuttx-export/libs\libnuttx.a(arch-up_modifyreg32.o)
 .debug_frame   0x00001968       0x28 c:/px4/workspace/PX4Firmware/Build/px4io-v2_default.build/nuttx-export/libs\libnuttx.a(arch-up_svcall.o)
 .debug_frame   0x00001990       0x20 c:/px4/workspace/PX4Firmware/Build/px4io-v2_default.build/nuttx-export/libs\libnuttx.a(arch-up_systemreset.o)
 .debug_frame   0x000019b0       0x24 c:/px4/workspace/PX4Firmware/Build/px4io-v2_default.build/nuttx-export/libs\libnuttx.a(arch-up_udelay.o)
 .debug_frame   0x000019d4       0x20 c:/px4/workspace/PX4Firmware/Build/px4io-v2_default.build/nuttx-export/libs\libnuttx.a(cxx-libxx_cxa_atexit.o)
 .debug_frame   0x000019f4       0x28 c:/px4/workspace/PX4Firmware/Build/px4io-v2_default.build/nuttx-export/libs\libnuttx.a(cxx-libxx_cxapurevirtual.o)
 .debug_frame   0x00001a1c       0x20 c:/px4/workspace/PX4Firmware/Build/px4io-v2_default.build/nuttx-export/libs\libnuttx.a(cxx-libxx_delete.o)
 .debug_frame   0x00001a3c       0x20 c:/px4/workspace/PX4Firmware/Build/px4io-v2_default.build/nuttx-export/libs\libnuttx.a(cxx-libxx_eabi_atexit.o)
 .debug_frame   0x00001a5c       0x20 c:/px4/workspace/PX4Firmware/Build/px4io-v2_default.build/nuttx-export/libs\libnuttx.a(cxx-libxx_new.o)
 .debug_frame   0x00001a7c       0x2c c:/px4/workspace/PX4Firmware/Build/px4io-v2_default.build/nuttx-export/libs\libnuttx.a(fs-fs_ioctl.o)
 .debug_frame   0x00001aa8       0x4c c:/px4/workspace/PX4Firmware/Build/px4io-v2_default.build/nuttx-export/libs\libnuttx.a(fs-fs_open.o)
 .debug_frame   0x00001af4       0x2c c:/px4/workspace/PX4Firmware/Build/px4io-v2_default.build/nuttx-export/libs\libnuttx.a(fs-fs_read.o)
 .debug_frame   0x00001b20       0x2c c:/px4/workspace/PX4Firmware/Build/px4io-v2_default.build/nuttx-export/libs\libnuttx.a(fs-fs_write.o)
 .debug_frame   0x00001b4c      0x138 c:/px4/workspace/PX4Firmware/Build/px4io-v2_default.build/nuttx-export/libs\libnuttx.a(drivers-serial.o)
 .debug_frame   0x00001c84       0x4c c:/px4/workspace/PX4Firmware/Build/px4io-v2_default.build/nuttx-export/libs\libnuttx.a(drivers-serialirq.o)
 .debug_frame   0x00001cd0       0x28 c:/px4/workspace/PX4Firmware/Build/px4io-v2_default.build/nuttx-export/libs\libnuttx.a(sched-errno_getptr.o)
 .debug_frame   0x00001cf8       0x28 c:/px4/workspace/PX4Firmware/Build/px4io-v2_default.build/nuttx-export/libs\libnuttx.a(sched-exit.o)
 .debug_frame   0x00001d20       0x20 c:/px4/workspace/PX4Firmware/Build/px4io-v2_default.build/nuttx-export/libs\libnuttx.a(sched-getpid.o)
 .debug_frame   0x00001d40       0x30 c:/px4/workspace/PX4Firmware/Build/px4io-v2_default.build/nuttx-export/libs\libnuttx.a(sched-os_start.o)
 .debug_frame   0x00001d70       0x2c c:/px4/workspace/PX4Firmware/Build/px4io-v2_default.build/nuttx-export/libs\libnuttx.a(sched-sched_garbage.o)
 .debug_frame   0x00001d9c       0x20 c:/px4/workspace/PX4Firmware/Build/px4io-v2_default.build/nuttx-export/libs\libnuttx.a(sched-sched_getfiles.o)
 .debug_frame   0x00001dbc       0x28 c:/px4/workspace/PX4Firmware/Build/px4io-v2_default.build/nuttx-export/libs\libnuttx.a(sched-sem_post.o)
 .debug_frame   0x00001de4       0x2c c:/px4/workspace/PX4Firmware/Build/px4io-v2_default.build/nuttx-export/libs\libnuttx.a(sched-sem_trywait.o)
 .debug_frame   0x00001e10       0x30 c:/px4/workspace/PX4Firmware/Build/px4io-v2_default.build/nuttx-export/libs\libnuttx.a(sched-sem_wait.o)
 .debug_frame   0x00001e40       0x28 c:/px4/workspace/PX4Firmware/Build/px4io-v2_default.build/nuttx-export/libs\libnuttx.a(sched-task_exithook.o)
 .debug_frame   0x00001e68       0x2c c:/px4/workspace/PX4Firmware/Build/px4io-v2_default.build/nuttx-export/libs\libnuttx.a(sched-task_recover.o)
 .debug_frame   0x00001e94       0x2c c:/px4/workspace/PX4Firmware/Build/px4io-v2_default.build/nuttx-export/libs\libnuttx.a(sched-wd_cancel.o)
 .debug_frame   0x00001ec0       0x2c c:/px4/workspace/PX4Firmware/Build/px4io-v2_default.build/nuttx-export/libs\libnuttx.a(sched-wd_delete.o)
 .debug_frame   0x00001eec       0x2c c:/px4/workspace/PX4Firmware/Build/px4io-v2_default.build/nuttx-export/libs\libnuttx.a(sched-wd_initialize.o)
 .debug_frame   0x00001f18       0x20 c:/px4/workspace/PX4Firmware/Build/px4io-v2_default.build/nuttx-export/libs\libnuttx.a(c-dq_addfirst.o)
 .debug_frame   0x00001f38       0x20 c:/px4/workspace/PX4Firmware/Build/px4io-v2_default.build/nuttx-export/libs\libnuttx.a(c-lib_cfgetspeed.o)
 .debug_frame   0x00001f58       0x2c c:/px4/workspace/PX4Firmware/Build/px4io-v2_default.build/nuttx-export/libs\libnuttx.a(c-lib_checkbase.o)
 .debug_frame   0x00001f84       0x20 c:/px4/workspace/PX4Firmware/Build/px4io-v2_default.build/nuttx-export/libs\libnuttx.a(c-lib_isbasedigit.o)
 .debug_frame   0x00001fa4      0x1a4 c:/px4/workspace/PX4Firmware/Build/px4io-v2_default.build/nuttx-export/libs\libnuttx.a(c-lib_libvsprintf.o)
 .debug_frame   0x00002148       0x38 c:/px4/workspace/PX4Firmware/Build/px4io-v2_default.build/nuttx-export/libs\libnuttx.a(c-lib_lowoutstream.o)
 .debug_frame   0x00002180       0x30 c:/px4/workspace/PX4Firmware/Build/px4io-v2_default.build/nuttx-export/libs\libnuttx.a(c-lib_memoutstream.o)
 .debug_frame   0x000021b0       0x30 c:/px4/workspace/PX4Firmware/Build/px4io-v2_default.build/nuttx-export/libs\libnuttx.a(c-lib_nulloutstream.o)
 .debug_frame   0x000021e0       0x40 c:/px4/workspace/PX4Firmware/Build/px4io-v2_default.build/nuttx-export/libs\libnuttx.a(c-lib_rawoutstream.o)
 .debug_frame   0x00002220       0x20 c:/px4/workspace/PX4Firmware/Build/px4io-v2_default.build/nuttx-export/libs\libnuttx.a(c-lib_skipspace.o)
 .debug_frame   0x00002240       0x20 c:/px4/workspace/PX4Firmware/Build/px4io-v2_default.build/nuttx-export/libs\libnuttx.a(c-lib_strcpy.o)
 .debug_frame   0x00002260       0x20 c:/px4/workspace/PX4Firmware/Build/px4io-v2_default.build/nuttx-export/libs\libnuttx.a(c-lib_strlen.o)
 .debug_frame   0x00002280       0x28 c:/px4/workspace/PX4Firmware/Build/px4io-v2_default.build/nuttx-export/libs\libnuttx.a(c-sem_init.o)
 .debug_frame   0x000022a8       0x20 c:/px4/workspace/PX4Firmware/Build/px4io-v2_default.build/nuttx-export/libs\libnuttx.a(c-sq_remfirst.o)
 .debug_frame   0x000022c8       0x2c c:/px4/workspace/PX4Firmware/Build/px4io-v2_default.build/nuttx-export/libs\libnuttx.a(mm-mm_addfreechunk.o)
 .debug_frame   0x000022f4       0x4c c:/px4/workspace/PX4Firmware/Build/px4io-v2_default.build/nuttx-export/libs\libnuttx.a(mm-mm_initialize.o)
 .debug_frame   0x00002340       0x20 c:/px4/workspace/PX4Firmware/Build/px4io-v2_default.build/nuttx-export/libs\libnuttx.a(arch-stm32_allocateheap.o)
 .debug_frame   0x00002360       0x20 c:/px4/workspace/PX4Firmware/Build/px4io-v2_default.build/nuttx-export/libs\libnuttx.a(arch-stm32_idle.o)
 .debug_frame   0x00002380       0x38 c:/px4/workspace/PX4Firmware/Build/px4io-v2_default.build/nuttx-export/libs\libnuttx.a(arch-stm32_lowputc.o)
 .debug_frame   0x000023b8       0x2c c:/px4/workspace/PX4Firmware/Build/px4io-v2_default.build/nuttx-export/libs\libnuttx.a(arch-stm32_rcc.o)
 .debug_frame   0x000023e4       0x30 c:/px4/workspace/PX4Firmware/Build/px4io-v2_default.build/nuttx-export/libs\libnuttx.a(arch-up_blocktask.o)
 .debug_frame   0x00002414       0x20 c:/px4/workspace/PX4Firmware/Build/px4io-v2_default.build/nuttx-export/libs\libnuttx.a(arch-up_copystate.o)
 .debug_frame   0x00002434       0x28 c:/px4/workspace/PX4Firmware/Build/px4io-v2_default.build/nuttx-export/libs\libnuttx.a(arch-up_exit.o)
 .debug_frame   0x0000245c       0x28 c:/px4/workspace/PX4Firmware/Build/px4io-v2_default.build/nuttx-export/libs\libnuttx.a(arch-up_initialize.o)
 .debug_frame   0x00002484       0x28 c:/px4/workspace/PX4Firmware/Build/px4io-v2_default.build/nuttx-export/libs\libnuttx.a(arch-up_initialstate.o)
 .debug_frame   0x000024ac       0x20 c:/px4/workspace/PX4Firmware/Build/px4io-v2_default.build/nuttx-export/libs\libnuttx.a(arch-up_interruptcontext.o)
 .debug_frame   0x000024cc       0x24 c:/px4/workspace/PX4Firmware/Build/px4io-v2_default.build/nuttx-export/libs\libnuttx.a(arch-up_mdelay.o)
 .debug_frame   0x000024f0       0x2c c:/px4/workspace/PX4Firmware/Build/px4io-v2_default.build/nuttx-export/libs\libnuttx.a(arch-up_unblocktask.o)
 .debug_frame   0x0000251c       0xf8 c:/px4/workspace/PX4Firmware/Build/px4io-v2_default.build/nuttx-export/libs\libnuttx.a(fs-fs_files.o)
 .debug_frame   0x00002614       0x28 c:/px4/workspace/PX4Firmware/Build/px4io-v2_default.build/nuttx-export/libs\libnuttx.a(fs-fs_inodeaddref.o)
 .debug_frame   0x0000263c       0x2c c:/px4/workspace/PX4Firmware/Build/px4io-v2_default.build/nuttx-export/libs\libnuttx.a(fs-fs_inodefind.o)
 .debug_frame   0x00002668       0x28 c:/px4/workspace/PX4Firmware/Build/px4io-v2_default.build/nuttx-export/libs\libnuttx.a(fs-fs_inoderelease.o)
 .debug_frame   0x00002690       0x30 c:/px4/workspace/PX4Firmware/Build/px4io-v2_default.build/nuttx-export/libs\libnuttx.a(fs-fs_registerdriver.o)
 .debug_frame   0x000026c0       0x38 c:/px4/workspace/PX4Firmware/Build/px4io-v2_default.build/nuttx-export/libs\libnuttx.a(sched-group_create.o)
 .debug_frame   0x000026f8       0x2c c:/px4/workspace/PX4Firmware/Build/px4io-v2_default.build/nuttx-export/libs\libnuttx.a(sched-group_leave.o)
 .debug_frame   0x00002724       0x28 c:/px4/workspace/PX4Firmware/Build/px4io-v2_default.build/nuttx-export/libs\libnuttx.a(sched-group_setupidlefiles.o)
 .debug_frame   0x0000274c       0x2c c:/px4/workspace/PX4Firmware/Build/px4io-v2_default.build/nuttx-export/libs\libnuttx.a(sched-os_bringup.o)
 .debug_frame   0x00002778       0x2c c:/px4/workspace/PX4Firmware/Build/px4io-v2_default.build/nuttx-export/libs\libnuttx.a(sched-sched_addblocked.o)
 .debug_frame   0x000027a4       0x28 c:/px4/workspace/PX4Firmware/Build/px4io-v2_default.build/nuttx-export/libs\libnuttx.a(sched-sched_addprioritized.o)
 .debug_frame   0x000027cc       0x2c c:/px4/workspace/PX4Firmware/Build/px4io-v2_default.build/nuttx-export/libs\libnuttx.a(sched-sched_addreadytorun.o)
 .debug_frame   0x000027f8       0x2c c:/px4/workspace/PX4Firmware/Build/px4io-v2_default.build/nuttx-export/libs\libnuttx.a(sched-sched_free.o)
 .debug_frame   0x00002824       0x30 c:/px4/workspace/PX4Firmware/Build/px4io-v2_default.build/nuttx-export/libs\libnuttx.a(sched-sched_mergepending.o)
 .debug_frame   0x00002854       0x28 c:/px4/workspace/PX4Firmware/Build/px4io-v2_default.build/nuttx-export/libs\libnuttx.a(sched-sched_removeblocked.o)
 .debug_frame   0x0000287c       0x2c c:/px4/workspace/PX4Firmware/Build/px4io-v2_default.build/nuttx-export/libs\libnuttx.a(sched-sched_removereadytorun.o)
 .debug_frame   0x000028a8       0x28 c:/px4/workspace/PX4Firmware/Build/px4io-v2_default.build/nuttx-export/libs\libnuttx.a(sched-sem_destroy.o)
 .debug_frame   0x000028d0       0x74 c:/px4/workspace/PX4Firmware/Build/px4io-v2_default.build/nuttx-export/libs\libnuttx.a(sched-task_create.o)
 .debug_frame   0x00002944       0x2c c:/px4/workspace/PX4Firmware/Build/px4io-v2_default.build/nuttx-export/libs\libnuttx.a(sched-task_exit.o)
 .debug_frame   0x00002970       0x54 c:/px4/workspace/PX4Firmware/Build/px4io-v2_default.build/nuttx-export/libs\libnuttx.a(sched-task_setup.o)
 .debug_frame   0x000029c4       0x28 c:/px4/workspace/PX4Firmware/Build/px4io-v2_default.build/nuttx-export/libs\libnuttx.a(sched-task_start.o)
 .debug_frame   0x000029ec       0x2c c:/px4/workspace/PX4Firmware/Build/px4io-v2_default.build/nuttx-export/libs\libnuttx.a(sched-task_terminate.o)
 .debug_frame   0x00002a18       0x20 c:/px4/workspace/PX4Firmware/Build/px4io-v2_default.build/nuttx-export/libs\libnuttx.a(c-dq_addlast.o)
 .debug_frame   0x00002a38       0x20 c:/px4/workspace/PX4Firmware/Build/px4io-v2_default.build/nuttx-export/libs\libnuttx.a(c-dq_rem.o)
 .debug_frame   0x00002a58       0x2c c:/px4/workspace/PX4Firmware/Build/px4io-v2_default.build/nuttx-export/libs\libnuttx.a(c-lib_strdup.o)
 .debug_frame   0x00002a84       0x40 c:/px4/workspace/PX4Firmware/Build/px4io-v2_default.build/nuttx-export/libs\libnuttx.a(arch-stm32_timerisr.o)
 .debug_frame   0x00002ac4       0x2c c:/px4/workspace/PX4Firmware/Build/px4io-v2_default.build/nuttx-export/libs\libnuttx.a(arch-up_createstack.o)
 .debug_frame   0x00002af0       0x30 c:/px4/workspace/PX4Firmware/Build/px4io-v2_default.build/nuttx-export/libs\libnuttx.a(arch-up_doirq.o)
 .debug_frame   0x00002b20       0x28 c:/px4/workspace/PX4Firmware/Build/px4io-v2_default.build/nuttx-export/libs\libnuttx.a(arch-up_releasestack.o)
 .debug_frame   0x00002b48       0x28 c:/px4/workspace/PX4Firmware/Build/px4io-v2_default.build/nuttx-export/libs\libnuttx.a(fs-fs_close.o)
 .debug_frame   0x00002b70       0x2c c:/px4/workspace/PX4Firmware/Build/px4io-v2_default.build/nuttx-export/libs\libnuttx.a(fs-fs_filedup2.o)
 .debug_frame   0x00002b9c       0x9c c:/px4/workspace/PX4Firmware/Build/px4io-v2_default.build/nuttx-export/libs\libnuttx.a(fs-fs_inode.o)
 .debug_frame   0x00002c38       0x48 c:/px4/workspace/PX4Firmware/Build/px4io-v2_default.build/nuttx-export/libs\libnuttx.a(fs-fs_inodereserve.o)
 .debug_frame   0x00002c80       0x28 c:/px4/workspace/PX4Firmware/Build/px4io-v2_default.build/nuttx-export/libs\libnuttx.a(sched-group_setuptaskfiles.o)
 .debug_frame   0x00002ca8       0x28 c:/px4/workspace/PX4Firmware/Build/px4io-v2_default.build/nuttx-export/libs\libnuttx.a(sched-irq_dispatch.o)
 .debug_frame   0x00002cd0       0x20 c:/px4/workspace/PX4Firmware/Build/px4io-v2_default.build/nuttx-export/libs\libnuttx.a(sched-sched_gettcb.o)
 .debug_frame   0x00002cf0       0x28 c:/px4/workspace/PX4Firmware/Build/px4io-v2_default.build/nuttx-export/libs\libnuttx.a(sched-sched_lock.o)
 .debug_frame   0x00002d18       0x28 c:/px4/workspace/PX4Firmware/Build/px4io-v2_default.build/nuttx-export/libs\libnuttx.a(sched-sched_processtimer.o)
 .debug_frame   0x00002d40       0x2c c:/px4/workspace/PX4Firmware/Build/px4io-v2_default.build/nuttx-export/libs\libnuttx.a(sched-sched_releasetcb.o)
 .debug_frame   0x00002d6c       0x2c c:/px4/workspace/PX4Firmware/Build/px4io-v2_default.build/nuttx-export/libs\libnuttx.a(sched-sched_unlock.o)
 .debug_frame   0x00002d98       0x28 c:/px4/workspace/PX4Firmware/Build/px4io-v2_default.build/nuttx-export/libs\libnuttx.a(sched-task_activate.o)
 .debug_frame   0x00002dc0       0x2c c:/px4/workspace/PX4Firmware/Build/px4io-v2_default.build/nuttx-export/libs\libnuttx.a(arch-up_releasepending.o)
 .debug_frame   0x00002dec       0x50 c:/px4/toolchain/bin/../lib/gcc/arm-none-eabi/4.6.2/armv7-m/libgcc.a(bpabi.o)
 .debug_frame   0x00002e3c       0x34 c:/px4/toolchain/bin/../lib/gcc/arm-none-eabi/4.6.2/armv7-m/libgcc.a(_divdi3.o)
 .debug_frame   0x00002e70       0x34 c:/px4/toolchain/bin/../lib/gcc/arm-none-eabi/4.6.2/armv7-m/libgcc.a(_udivdi3.o)

.debug_str      0x00000000     0x480d
 .debug_str     0x00000000      0x27e c:/px4/workspace/PX4Firmware/Build/px4io-v2_default.build/c/px4/workspace/PX4Firmware/src/drivers/boards/px4io-v2/module.pre.o
                                0x3c2 (size before relaxing)
 .debug_str     0x0000027e      0x53c c:/px4/workspace/PX4Firmware/Build/px4io-v2_default.build/c/px4/workspace/PX4Firmware/src/drivers/stm32/module.pre.o
                                0x926 (size before relaxing)
 .debug_str     0x000007ba     0x1a5d c:/px4/workspace/PX4Firmware/Build/px4io-v2_default.build/c/px4/workspace/PX4Firmware/src/modules/px4iofirmware/module.pre.o
                               0x4599 (size before relaxing)
 .debug_str     0x00002217       0x51 c:/px4/workspace/PX4Firmware/Build/px4io-v2_default.build/nuttx-export/libs\libnuttx.a(sched-irq_attach.o)
                                0x162 (size before relaxing)
 .debug_str     0x00002268       0x20 c:/px4/workspace/PX4Firmware/Build/px4io-v2_default.build/nuttx-export/libs\libnuttx.a(sched-irq_initialize.o)
                                0x138 (size before relaxing)
 .debug_str     0x00002288       0x27 c:/px4/workspace/PX4Firmware/Build/px4io-v2_default.build/nuttx-export/libs\libnuttx.a(sched-irq_unexpectedisr.o)
                                0x160 (size before relaxing)
 .debug_str     0x000022af       0x3e c:/px4/workspace/PX4Firmware/Build/px4io-v2_default.build/nuttx-export/libs\libnuttx.a(c-lib_abort.o)
                                0x10b (size before relaxing)
 .debug_str     0x000022ed       0x2d c:/px4/workspace/PX4Firmware/Build/px4io-v2_default.build/nuttx-export/libs\libnuttx.a(c-lib_cfsetspeed.o)
                                0x18d (size before relaxing)
 .debug_str     0x0000231a       0x34 c:/px4/workspace/PX4Firmware/Build/px4io-v2_default.build/nuttx-export/libs\libnuttx.a(c-lib_crc32.o)
                                0x148 (size before relaxing)
 .debug_str     0x0000234e       0x46 c:/px4/workspace/PX4Firmware/Build/px4io-v2_default.build/nuttx-export/libs\libnuttx.a(c-lib_lowsyslog.o)
                                0x17c (size before relaxing)
 .debug_str     0x00002394       0x1b c:/px4/workspace/PX4Firmware/Build/px4io-v2_default.build/nuttx-export/libs\libnuttx.a(c-lib_memchr.o)
                                0x11e (size before relaxing)
 .debug_str     0x000023af       0x25 c:/px4/workspace/PX4Firmware/Build/px4io-v2_default.build/nuttx-export/libs\libnuttx.a(c-lib_memcpy.o)
                                0x128 (size before relaxing)
 .debug_str     0x000023d4       0x1b c:/px4/workspace/PX4Firmware/Build/px4io-v2_default.build/nuttx-export/libs\libnuttx.a(c-lib_memset.o)
                                0x11e (size before relaxing)
 .debug_str     0x000023ef       0x13 c:/px4/workspace/PX4Firmware/Build/px4io-v2_default.build/nuttx-export/libs\libnuttx.a(c-lib_printf.o)
                                0x14c (size before relaxing)
 .debug_str     0x00002402       0x86 c:/px4/workspace/PX4Firmware/Build/px4io-v2_default.build/nuttx-export/libs\libnuttx.a(c-lib_sscanf.o)
                                0x1f9 (size before relaxing)
 .debug_str     0x00002488       0x1b c:/px4/workspace/PX4Firmware/Build/px4io-v2_default.build/nuttx-export/libs\libnuttx.a(c-lib_strchr.o)
                                0x104 (size before relaxing)
 .debug_str     0x000024a3       0x1b c:/px4/workspace/PX4Firmware/Build/px4io-v2_default.build/nuttx-export/libs\libnuttx.a(c-lib_strcmp.o)
                                0x10b (size before relaxing)
 .debug_str     0x000024be       0x24 c:/px4/workspace/PX4Firmware/Build/px4io-v2_default.build/nuttx-export/libs\libnuttx.a(c-lib_strcspn.o)
                                0x127 (size before relaxing)
 .debug_str     0x000024e2       0x1d c:/px4/workspace/PX4Firmware/Build/px4io-v2_default.build/nuttx-export/libs\libnuttx.a(c-lib_strncpy.o)
                                0x125 (size before relaxing)
 .debug_str     0x000024ff       0x34 c:/px4/workspace/PX4Firmware/Build/px4io-v2_default.build/nuttx-export/libs\libnuttx.a(c-lib_strtol.o)
                                0x155 (size before relaxing)
 .debug_str     0x00002533       0x1d c:/px4/workspace/PX4Firmware/Build/px4io-v2_default.build/nuttx-export/libs\libnuttx.a(c-lib_strtoul.o)
                                0x13e (size before relaxing)
 .debug_str     0x00002550       0x2d c:/px4/workspace/PX4Firmware/Build/px4io-v2_default.build/nuttx-export/libs\libnuttx.a(c-lib_syslog.o)
                                0x193 (size before relaxing)
 .debug_str     0x0000257d       0x22 c:/px4/workspace/PX4Firmware/Build/px4io-v2_default.build/nuttx-export/libs\libnuttx.a(c-lib_tcgetattr.o)
                                0x185 (size before relaxing)
 .debug_str     0x0000259f       0x2a c:/px4/workspace/PX4Firmware/Build/px4io-v2_default.build/nuttx-export/libs\libnuttx.a(c-lib_tcsetattr.o)
                                0x18d (size before relaxing)
 .debug_str     0x000025c9       0x33 c:/px4/workspace/PX4Firmware/Build/px4io-v2_default.build/nuttx-export/libs\libnuttx.a(c-lib_vsnprintf.o)
                                0x1c5 (size before relaxing)
 .debug_str     0x000025fc       0x20 c:/px4/workspace/PX4Firmware/Build/px4io-v2_default.build/nuttx-export/libs\libnuttx.a(c-sq_addafter.o)
                                0x155 (size before relaxing)
 .debug_str     0x0000261c       0x20 c:/px4/workspace/PX4Firmware/Build/px4io-v2_default.build/nuttx-export/libs\libnuttx.a(c-sq_addfirst.o)
                                0x150 (size before relaxing)
 .debug_str     0x0000263c       0x1e c:/px4/workspace/PX4Firmware/Build/px4io-v2_default.build/nuttx-export/libs\libnuttx.a(c-sq_addlast.o)
                                0x14e (size before relaxing)
 .debug_str     0x0000265a       0x16 c:/px4/workspace/PX4Firmware/Build/px4io-v2_default.build/nuttx-export/libs\libnuttx.a(c-sq_rem.o)
                                0x14b (size before relaxing)
 .debug_str     0x00002670       0x20 c:/px4/workspace/PX4Firmware/Build/px4io-v2_default.build/nuttx-export/libs\libnuttx.a(c-sq_remafter.o)
                                0x150 (size before relaxing)
 .debug_str     0x00002690       0x40 c:/px4/workspace/PX4Firmware/Build/px4io-v2_default.build/nuttx-export/libs\libnuttx.a(mm-mm_calloc.o)
                                0x11e (size before relaxing)
 .debug_str     0x000026d0       0xd0 c:/px4/workspace/PX4Firmware/Build/px4io-v2_default.build/nuttx-export/libs\libnuttx.a(mm-mm_free.o)
                                0x21f (size before relaxing)
 .debug_str     0x000027a0       0x1a c:/px4/workspace/PX4Firmware/Build/px4io-v2_default.build/nuttx-export/libs\libnuttx.a(mm-mm_mallinfo.o)
                                0x245 (size before relaxing)
 .debug_str     0x000027ba       0x2a c:/px4/workspace/PX4Firmware/Build/px4io-v2_default.build/nuttx-export/libs\libnuttx.a(mm-mm_malloc.o)
                                0x22a (size before relaxing)
 .debug_str     0x000027e4       0x32 c:/px4/workspace/PX4Firmware/Build/px4io-v2_default.build/nuttx-export/libs\libnuttx.a(mm-mm_sem.o)
                                0x24a (size before relaxing)
 .debug_str     0x00002816       0x1a c:/px4/workspace/PX4Firmware/Build/px4io-v2_default.build/nuttx-export/libs\libnuttx.a(mm-mm_size2ndx.o)
                                0x120 (size before relaxing)
 .debug_str     0x00002830       0x5f c:/px4/workspace/PX4Firmware/Build/px4io-v2_default.build/nuttx-export/libs\libnuttx.a(mm-mm_user.o)
                                0x249 (size before relaxing)
 .debug_str     0x0000288f       0x13 c:/px4/workspace/PX4Firmware/Build/px4io-v2_default.build/nuttx-export/libs\libnuttx.a(mm-mm_zalloc.o)
                                0x11f (size before relaxing)
 .debug_str     0x000028a2      0x212 c:/px4/workspace/PX4Firmware/Build/px4io-v2_default.build/nuttx-export/libs\libnuttx.a(arch-stm32_dma.o)
                                0x37e (size before relaxing)
 .debug_str     0x00002ab4       0xa2 c:/px4/workspace/PX4Firmware/Build/px4io-v2_default.build/nuttx-export/libs\libnuttx.a(arch-stm32_gpio.o)
                                0x20f (size before relaxing)
 .debug_str     0x00002b56       0xa7 c:/px4/workspace/PX4Firmware/Build/px4io-v2_default.build/nuttx-export/libs\libnuttx.a(arch-stm32_irq.o)
                                0x27d (size before relaxing)
 .debug_str     0x00002bfd      0x520 c:/px4/workspace/PX4Firmware/Build/px4io-v2_default.build/nuttx-export/libs\libnuttx.a(arch-stm32_serial.o)
                                0x8da (size before relaxing)
 .debug_str     0x0000311d       0x3d c:/px4/workspace/PX4Firmware/Build/px4io-v2_default.build/nuttx-export/libs\libnuttx.a(arch-stm32_start.o)
                                0x158 (size before relaxing)
 .debug_str     0x0000315a      0x1e5 c:/px4/workspace/PX4Firmware/Build/px4io-v2_default.build/nuttx-export/libs\libnuttx.a(arch-up_assert.o)
                                0x5a5 (size before relaxing)
 .debug_str     0x0000333f       0x29 c:/px4/workspace/PX4Firmware/Build/px4io-v2_default.build/nuttx-export/libs\libnuttx.a(arch-up_hardfault.o)
                                0x1b7 (size before relaxing)
 .debug_str     0x00003368       0x36 c:/px4/workspace/PX4Firmware/Build/px4io-v2_default.build/nuttx-export/libs\libnuttx.a(arch-up_modifyreg32.o)
                                0x18d (size before relaxing)
 .debug_str     0x0000339e       0x1e c:/px4/workspace/PX4Firmware/Build/px4io-v2_default.build/nuttx-export/libs\libnuttx.a(arch-up_svcall.o)
                                0x157 (size before relaxing)
 .debug_str     0x000033bc       0x28 c:/px4/workspace/PX4Firmware/Build/px4io-v2_default.build/nuttx-export/libs\libnuttx.a(arch-up_systemreset.o)
                                0x121 (size before relaxing)
 .debug_str     0x000033e4       0x2b c:/px4/workspace/PX4Firmware/Build/px4io-v2_default.build/nuttx-export/libs\libnuttx.a(arch-up_udelay.o)
                                0x154 (size before relaxing)
 .debug_str     0x0000340f       0x1e c:/px4/workspace/PX4Firmware/Build/px4io-v2_default.build/nuttx-export/libs\libnuttx.a(arch-up_vectors.o)
                                 0xac (size before relaxing)
 .debug_str     0x0000342d       0x94 c:/px4/workspace/PX4Firmware/Build/px4io-v2_default.build/nuttx-export/libs\libnuttx.a(cxx-libxx_cxa_atexit.o)
                                0x204 (size before relaxing)
 .debug_str     0x000034c1       0x2c c:/px4/workspace/PX4Firmware/Build/px4io-v2_default.build/nuttx-export/libs\libnuttx.a(cxx-libxx_cxapurevirtual.o)
                                0x106 (size before relaxing)
 .debug_str     0x000034ed       0x28 c:/px4/workspace/PX4Firmware/Build/px4io-v2_default.build/nuttx-export/libs\libnuttx.a(cxx-libxx_delete.o)
                                0x1dc (size before relaxing)
 .debug_str     0x00003515       0x2c c:/px4/workspace/PX4Firmware/Build/px4io-v2_default.build/nuttx-export/libs\libnuttx.a(cxx-libxx_eabi_atexit.o)
                                0x201 (size before relaxing)
 .debug_str     0x00003541       0x7a c:/px4/workspace/PX4Firmware/Build/px4io-v2_default.build/nuttx-export/libs\libnuttx.a(cxx-libxx_new.o)
                                0x28a (size before relaxing)
 .debug_str     0x000035bb       0x3f c:/px4/workspace/PX4Firmware/Build/px4io-v2_default.build/nuttx-export/libs\libnuttx.a(fs-fs_ioctl.o)
                                0x356 (size before relaxing)
 .debug_str     0x000035fa       0x44 c:/px4/workspace/PX4Firmware/Build/px4io-v2_default.build/nuttx-export/libs\libnuttx.a(fs-fs_open.o)
                                0x391 (size before relaxing)
 .debug_str     0x0000363e       0x14 c:/px4/workspace/PX4Firmware/Build/px4io-v2_default.build/nuttx-export/libs\libnuttx.a(fs-fs_read.o)
                                0x35f (size before relaxing)
 .debug_str     0x00003652       0x16 c:/px4/workspace/PX4Firmware/Build/px4io-v2_default.build/nuttx-export/libs\libnuttx.a(fs-fs_write.o)
                                0x368 (size before relaxing)
 .debug_str     0x00003668      0x10d c:/px4/workspace/PX4Firmware/Build/px4io-v2_default.build/nuttx-export/libs\libnuttx.a(drivers-serial.o)
                                0x5a7 (size before relaxing)
 .debug_str     0x00003775       0x31 c:/px4/workspace/PX4Firmware/Build/px4io-v2_default.build/nuttx-export/libs\libnuttx.a(drivers-serialirq.o)
                                0x470 (size before relaxing)
 .debug_str     0x000037a6       0x28 c:/px4/workspace/PX4Firmware/Build/px4io-v2_default.build/nuttx-export/libs\libnuttx.a(sched-errno_getptr.o)
                                0x56f (size before relaxing)
 .debug_str     0x00000000       0x28 c:/px4/workspace/PX4Firmware/Build/px4io-v2_default.build/nuttx-export/libs\libnuttx.a(sched-exit.o)
                                0x4c4 (size before relaxing)
 .debug_str     0x000037ce       0x10 c:/px4/workspace/PX4Firmware/Build/px4io-v2_default.build/nuttx-export/libs\libnuttx.a(sched-getpid.o)
                                0x4c1 (size before relaxing)
 .debug_str     0x000037de       0xec c:/px4/workspace/PX4Firmware/Build/px4io-v2_default.build/nuttx-export/libs\libnuttx.a(sched-os_start.o)
                                0x694 (size before relaxing)
 .debug_str     0x000038ca       0x40 c:/px4/workspace/PX4Firmware/Build/px4io-v2_default.build/nuttx-export/libs\libnuttx.a(sched-sched_garbage.o)
                                0x1be (size before relaxing)
 .debug_str     0x0000390a       0x20 c:/px4/workspace/PX4Firmware/Build/px4io-v2_default.build/nuttx-export/libs\libnuttx.a(sched-sched_getfiles.o)
                                0x4d6 (size before relaxing)
 .debug_str     0x0000392a       0x25 c:/px4/workspace/PX4Firmware/Build/px4io-v2_default.build/nuttx-export/libs\libnuttx.a(sched-sem_post.o)
                                0x505 (size before relaxing)
 .debug_str     0x0000394f       0x1a c:/px4/workspace/PX4Firmware/Build/px4io-v2_default.build/nuttx-export/libs\libnuttx.a(sched-sem_trywait.o)
                                0x502 (size before relaxing)
 .debug_str     0x00003969       0x14 c:/px4/workspace/PX4Firmware/Build/px4io-v2_default.build/nuttx-export/libs\libnuttx.a(sched-sem_wait.o)
                                0x58d (size before relaxing)
 .debug_str     0x0000397d       0x2a c:/px4/workspace/PX4Firmware/Build/px4io-v2_default.build/nuttx-export/libs\libnuttx.a(sched-task_exithook.o)
                                0x49f (size before relaxing)
 .debug_str     0x000039a7       0x1c c:/px4/workspace/PX4Firmware/Build/px4io-v2_default.build/nuttx-export/libs\libnuttx.a(sched-task_recover.o)
                                0x4b0 (size before relaxing)
 .debug_str     0x000039c3       0x3e c:/px4/workspace/PX4Firmware/Build/px4io-v2_default.build/nuttx-export/libs\libnuttx.a(sched-wd_cancel.o)
                                0x213 (size before relaxing)
 .debug_str     0x00003a01       0x28 c:/px4/workspace/PX4Firmware/Build/px4io-v2_default.build/nuttx-export/libs\libnuttx.a(sched-wd_delete.o)
                                0x200 (size before relaxing)
 .debug_str     0x00003a29       0x2c c:/px4/workspace/PX4Firmware/Build/px4io-v2_default.build/nuttx-export/libs\libnuttx.a(sched-wd_initialize.o)
                                0x278 (size before relaxing)
 .debug_str     0x00003a55       0x20 c:/px4/workspace/PX4Firmware/Build/px4io-v2_default.build/nuttx-export/libs\libnuttx.a(c-dq_addfirst.o)
                                0x156 (size before relaxing)
 .debug_str     0x00003a75       0x24 c:/px4/workspace/PX4Firmware/Build/px4io-v2_default.build/nuttx-export/libs\libnuttx.a(c-lib_cfgetspeed.o)
                                0x187 (size before relaxing)
 .debug_str     0x00003a99       0x2a c:/px4/workspace/PX4Firmware/Build/px4io-v2_default.build/nuttx-export/libs\libnuttx.a(c-lib_checkbase.o)
                                0x133 (size before relaxing)
 .debug_str     0x00003ac3       0x29 c:/px4/workspace/PX4Firmware/Build/px4io-v2_default.build/nuttx-export/libs\libnuttx.a(c-lib_isbasedigit.o)
                                0x150 (size before relaxing)
 .debug_str     0x00003aec       0xff c:/px4/workspace/PX4Firmware/Build/px4io-v2_default.build/nuttx-export/libs\libnuttx.a(c-lib_libvsprintf.o)
                                0x2c2 (size before relaxing)
 .debug_str     0x00003beb       0x3c c:/px4/workspace/PX4Firmware/Build/px4io-v2_default.build/nuttx-export/libs\libnuttx.a(c-lib_lowoutstream.o)
                                0x16c (size before relaxing)
 .debug_str     0x00003c27       0x42 c:/px4/workspace/PX4Firmware/Build/px4io-v2_default.build/nuttx-export/libs\libnuttx.a(c-lib_memoutstream.o)
                                0x1a9 (size before relaxing)
 .debug_str     0x00003c69       0x3f c:/px4/workspace/PX4Firmware/Build/px4io-v2_default.build/nuttx-export/libs\libnuttx.a(c-lib_nulloutstream.o)
                                0x176 (size before relaxing)
 .debug_str     0x00003ca8       0x4b c:/px4/workspace/PX4Firmware/Build/px4io-v2_default.build/nuttx-export/libs\libnuttx.a(c-lib_rawoutstream.o)
                                0x1a2 (size before relaxing)
 .debug_str     0x00003cf3       0x25 c:/px4/workspace/PX4Firmware/Build/px4io-v2_default.build/nuttx-export/libs\libnuttx.a(c-lib_skipspace.o)
                                0x12e (size before relaxing)
 .debug_str     0x00003d18       0x1b c:/px4/workspace/PX4Firmware/Build/px4io-v2_default.build/nuttx-export/libs\libnuttx.a(c-lib_strcpy.o)
                                0x109 (size before relaxing)
 .debug_str     0x00003d33       0x1b c:/px4/workspace/PX4Firmware/Build/px4io-v2_default.build/nuttx-export/libs\libnuttx.a(c-lib_strlen.o)
                                0x11e (size before relaxing)
 .debug_str     0x00003d4e       0x26 c:/px4/workspace/PX4Firmware/Build/px4io-v2_default.build/nuttx-export/libs\libnuttx.a(c-sem_init.o)
                                0x13b (size before relaxing)
 .debug_str     0x00003d74       0x20 c:/px4/workspace/PX4Firmware/Build/px4io-v2_default.build/nuttx-export/libs\libnuttx.a(c-sq_remfirst.o)
                                0x14b (size before relaxing)
 .debug_str     0x00003d94       0x22 c:/px4/workspace/PX4Firmware/Build/px4io-v2_default.build/nuttx-export/libs\libnuttx.a(mm-mm_addfreechunk.o)
                                0x217 (size before relaxing)
 .debug_str     0x00003db6       0x19 c:/px4/workspace/PX4Firmware/Build/px4io-v2_default.build/nuttx-export/libs\libnuttx.a(mm-mm_initialize.o)
                                0x24f (size before relaxing)
 .debug_str     0x00003dcf       0x2b c:/px4/workspace/PX4Firmware/Build/px4io-v2_default.build/nuttx-export/libs\libnuttx.a(arch-stm32_allocateheap.o)
                                0x176 (size before relaxing)
 .debug_str     0x00003dfa       0x1a c:/px4/workspace/PX4Firmware/Build/px4io-v2_default.build/nuttx-export/libs\libnuttx.a(arch-stm32_idle.o)
                                0x126 (size before relaxing)
 .debug_str     0x00003e14       0x34 c:/px4/workspace/PX4Firmware/Build/px4io-v2_default.build/nuttx-export/libs\libnuttx.a(arch-stm32_lowputc.o)
                                0x14a (size before relaxing)
 .debug_str     0x00003e48       0x8c c:/px4/workspace/PX4Firmware/Build/px4io-v2_default.build/nuttx-export/libs\libnuttx.a(arch-stm32_rcc.o)
                                0x1c3 (size before relaxing)
 .debug_str     0x00003ed4       0x44 c:/px4/workspace/PX4Firmware/Build/px4io-v2_default.build/nuttx-export/libs\libnuttx.a(arch-up_blocktask.o)
                                0x5ae (size before relaxing)
 .debug_str     0x00003f18       0x24 c:/px4/workspace/PX4Firmware/Build/px4io-v2_default.build/nuttx-export/libs\libnuttx.a(arch-up_copystate.o)
                                0x148 (size before relaxing)
 .debug_str     0x00003f3c       0x11 c:/px4/workspace/PX4Firmware/Build/px4io-v2_default.build/nuttx-export/libs\libnuttx.a(arch-up_exit.o)
                                0x4f1 (size before relaxing)
 .debug_str     0x00003f4d       0x17 c:/px4/workspace/PX4Firmware/Build/px4io-v2_default.build/nuttx-export/libs\libnuttx.a(arch-up_initialize.o)
                                0x151 (size before relaxing)
 .debug_str     0x00003f64       0x2b c:/px4/workspace/PX4Firmware/Build/px4io-v2_default.build/nuttx-export/libs\libnuttx.a(arch-up_initialstate.o)
                                0x4a0 (size before relaxing)
 .debug_str     0x00003f8f       0x32 c:/px4/workspace/PX4Firmware/Build/px4io-v2_default.build/nuttx-export/libs\libnuttx.a(arch-up_interruptcontext.o)
                                0x176 (size before relaxing)
 .debug_str     0x00003fc1       0x2a c:/px4/workspace/PX4Firmware/Build/px4io-v2_default.build/nuttx-export/libs\libnuttx.a(arch-up_mdelay.o)
                                0x136 (size before relaxing)
 .debug_str     0x00003feb       0x29 c:/px4/workspace/PX4Firmware/Build/px4io-v2_default.build/nuttx-export/libs\libnuttx.a(arch-up_unblocktask.o)
                                0x58c (size before relaxing)
 .debug_str     0x00004014       0xac c:/px4/workspace/PX4Firmware/Build/px4io-v2_default.build/nuttx-export/libs\libnuttx.a(fs-fs_files.o)
                                0x418 (size before relaxing)
 .debug_str     0x000040c0       0x1e c:/px4/workspace/PX4Firmware/Build/px4io-v2_default.build/nuttx-export/libs\libnuttx.a(fs-fs_inodeaddref.o)
                                0x31c (size before relaxing)
 .debug_str     0x000040de       0x1a c:/px4/workspace/PX4Firmware/Build/px4io-v2_default.build/nuttx-export/libs\libnuttx.a(fs-fs_inodefind.o)
                                0x32a (size before relaxing)
 .debug_str     0x000040f8       0x20 c:/px4/workspace/PX4Firmware/Build/px4io-v2_default.build/nuttx-export/libs\libnuttx.a(fs-fs_inoderelease.o)
                                0x32c (size before relaxing)
 .debug_str     0x00004118       0x2e c:/px4/workspace/PX4Firmware/Build/px4io-v2_default.build/nuttx-export/libs\libnuttx.a(fs-fs_registerdriver.o)
                                0x33b (size before relaxing)
 .debug_str     0x00004146       0x2f c:/px4/workspace/PX4Firmware/Build/px4io-v2_default.build/nuttx-export/libs\libnuttx.a(sched-group_create.o)
                                0x4bb (size before relaxing)
 .debug_str     0x00004175       0x28 c:/px4/workspace/PX4Firmware/Build/px4io-v2_default.build/nuttx-export/libs\libnuttx.a(sched-group_leave.o)
                                0x496 (size before relaxing)
 .debug_str     0x0000419d       0x2c c:/px4/workspace/PX4Firmware/Build/px4io-v2_default.build/nuttx-export/libs\libnuttx.a(sched-group_setupidlefiles.o)
                                0x4b8 (size before relaxing)
 .debug_str     0x000041c9       0x1f c:/px4/workspace/PX4Firmware/Build/px4io-v2_default.build/nuttx-export/libs\libnuttx.a(sched-os_bringup.o)
                                0x13c (size before relaxing)
 .debug_str     0x000041e8       0x29 c:/px4/workspace/PX4Firmware/Build/px4io-v2_default.build/nuttx-export/libs\libnuttx.a(sched-sched_addblocked.o)
                                0x59e (size before relaxing)
 .debug_str     0x00004211       0x2c c:/px4/workspace/PX4Firmware/Build/px4io-v2_default.build/nuttx-export/libs\libnuttx.a(sched-sched_addprioritized.o)
                                0x4df (size before relaxing)
 .debug_str     0x0000423d       0x2a c:/px4/workspace/PX4Firmware/Build/px4io-v2_default.build/nuttx-export/libs\libnuttx.a(sched-sched_addreadytorun.o)
                                0x585 (size before relaxing)
 .debug_str     0x00004267       0x19 c:/px4/workspace/PX4Firmware/Build/px4io-v2_default.build/nuttx-export/libs\libnuttx.a(sched-sched_free.o)
                                0x19f (size before relaxing)
 .debug_str     0x00004280       0x46 c:/px4/workspace/PX4Firmware/Build/px4io-v2_default.build/nuttx-export/libs\libnuttx.a(sched-sched_mergepending.o)
                                0x597 (size before relaxing)
 .debug_str     0x000042c6       0x2a c:/px4/workspace/PX4Firmware/Build/px4io-v2_default.build/nuttx-export/libs\libnuttx.a(sched-sched_removeblocked.o)
                                0x5a4 (size before relaxing)
 .debug_str     0x000042f0       0x30 c:/px4/workspace/PX4Firmware/Build/px4io-v2_default.build/nuttx-export/libs\libnuttx.a(sched-sched_removereadytorun.o)
                                0x577 (size before relaxing)
 .debug_str     0x00004320       0x1a c:/px4/workspace/PX4Firmware/Build/px4io-v2_default.build/nuttx-export/libs\libnuttx.a(sched-sem_destroy.o)
                                0x145 (size before relaxing)
 .debug_str     0x0000433a       0x54 c:/px4/workspace/PX4Firmware/Build/px4io-v2_default.build/nuttx-export/libs\libnuttx.a(sched-task_create.o)
                                0x541 (size before relaxing)
 .debug_str     0x0000438e       0x16 c:/px4/workspace/PX4Firmware/Build/px4io-v2_default.build/nuttx-export/libs\libnuttx.a(sched-task_exit.o)
                                0x571 (size before relaxing)
 .debug_str     0x000043a4       0x8d c:/px4/workspace/PX4Firmware/Build/px4io-v2_default.build/nuttx-export/libs\libnuttx.a(sched-task_setup.o)
                                0x627 (size before relaxing)
 .debug_str     0x00004431       0x21 c:/px4/workspace/PX4Firmware/Build/px4io-v2_default.build/nuttx-export/libs\libnuttx.a(sched-task_start.o)
                                0x4f5 (size before relaxing)
 .debug_str     0x00004452       0x20 c:/px4/workspace/PX4Firmware/Build/px4io-v2_default.build/nuttx-export/libs\libnuttx.a(sched-task_terminate.o)
                                0x5cf (size before relaxing)
 .debug_str     0x00004472       0x1e c:/px4/workspace/PX4Firmware/Build/px4io-v2_default.build/nuttx-export/libs\libnuttx.a(c-dq_addlast.o)
                                0x154 (size before relaxing)
 .debug_str     0x00004490       0x16 c:/px4/workspace/PX4Firmware/Build/px4io-v2_default.build/nuttx-export/libs\libnuttx.a(c-dq_rem.o)
                                0x156 (size before relaxing)
 .debug_str     0x000044a6       0x20 c:/px4/workspace/PX4Firmware/Build/px4io-v2_default.build/nuttx-export/libs\libnuttx.a(c-lib_strdup.o)
                                0x124 (size before relaxing)
 .debug_str     0x000044c6       0x2f c:/px4/workspace/PX4Firmware/Build/px4io-v2_default.build/nuttx-export/libs\libnuttx.a(arch-stm32_timerisr.o)
                                0x161 (size before relaxing)
 .debug_str     0x000044f5       0x43 c:/px4/workspace/PX4Firmware/Build/px4io-v2_default.build/nuttx-export/libs\libnuttx.a(arch-up_createstack.o)
                                0x4c9 (size before relaxing)
 .debug_str     0x00004538       0x26 c:/px4/workspace/PX4Firmware/Build/px4io-v2_default.build/nuttx-export/libs\libnuttx.a(arch-up_doirq.o)
                                0x157 (size before relaxing)
 .debug_str     0x0000455e       0x2a c:/px4/workspace/PX4Firmware/Build/px4io-v2_default.build/nuttx-export/libs\libnuttx.a(arch-up_releasestack.o)
                                0x4aa (size before relaxing)
 .debug_str     0x00004588        0xb c:/px4/workspace/PX4Firmware/Build/px4io-v2_default.build/nuttx-export/libs\libnuttx.a(fs-fs_close.o)
                                0x11a (size before relaxing)
 .debug_str     0x00004593       0x23 c:/px4/workspace/PX4Firmware/Build/px4io-v2_default.build/nuttx-export/libs\libnuttx.a(fs-fs_filedup2.o)
                                0x35d (size before relaxing)
 .debug_str     0x000045b6       0x9d c:/px4/workspace/PX4Firmware/Build/px4io-v2_default.build/nuttx-export/libs\libnuttx.a(fs-fs_inode.o)
                                0x3dc (size before relaxing)
 .debug_str     0x00004653       0x5f c:/px4/workspace/PX4Firmware/Build/px4io-v2_default.build/nuttx-export/libs\libnuttx.a(fs-fs_inodereserve.o)
                                0x39e (size before relaxing)
 .debug_str     0x000046b2       0x2c c:/px4/workspace/PX4Firmware/Build/px4io-v2_default.build/nuttx-export/libs\libnuttx.a(sched-group_setuptaskfiles.o)
                                0x4b8 (size before relaxing)
 .debug_str     0x000046de       0x1c c:/px4/workspace/PX4Firmware/Build/px4io-v2_default.build/nuttx-export/libs\libnuttx.a(sched-irq_dispatch.o)
                                0x143 (size before relaxing)
 .debug_str     0x000046fa       0x1c c:/px4/workspace/PX4Firmware/Build/px4io-v2_default.build/nuttx-export/libs\libnuttx.a(sched-sched_gettcb.o)
                                0x4b1 (size before relaxing)
 .debug_str     0x00004716       0x18 c:/px4/workspace/PX4Firmware/Build/px4io-v2_default.build/nuttx-export/libs\libnuttx.a(sched-sched_lock.o)
                                0x4ce (size before relaxing)
 .debug_str     0x0000472e       0x41 c:/px4/workspace/PX4Firmware/Build/px4io-v2_default.build/nuttx-export/libs\libnuttx.a(sched-sched_processtimer.o)
                                0x146 (size before relaxing)
 .debug_str     0x0000476f       0x35 c:/px4/workspace/PX4Firmware/Build/px4io-v2_default.build/nuttx-export/libs\libnuttx.a(sched-sched_releasetcb.o)
                                0x4f3 (size before relaxing)
 .debug_str     0x000047a4       0x1c c:/px4/workspace/PX4Firmware/Build/px4io-v2_default.build/nuttx-export/libs\libnuttx.a(sched-sched_unlock.o)
                                0x507 (size before relaxing)
 .debug_str     0x000047c0       0x1e c:/px4/workspace/PX4Firmware/Build/px4io-v2_default.build/nuttx-export/libs\libnuttx.a(sched-task_activate.o)
                                0x4b2 (size before relaxing)
 .debug_str     0x000047de       0x2f c:/px4/workspace/PX4Firmware/Build/px4io-v2_default.build/nuttx-export/libs\libnuttx.a(arch-up_releasepending.o)
                                0x501 (size before relaxing)

.debug_loc      0x00000000     0xe690
 .debug_loc     0x00000000       0x20 c:/px4/workspace/PX4Firmware/Build/px4io-v2_default.build/c/px4/workspace/PX4Firmware/src/drivers/boards/px4io-v2/module.pre.o
 .debug_loc     0x00000020     0x135c c:/px4/workspace/PX4Firmware/Build/px4io-v2_default.build/c/px4/workspace/PX4Firmware/src/drivers/stm32/module.pre.o
 .debug_loc     0x0000137c     0x551e c:/px4/workspace/PX4Firmware/Build/px4io-v2_default.build/c/px4/workspace/PX4Firmware/src/modules/px4iofirmware/module.pre.o
 .debug_loc     0x0000689a       0xbb c:/px4/workspace/PX4Firmware/Build/px4io-v2_default.build/nuttx-export/libs\libnuttx.a(sched-irq_attach.o)
 .debug_loc     0x00006955       0x14 c:/px4/workspace/PX4Firmware/Build/px4io-v2_default.build/nuttx-export/libs\libnuttx.a(sched-irq_initialize.o)
 .debug_loc     0x00006969       0x46 c:/px4/workspace/PX4Firmware/Build/px4io-v2_default.build/nuttx-export/libs\libnuttx.a(sched-irq_unexpectedisr.o)
 .debug_loc     0x000069af       0x20 c:/px4/workspace/PX4Firmware/Build/px4io-v2_default.build/nuttx-export/libs\libnuttx.a(c-lib_abort.o)
 .debug_loc     0x000069cf       0x13 c:/px4/workspace/PX4Firmware/Build/px4io-v2_default.build/nuttx-export/libs\libnuttx.a(c-lib_cfsetspeed.o)
 .debug_loc     0x000069e2       0x9b c:/px4/workspace/PX4Firmware/Build/px4io-v2_default.build/nuttx-export/libs\libnuttx.a(c-lib_crc32.o)
 .debug_loc     0x00006a7d       0x88 c:/px4/workspace/PX4Firmware/Build/px4io-v2_default.build/nuttx-export/libs\libnuttx.a(c-lib_lowsyslog.o)
 .debug_loc     0x00006b05       0x77 c:/px4/workspace/PX4Firmware/Build/px4io-v2_default.build/nuttx-export/libs\libnuttx.a(c-lib_memchr.o)
 .debug_loc     0x00006b7c       0x59 c:/px4/workspace/PX4Firmware/Build/px4io-v2_default.build/nuttx-export/libs\libnuttx.a(c-lib_memcpy.o)
 .debug_loc     0x00006bd5       0x26 c:/px4/workspace/PX4Firmware/Build/px4io-v2_default.build/nuttx-export/libs\libnuttx.a(c-lib_memset.o)
 .debug_loc     0x00006bfb       0x2c c:/px4/workspace/PX4Firmware/Build/px4io-v2_default.build/nuttx-export/libs\libnuttx.a(c-lib_printf.o)
 .debug_loc     0x00006c27      0x6f9 c:/px4/workspace/PX4Firmware/Build/px4io-v2_default.build/nuttx-export/libs\libnuttx.a(c-lib_sscanf.o)
 .debug_loc     0x00007320       0x36 c:/px4/workspace/PX4Firmware/Build/px4io-v2_default.build/nuttx-export/libs\libnuttx.a(c-lib_strchr.o)
 .debug_loc     0x00007356       0x2b c:/px4/workspace/PX4Firmware/Build/px4io-v2_default.build/nuttx-export/libs\libnuttx.a(c-lib_strcmp.o)
 .debug_loc     0x00007381       0x7b c:/px4/workspace/PX4Firmware/Build/px4io-v2_default.build/nuttx-export/libs\libnuttx.a(c-lib_strcspn.o)
 .debug_loc     0x000073fc       0x64 c:/px4/workspace/PX4Firmware/Build/px4io-v2_default.build/nuttx-export/libs\libnuttx.a(c-lib_strncpy.o)
 .debug_loc     0x00007460       0xd1 c:/px4/workspace/PX4Firmware/Build/px4io-v2_default.build/nuttx-export/libs\libnuttx.a(c-lib_strtol.o)
 .debug_loc     0x00007531       0xb0 c:/px4/workspace/PX4Firmware/Build/px4io-v2_default.build/nuttx-export/libs\libnuttx.a(c-lib_strtoul.o)
 .debug_loc     0x000075e1       0x94 c:/px4/workspace/PX4Firmware/Build/px4io-v2_default.build/nuttx-export/libs\libnuttx.a(c-lib_syslog.o)
 .debug_loc     0x00007675       0x31 c:/px4/workspace/PX4Firmware/Build/px4io-v2_default.build/nuttx-export/libs\libnuttx.a(c-lib_tcgetattr.o)
 .debug_loc     0x000076a6       0x5a c:/px4/workspace/PX4Firmware/Build/px4io-v2_default.build/nuttx-export/libs\libnuttx.a(c-lib_tcsetattr.o)
 .debug_loc     0x00007700       0xa4 c:/px4/workspace/PX4Firmware/Build/px4io-v2_default.build/nuttx-export/libs\libnuttx.a(c-lib_vsnprintf.o)
 .debug_loc     0x000077a4       0x70 c:/px4/workspace/PX4Firmware/Build/px4io-v2_default.build/nuttx-export/libs\libnuttx.a(c-sq_addafter.o)
 .debug_loc     0x00007814       0x65 c:/px4/workspace/PX4Firmware/Build/px4io-v2_default.build/nuttx-export/libs\libnuttx.a(c-sq_rem.o)
 .debug_loc     0x00007879       0x31 c:/px4/workspace/PX4Firmware/Build/px4io-v2_default.build/nuttx-export/libs\libnuttx.a(c-sq_remafter.o)
 .debug_loc     0x000078aa       0x5b c:/px4/workspace/PX4Firmware/Build/px4io-v2_default.build/nuttx-export/libs\libnuttx.a(mm-mm_calloc.o)
 .debug_loc     0x00007905       0xb8 c:/px4/workspace/PX4Firmware/Build/px4io-v2_default.build/nuttx-export/libs\libnuttx.a(mm-mm_free.o)
 .debug_loc     0x000079bd       0xc8 c:/px4/workspace/PX4Firmware/Build/px4io-v2_default.build/nuttx-export/libs\libnuttx.a(mm-mm_mallinfo.o)
 .debug_loc     0x00007a85      0x135 c:/px4/workspace/PX4Firmware/Build/px4io-v2_default.build/nuttx-export/libs\libnuttx.a(mm-mm_malloc.o)
 .debug_loc     0x00007bba      0x129 c:/px4/workspace/PX4Firmware/Build/px4io-v2_default.build/nuttx-export/libs\libnuttx.a(mm-mm_sem.o)
 .debug_loc     0x00007ce3       0x54 c:/px4/workspace/PX4Firmware/Build/px4io-v2_default.build/nuttx-export/libs\libnuttx.a(mm-mm_size2ndx.o)
 .debug_loc     0x00007d37       0x78 c:/px4/workspace/PX4Firmware/Build/px4io-v2_default.build/nuttx-export/libs\libnuttx.a(mm-mm_user.o)
 .debug_loc     0x00007daf       0x5c c:/px4/workspace/PX4Firmware/Build/px4io-v2_default.build/nuttx-export/libs\libnuttx.a(mm-mm_zalloc.o)
 .debug_loc     0x00007e0b      0x46e c:/px4/workspace/PX4Firmware/Build/px4io-v2_default.build/nuttx-export/libs\libnuttx.a(arch-stm32_dma.o)
 .debug_loc     0x00008279      0x33e c:/px4/workspace/PX4Firmware/Build/px4io-v2_default.build/nuttx-export/libs\libnuttx.a(arch-stm32_gpio.o)
 .debug_loc     0x000085b7      0x204 c:/px4/workspace/PX4Firmware/Build/px4io-v2_default.build/nuttx-export/libs\libnuttx.a(arch-stm32_irq.o)
 .debug_loc     0x000087bb      0xe2d c:/px4/workspace/PX4Firmware/Build/px4io-v2_default.build/nuttx-export/libs\libnuttx.a(arch-stm32_serial.o)
 .debug_loc     0x000095e8       0x3e c:/px4/workspace/PX4Firmware/Build/px4io-v2_default.build/nuttx-export/libs\libnuttx.a(arch-stm32_start.o)
 .debug_loc     0x00009626      0x163 c:/px4/workspace/PX4Firmware/Build/px4io-v2_default.build/nuttx-export/libs\libnuttx.a(arch-up_assert.o)
 .debug_loc     0x00009789       0x8e c:/px4/workspace/PX4Firmware/Build/px4io-v2_default.build/nuttx-export/libs\libnuttx.a(arch-up_hardfault.o)
 .debug_loc     0x00009817       0x51 c:/px4/workspace/PX4Firmware/Build/px4io-v2_default.build/nuttx-export/libs\libnuttx.a(arch-up_modifyreg32.o)
 .debug_loc     0x00009868       0x7b c:/px4/workspace/PX4Firmware/Build/px4io-v2_default.build/nuttx-export/libs\libnuttx.a(arch-up_svcall.o)
 .debug_loc     0x000098e3       0x1e c:/px4/workspace/PX4Firmware/Build/px4io-v2_default.build/nuttx-export/libs\libnuttx.a(arch-up_systemreset.o)
 .debug_loc     0x00009901       0x90 c:/px4/workspace/PX4Firmware/Build/px4io-v2_default.build/nuttx-export/libs\libnuttx.a(arch-up_udelay.o)
 .debug_loc     0x00009991       0x13 c:/px4/workspace/PX4Firmware/Build/px4io-v2_default.build/nuttx-export/libs\libnuttx.a(cxx-libxx_cxa_atexit.o)
 .debug_loc     0x000099a4       0x20 c:/px4/workspace/PX4Firmware/Build/px4io-v2_default.build/nuttx-export/libs\libnuttx.a(cxx-libxx_cxapurevirtual.o)
 .debug_loc     0x000099c4       0x13 c:/px4/workspace/PX4Firmware/Build/px4io-v2_default.build/nuttx-export/libs\libnuttx.a(cxx-libxx_delete.o)
 .debug_loc     0x000099d7       0x4f c:/px4/workspace/PX4Firmware/Build/px4io-v2_default.build/nuttx-export/libs\libnuttx.a(cxx-libxx_eabi_atexit.o)
 .debug_loc     0x00009a26       0x13 c:/px4/workspace/PX4Firmware/Build/px4io-v2_default.build/nuttx-export/libs\libnuttx.a(cxx-libxx_new.o)
 .debug_loc     0x00009a39      0x163 c:/px4/workspace/PX4Firmware/Build/px4io-v2_default.build/nuttx-export/libs\libnuttx.a(fs-fs_ioctl.o)
 .debug_loc     0x00009b9c      0x1a4 c:/px4/workspace/PX4Firmware/Build/px4io-v2_default.build/nuttx-export/libs\libnuttx.a(fs-fs_open.o)
 .debug_loc     0x00009d40      0x175 c:/px4/workspace/PX4Firmware/Build/px4io-v2_default.build/nuttx-export/libs\libnuttx.a(fs-fs_read.o)
 .debug_loc     0x00009eb5      0x126 c:/px4/workspace/PX4Firmware/Build/px4io-v2_default.build/nuttx-export/libs\libnuttx.a(fs-fs_write.o)
 .debug_loc     0x00009fdb      0x8dd c:/px4/workspace/PX4Firmware/Build/px4io-v2_default.build/nuttx-export/libs\libnuttx.a(drivers-serial.o)
 .debug_loc     0x0000a8b8      0x119 c:/px4/workspace/PX4Firmware/Build/px4io-v2_default.build/nuttx-export/libs\libnuttx.a(drivers-serialirq.o)
 .debug_loc     0x0000a9d1       0x4b c:/px4/workspace/PX4Firmware/Build/px4io-v2_default.build/nuttx-export/libs\libnuttx.a(sched-errno_getptr.o)
 .debug_loc     0x0000aa1c       0x51 c:/px4/workspace/PX4Firmware/Build/px4io-v2_default.build/nuttx-export/libs\libnuttx.a(sched-exit.o)
 .debug_loc     0x0000aa6d       0x58 c:/px4/workspace/PX4Firmware/Build/px4io-v2_default.build/nuttx-export/libs\libnuttx.a(sched-os_start.o)
 .debug_loc     0x0000aac5       0x59 c:/px4/workspace/PX4Firmware/Build/px4io-v2_default.build/nuttx-export/libs\libnuttx.a(sched-sched_garbage.o)
 .debug_loc     0x0000ab1e      0x101 c:/px4/workspace/PX4Firmware/Build/px4io-v2_default.build/nuttx-export/libs\libnuttx.a(sched-sem_post.o)
 .debug_loc     0x0000ac1f       0xb5 c:/px4/workspace/PX4Firmware/Build/px4io-v2_default.build/nuttx-export/libs\libnuttx.a(sched-sem_trywait.o)
 .debug_loc     0x0000acd4       0xb5 c:/px4/workspace/PX4Firmware/Build/px4io-v2_default.build/nuttx-export/libs\libnuttx.a(sched-sem_wait.o)
 .debug_loc     0x0000ad89       0x64 c:/px4/workspace/PX4Firmware/Build/px4io-v2_default.build/nuttx-export/libs\libnuttx.a(sched-task_exithook.o)
 .debug_loc     0x0000aded       0x3e c:/px4/workspace/PX4Firmware/Build/px4io-v2_default.build/nuttx-export/libs\libnuttx.a(sched-task_recover.o)
 .debug_loc     0x0000ae2b      0x10c c:/px4/workspace/PX4Firmware/Build/px4io-v2_default.build/nuttx-export/libs\libnuttx.a(sched-wd_cancel.o)
 .debug_loc     0x0000af37       0x3e c:/px4/workspace/PX4Firmware/Build/px4io-v2_default.build/nuttx-export/libs\libnuttx.a(sched-wd_delete.o)
 .debug_loc     0x0000af75       0x3e c:/px4/workspace/PX4Firmware/Build/px4io-v2_default.build/nuttx-export/libs\libnuttx.a(sched-wd_initialize.o)
 .debug_loc     0x0000afb3       0x13 c:/px4/workspace/PX4Firmware/Build/px4io-v2_default.build/nuttx-export/libs\libnuttx.a(c-lib_cfgetspeed.o)
 .debug_loc     0x0000afc6      0x11c c:/px4/workspace/PX4Firmware/Build/px4io-v2_default.build/nuttx-export/libs\libnuttx.a(c-lib_checkbase.o)
 .debug_loc     0x0000b0e2      0x121 c:/px4/workspace/PX4Firmware/Build/px4io-v2_default.build/nuttx-export/libs\libnuttx.a(c-lib_isbasedigit.o)
 .debug_loc     0x0000b203      0xc9a c:/px4/workspace/PX4Firmware/Build/px4io-v2_default.build/nuttx-export/libs\libnuttx.a(c-lib_libvsprintf.o)
 .debug_loc     0x0000be9d       0x51 c:/px4/workspace/PX4Firmware/Build/px4io-v2_default.build/nuttx-export/libs\libnuttx.a(c-lib_lowoutstream.o)
 .debug_loc     0x0000beee       0x59 c:/px4/workspace/PX4Firmware/Build/px4io-v2_default.build/nuttx-export/libs\libnuttx.a(c-lib_memoutstream.o)
 .debug_loc     0x0000bf47       0x82 c:/px4/workspace/PX4Firmware/Build/px4io-v2_default.build/nuttx-export/libs\libnuttx.a(c-lib_rawoutstream.o)
 .debug_loc     0x0000bfc9       0x2a c:/px4/workspace/PX4Firmware/Build/px4io-v2_default.build/nuttx-export/libs\libnuttx.a(c-lib_skipspace.o)
 .debug_loc     0x0000bff3       0x31 c:/px4/workspace/PX4Firmware/Build/px4io-v2_default.build/nuttx-export/libs\libnuttx.a(c-lib_strcpy.o)
 .debug_loc     0x0000c024       0x3c c:/px4/workspace/PX4Firmware/Build/px4io-v2_default.build/nuttx-export/libs\libnuttx.a(c-lib_strlen.o)
 .debug_loc     0x0000c060       0x64 c:/px4/workspace/PX4Firmware/Build/px4io-v2_default.build/nuttx-export/libs\libnuttx.a(c-sem_init.o)
 .debug_loc     0x0000c0c4       0x32 c:/px4/workspace/PX4Firmware/Build/px4io-v2_default.build/nuttx-export/libs\libnuttx.a(c-sq_remfirst.o)
 .debug_loc     0x0000c0f6       0xc3 c:/px4/workspace/PX4Firmware/Build/px4io-v2_default.build/nuttx-export/libs\libnuttx.a(mm-mm_addfreechunk.o)
 .debug_loc     0x0000c1b9      0x15c c:/px4/workspace/PX4Firmware/Build/px4io-v2_default.build/nuttx-export/libs\libnuttx.a(mm-mm_initialize.o)
 .debug_loc     0x0000c315       0xa5 c:/px4/workspace/PX4Firmware/Build/px4io-v2_default.build/nuttx-export/libs\libnuttx.a(arch-stm32_lowputc.o)
 .debug_loc     0x0000c3ba      0x126 c:/px4/workspace/PX4Firmware/Build/px4io-v2_default.build/nuttx-export/libs\libnuttx.a(arch-stm32_rcc.o)
 .debug_loc     0x0000c4e0       0xf1 c:/px4/workspace/PX4Firmware/Build/px4io-v2_default.build/nuttx-export/libs\libnuttx.a(arch-up_blocktask.o)
 .debug_loc     0x0000c5d1       0x26 c:/px4/workspace/PX4Firmware/Build/px4io-v2_default.build/nuttx-export/libs\libnuttx.a(arch-up_copystate.o)
 .debug_loc     0x0000c5f7       0x53 c:/px4/workspace/PX4Firmware/Build/px4io-v2_default.build/nuttx-export/libs\libnuttx.a(arch-up_exit.o)
 .debug_loc     0x0000c64a       0x20 c:/px4/workspace/PX4Firmware/Build/px4io-v2_default.build/nuttx-export/libs\libnuttx.a(arch-up_initialize.o)
 .debug_loc     0x0000c66a       0x60 c:/px4/workspace/PX4Firmware/Build/px4io-v2_default.build/nuttx-export/libs\libnuttx.a(arch-up_initialstate.o)
 .debug_loc     0x0000c6ca       0x76 c:/px4/workspace/PX4Firmware/Build/px4io-v2_default.build/nuttx-export/libs\libnuttx.a(arch-up_mdelay.o)
 .debug_loc     0x0000c740       0x9f c:/px4/workspace/PX4Firmware/Build/px4io-v2_default.build/nuttx-export/libs\libnuttx.a(arch-up_unblocktask.o)
 .debug_loc     0x0000c7df      0x402 c:/px4/workspace/PX4Firmware/Build/px4io-v2_default.build/nuttx-export/libs\libnuttx.a(fs-fs_files.o)
 .debug_loc     0x0000cbe1       0x3e c:/px4/workspace/PX4Firmware/Build/px4io-v2_default.build/nuttx-export/libs\libnuttx.a(fs-fs_inodeaddref.o)
 .debug_loc     0x0000cc1f       0x7a c:/px4/workspace/PX4Firmware/Build/px4io-v2_default.build/nuttx-export/libs\libnuttx.a(fs-fs_inodefind.o)
 .debug_loc     0x0000cc99       0x3e c:/px4/workspace/PX4Firmware/Build/px4io-v2_default.build/nuttx-export/libs\libnuttx.a(fs-fs_inoderelease.o)
 .debug_loc     0x0000ccd7       0xab c:/px4/workspace/PX4Firmware/Build/px4io-v2_default.build/nuttx-export/libs\libnuttx.a(fs-fs_registerdriver.o)
 .debug_loc     0x0000cd82       0xae c:/px4/workspace/PX4Firmware/Build/px4io-v2_default.build/nuttx-export/libs\libnuttx.a(sched-group_create.o)
 .debug_loc     0x0000ce30       0x94 c:/px4/workspace/PX4Firmware/Build/px4io-v2_default.build/nuttx-export/libs\libnuttx.a(sched-group_leave.o)
 .debug_loc     0x0000cec4       0x65 c:/px4/workspace/PX4Firmware/Build/px4io-v2_default.build/nuttx-export/libs\libnuttx.a(sched-group_setupidlefiles.o)
 .debug_loc     0x0000cf29       0x3e c:/px4/workspace/PX4Firmware/Build/px4io-v2_default.build/nuttx-export/libs\libnuttx.a(sched-os_bringup.o)
 .debug_loc     0x0000cf67       0x5c c:/px4/workspace/PX4Firmware/Build/px4io-v2_default.build/nuttx-export/libs\libnuttx.a(sched-sched_addblocked.o)
 .debug_loc     0x0000cfc3      0x164 c:/px4/workspace/PX4Firmware/Build/px4io-v2_default.build/nuttx-export/libs\libnuttx.a(sched-sched_addprioritized.o)
 .debug_loc     0x0000d127       0x69 c:/px4/workspace/PX4Firmware/Build/px4io-v2_default.build/nuttx-export/libs\libnuttx.a(sched-sched_addreadytorun.o)
 .debug_loc     0x0000d190       0x64 c:/px4/workspace/PX4Firmware/Build/px4io-v2_default.build/nuttx-export/libs\libnuttx.a(sched-sched_free.o)
 .debug_loc     0x0000d1f4      0x107 c:/px4/workspace/PX4Firmware/Build/px4io-v2_default.build/nuttx-export/libs\libnuttx.a(sched-sched_mergepending.o)
 .debug_loc     0x0000d2fb       0x5c c:/px4/workspace/PX4Firmware/Build/px4io-v2_default.build/nuttx-export/libs\libnuttx.a(sched-sched_removeblocked.o)
 .debug_loc     0x0000d357       0x75 c:/px4/workspace/PX4Firmware/Build/px4io-v2_default.build/nuttx-export/libs\libnuttx.a(sched-sched_removereadytorun.o)
 .debug_loc     0x0000d3cc       0x49 c:/px4/workspace/PX4Firmware/Build/px4io-v2_default.build/nuttx-export/libs\libnuttx.a(sched-sem_destroy.o)
 .debug_loc     0x0000d415      0x290 c:/px4/workspace/PX4Firmware/Build/px4io-v2_default.build/nuttx-export/libs\libnuttx.a(sched-task_create.o)
 .debug_loc     0x0000d6a5       0x20 c:/px4/workspace/PX4Firmware/Build/px4io-v2_default.build/nuttx-export/libs\libnuttx.a(sched-task_exit.o)
 .debug_loc     0x0000d6c5      0x2b6 c:/px4/workspace/PX4Firmware/Build/px4io-v2_default.build/nuttx-export/libs\libnuttx.a(sched-task_setup.o)
 .debug_loc     0x0000d97b       0x73 c:/px4/workspace/PX4Firmware/Build/px4io-v2_default.build/nuttx-export/libs\libnuttx.a(sched-task_start.o)
 .debug_loc     0x0000d9ee       0x8a c:/px4/workspace/PX4Firmware/Build/px4io-v2_default.build/nuttx-export/libs\libnuttx.a(sched-task_terminate.o)
 .debug_loc     0x0000da78       0x68 c:/px4/workspace/PX4Firmware/Build/px4io-v2_default.build/nuttx-export/libs\libnuttx.a(c-lib_strdup.o)
 .debug_loc     0x0000dae0       0x89 c:/px4/workspace/PX4Firmware/Build/px4io-v2_default.build/nuttx-export/libs\libnuttx.a(arch-stm32_timerisr.o)
 .debug_loc     0x0000db69       0xc8 c:/px4/workspace/PX4Firmware/Build/px4io-v2_default.build/nuttx-export/libs\libnuttx.a(arch-up_createstack.o)
 .debug_loc     0x0000dc31       0x92 c:/px4/workspace/PX4Firmware/Build/px4io-v2_default.build/nuttx-export/libs\libnuttx.a(arch-up_doirq.o)
 .debug_loc     0x0000dcc3       0x51 c:/px4/workspace/PX4Firmware/Build/px4io-v2_default.build/nuttx-export/libs\libnuttx.a(arch-up_releasestack.o)
 .debug_loc     0x0000dd14       0x7a c:/px4/workspace/PX4Firmware/Build/px4io-v2_default.build/nuttx-export/libs\libnuttx.a(fs-fs_close.o)
 .debug_loc     0x0000dd8e       0x9b c:/px4/workspace/PX4Firmware/Build/px4io-v2_default.build/nuttx-export/libs\libnuttx.a(fs-fs_filedup2.o)
 .debug_loc     0x0000de29      0x322 c:/px4/workspace/PX4Firmware/Build/px4io-v2_default.build/nuttx-export/libs\libnuttx.a(fs-fs_inode.o)
 .debug_loc     0x0000e14b      0x268 c:/px4/workspace/PX4Firmware/Build/px4io-v2_default.build/nuttx-export/libs\libnuttx.a(fs-fs_inodereserve.o)
 .debug_loc     0x0000e3b3       0x47 c:/px4/workspace/PX4Firmware/Build/px4io-v2_default.build/nuttx-export/libs\libnuttx.a(sched-group_setuptaskfiles.o)
 .debug_loc     0x0000e3fa       0x59 c:/px4/workspace/PX4Firmware/Build/px4io-v2_default.build/nuttx-export/libs\libnuttx.a(sched-irq_dispatch.o)
 .debug_loc     0x0000e453       0x83 c:/px4/workspace/PX4Firmware/Build/px4io-v2_default.build/nuttx-export/libs\libnuttx.a(sched-sched_gettcb.o)
 .debug_loc     0x0000e4d6       0x20 c:/px4/workspace/PX4Firmware/Build/px4io-v2_default.build/nuttx-export/libs\libnuttx.a(sched-sched_lock.o)
 .debug_loc     0x0000e4f6       0x20 c:/px4/workspace/PX4Firmware/Build/px4io-v2_default.build/nuttx-export/libs\libnuttx.a(sched-sched_processtimer.o)
 .debug_loc     0x0000e516       0x8b c:/px4/workspace/PX4Firmware/Build/px4io-v2_default.build/nuttx-export/libs\libnuttx.a(sched-sched_releasetcb.o)
 .debug_loc     0x0000e5a1       0x46 c:/px4/workspace/PX4Firmware/Build/px4io-v2_default.build/nuttx-export/libs\libnuttx.a(sched-sched_unlock.o)
 .debug_loc     0x0000e5e7       0x33 c:/px4/workspace/PX4Firmware/Build/px4io-v2_default.build/nuttx-export/libs\libnuttx.a(sched-task_activate.o)
 .debug_loc     0x0000e61a       0x76 c:/px4/workspace/PX4Firmware/Build/px4io-v2_default.build/nuttx-export/libs\libnuttx.a(arch-up_releasepending.o)

.debug_ranges   0x00000000     0x2ed0
 .debug_ranges  0x00000000       0x10 c:/px4/workspace/PX4Firmware/Build/px4io-v2_default.build/c/px4/workspace/PX4Firmware/src/drivers/boards/px4io-v2/module.pre.o
 .debug_ranges  0x00000010      0x530 c:/px4/workspace/PX4Firmware/Build/px4io-v2_default.build/c/px4/workspace/PX4Firmware/src/drivers/stm32/module.pre.o
 .debug_ranges  0x00000540     0x1810 c:/px4/workspace/PX4Firmware/Build/px4io-v2_default.build/c/px4/workspace/PX4Firmware/src/modules/px4iofirmware/module.pre.o
 .debug_ranges  0x00001d50       0x10 c:/px4/workspace/PX4Firmware/Build/px4io-v2_default.build/nuttx-export/libs\libnuttx.a(sched-irq_attach.o)
 .debug_ranges  0x00001d60       0x10 c:/px4/workspace/PX4Firmware/Build/px4io-v2_default.build/nuttx-export/libs\libnuttx.a(sched-irq_initialize.o)
 .debug_ranges  0x00001d70       0x10 c:/px4/workspace/PX4Firmware/Build/px4io-v2_default.build/nuttx-export/libs\libnuttx.a(sched-irq_unexpectedisr.o)
 .debug_ranges  0x00001d80       0x10 c:/px4/workspace/PX4Firmware/Build/px4io-v2_default.build/nuttx-export/libs\libnuttx.a(c-lib_abort.o)
 .debug_ranges  0x00001d90       0x10 c:/px4/workspace/PX4Firmware/Build/px4io-v2_default.build/nuttx-export/libs\libnuttx.a(c-lib_cfsetspeed.o)
 .debug_ranges  0x00001da0       0x18 c:/px4/workspace/PX4Firmware/Build/px4io-v2_default.build/nuttx-export/libs\libnuttx.a(c-lib_crc32.o)
 .debug_ranges  0x00001db8       0x18 c:/px4/workspace/PX4Firmware/Build/px4io-v2_default.build/nuttx-export/libs\libnuttx.a(c-lib_lowsyslog.o)
 .debug_ranges  0x00001dd0       0x10 c:/px4/workspace/PX4Firmware/Build/px4io-v2_default.build/nuttx-export/libs\libnuttx.a(c-lib_memchr.o)
 .debug_ranges  0x00001de0       0x10 c:/px4/workspace/PX4Firmware/Build/px4io-v2_default.build/nuttx-export/libs\libnuttx.a(c-lib_memcpy.o)
 .debug_ranges  0x00001df0       0x10 c:/px4/workspace/PX4Firmware/Build/px4io-v2_default.build/nuttx-export/libs\libnuttx.a(c-lib_memset.o)
 .debug_ranges  0x00001e00       0x10 c:/px4/workspace/PX4Firmware/Build/px4io-v2_default.build/nuttx-export/libs\libnuttx.a(c-lib_printf.o)
 .debug_ranges  0x00001e10       0x90 c:/px4/workspace/PX4Firmware/Build/px4io-v2_default.build/nuttx-export/libs\libnuttx.a(c-lib_sscanf.o)
 .debug_ranges  0x00001ea0       0x10 c:/px4/workspace/PX4Firmware/Build/px4io-v2_default.build/nuttx-export/libs\libnuttx.a(c-lib_strchr.o)
 .debug_ranges  0x00001eb0       0x10 c:/px4/workspace/PX4Firmware/Build/px4io-v2_default.build/nuttx-export/libs\libnuttx.a(c-lib_strcmp.o)
 .debug_ranges  0x00001ec0       0x10 c:/px4/workspace/PX4Firmware/Build/px4io-v2_default.build/nuttx-export/libs\libnuttx.a(c-lib_strcspn.o)
 .debug_ranges  0x00001ed0       0x10 c:/px4/workspace/PX4Firmware/Build/px4io-v2_default.build/nuttx-export/libs\libnuttx.a(c-lib_strncpy.o)
 .debug_ranges  0x00001ee0       0x10 c:/px4/workspace/PX4Firmware/Build/px4io-v2_default.build/nuttx-export/libs\libnuttx.a(c-lib_strtol.o)
 .debug_ranges  0x00001ef0       0x10 c:/px4/workspace/PX4Firmware/Build/px4io-v2_default.build/nuttx-export/libs\libnuttx.a(c-lib_strtoul.o)
 .debug_ranges  0x00001f00       0x18 c:/px4/workspace/PX4Firmware/Build/px4io-v2_default.build/nuttx-export/libs\libnuttx.a(c-lib_syslog.o)
 .debug_ranges  0x00001f18       0x10 c:/px4/workspace/PX4Firmware/Build/px4io-v2_default.build/nuttx-export/libs\libnuttx.a(c-lib_tcgetattr.o)
 .debug_ranges  0x00001f28       0x10 c:/px4/workspace/PX4Firmware/Build/px4io-v2_default.build/nuttx-export/libs\libnuttx.a(c-lib_tcsetattr.o)
 .debug_ranges  0x00001f38       0x10 c:/px4/workspace/PX4Firmware/Build/px4io-v2_default.build/nuttx-export/libs\libnuttx.a(c-lib_vsnprintf.o)
 .debug_ranges  0x00001f48       0x10 c:/px4/workspace/PX4Firmware/Build/px4io-v2_default.build/nuttx-export/libs\libnuttx.a(c-sq_addafter.o)
 .debug_ranges  0x00001f58       0x10 c:/px4/workspace/PX4Firmware/Build/px4io-v2_default.build/nuttx-export/libs\libnuttx.a(c-sq_addfirst.o)
 .debug_ranges  0x00001f68       0x10 c:/px4/workspace/PX4Firmware/Build/px4io-v2_default.build/nuttx-export/libs\libnuttx.a(c-sq_addlast.o)
 .debug_ranges  0x00001f78       0x28 c:/px4/workspace/PX4Firmware/Build/px4io-v2_default.build/nuttx-export/libs\libnuttx.a(c-sq_rem.o)
 .debug_ranges  0x00001fa0       0x10 c:/px4/workspace/PX4Firmware/Build/px4io-v2_default.build/nuttx-export/libs\libnuttx.a(c-sq_remafter.o)
 .debug_ranges  0x00001fb0       0x10 c:/px4/workspace/PX4Firmware/Build/px4io-v2_default.build/nuttx-export/libs\libnuttx.a(mm-mm_calloc.o)
 .debug_ranges  0x00001fc0       0x40 c:/px4/workspace/PX4Firmware/Build/px4io-v2_default.build/nuttx-export/libs\libnuttx.a(mm-mm_free.o)
 .debug_ranges  0x00002000       0x40 c:/px4/workspace/PX4Firmware/Build/px4io-v2_default.build/nuttx-export/libs\libnuttx.a(mm-mm_mallinfo.o)
 .debug_ranges  0x00002040       0x58 c:/px4/workspace/PX4Firmware/Build/px4io-v2_default.build/nuttx-export/libs\libnuttx.a(mm-mm_malloc.o)
 .debug_ranges  0x00002098       0x28 c:/px4/workspace/PX4Firmware/Build/px4io-v2_default.build/nuttx-export/libs\libnuttx.a(mm-mm_sem.o)
 .debug_ranges  0x000020c0       0x10 c:/px4/workspace/PX4Firmware/Build/px4io-v2_default.build/nuttx-export/libs\libnuttx.a(mm-mm_size2ndx.o)
 .debug_ranges  0x000020d0       0x28 c:/px4/workspace/PX4Firmware/Build/px4io-v2_default.build/nuttx-export/libs\libnuttx.a(mm-mm_user.o)
 .debug_ranges  0x000020f8       0x10 c:/px4/workspace/PX4Firmware/Build/px4io-v2_default.build/nuttx-export/libs\libnuttx.a(mm-mm_zalloc.o)
 .debug_ranges  0x00002108       0x98 c:/px4/workspace/PX4Firmware/Build/px4io-v2_default.build/nuttx-export/libs\libnuttx.a(arch-stm32_dma.o)
 .debug_ranges  0x000021a0       0x30 c:/px4/workspace/PX4Firmware/Build/px4io-v2_default.build/nuttx-export/libs\libnuttx.a(arch-stm32_gpio.o)
 .debug_ranges  0x000021d0       0x38 c:/px4/workspace/PX4Firmware/Build/px4io-v2_default.build/nuttx-export/libs\libnuttx.a(arch-stm32_irq.o)
 .debug_ranges  0x00002208      0x258 c:/px4/workspace/PX4Firmware/Build/px4io-v2_default.build/nuttx-export/libs\libnuttx.a(arch-stm32_serial.o)
 .debug_ranges  0x00002460       0x10 c:/px4/workspace/PX4Firmware/Build/px4io-v2_default.build/nuttx-export/libs\libnuttx.a(arch-stm32_start.o)
 .debug_ranges  0x00002470       0x10 c:/px4/workspace/PX4Firmware/Build/px4io-v2_default.build/nuttx-export/libs\libnuttx.a(arch-up_assert.o)
 .debug_ranges  0x00002480       0x28 c:/px4/workspace/PX4Firmware/Build/px4io-v2_default.build/nuttx-export/libs\libnuttx.a(arch-up_hardfault.o)
 .debug_ranges  0x000024a8       0x10 c:/px4/workspace/PX4Firmware/Build/px4io-v2_default.build/nuttx-export/libs\libnuttx.a(arch-up_modifyreg32.o)
 .debug_ranges  0x000024b8       0x10 c:/px4/workspace/PX4Firmware/Build/px4io-v2_default.build/nuttx-export/libs\libnuttx.a(arch-up_svcall.o)
 .debug_ranges  0x000024c8       0x10 c:/px4/workspace/PX4Firmware/Build/px4io-v2_default.build/nuttx-export/libs\libnuttx.a(arch-up_systemreset.o)
 .debug_ranges  0x000024d8       0x10 c:/px4/workspace/PX4Firmware/Build/px4io-v2_default.build/nuttx-export/libs\libnuttx.a(arch-up_udelay.o)
 .debug_ranges  0x000024e8       0x10 c:/px4/workspace/PX4Firmware/Build/px4io-v2_default.build/nuttx-export/libs\libnuttx.a(cxx-libxx_cxa_atexit.o)
 .debug_ranges  0x000024f8       0x10 c:/px4/workspace/PX4Firmware/Build/px4io-v2_default.build/nuttx-export/libs\libnuttx.a(cxx-libxx_cxapurevirtual.o)
 .debug_ranges  0x00002508       0x10 c:/px4/workspace/PX4Firmware/Build/px4io-v2_default.build/nuttx-export/libs\libnuttx.a(cxx-libxx_delete.o)
 .debug_ranges  0x00002518       0x10 c:/px4/workspace/PX4Firmware/Build/px4io-v2_default.build/nuttx-export/libs\libnuttx.a(cxx-libxx_eabi_atexit.o)
 .debug_ranges  0x00002528       0x28 c:/px4/workspace/PX4Firmware/Build/px4io-v2_default.build/nuttx-export/libs\libnuttx.a(cxx-libxx_new.o)
 .debug_ranges  0x00002550       0x10 c:/px4/workspace/PX4Firmware/Build/px4io-v2_default.build/nuttx-export/libs\libnuttx.a(fs-fs_ioctl.o)
 .debug_ranges  0x00002560       0x18 c:/px4/workspace/PX4Firmware/Build/px4io-v2_default.build/nuttx-export/libs\libnuttx.a(fs-fs_open.o)
 .debug_ranges  0x00002578       0x60 c:/px4/workspace/PX4Firmware/Build/px4io-v2_default.build/nuttx-export/libs\libnuttx.a(fs-fs_read.o)
 .debug_ranges  0x000025d8       0x10 c:/px4/workspace/PX4Firmware/Build/px4io-v2_default.build/nuttx-export/libs\libnuttx.a(fs-fs_write.o)
 .debug_ranges  0x000025e8       0x88 c:/px4/workspace/PX4Firmware/Build/px4io-v2_default.build/nuttx-export/libs\libnuttx.a(drivers-serial.o)
 .debug_ranges  0x00002670       0x18 c:/px4/workspace/PX4Firmware/Build/px4io-v2_default.build/nuttx-export/libs\libnuttx.a(drivers-serialirq.o)
 .debug_ranges  0x00002688       0x28 c:/px4/workspace/PX4Firmware/Build/px4io-v2_default.build/nuttx-export/libs\libnuttx.a(sched-errno_getptr.o)
 .debug_ranges  0x000026b0       0x10 c:/px4/workspace/PX4Firmware/Build/px4io-v2_default.build/nuttx-export/libs\libnuttx.a(sched-exit.o)
 .debug_ranges  0x000026c0       0x10 c:/px4/workspace/PX4Firmware/Build/px4io-v2_default.build/nuttx-export/libs\libnuttx.a(sched-getpid.o)
 .debug_ranges  0x000026d0       0x10 c:/px4/workspace/PX4Firmware/Build/px4io-v2_default.build/nuttx-export/libs\libnuttx.a(sched-os_start.o)
 .debug_ranges  0x000026e0       0x10 c:/px4/workspace/PX4Firmware/Build/px4io-v2_default.build/nuttx-export/libs\libnuttx.a(sched-sched_garbage.o)
 .debug_ranges  0x000026f0       0x10 c:/px4/workspace/PX4Firmware/Build/px4io-v2_default.build/nuttx-export/libs\libnuttx.a(sched-sched_getfiles.o)
 .debug_ranges  0x00002700       0x10 c:/px4/workspace/PX4Firmware/Build/px4io-v2_default.build/nuttx-export/libs\libnuttx.a(sched-sem_post.o)
 .debug_ranges  0x00002710       0x10 c:/px4/workspace/PX4Firmware/Build/px4io-v2_default.build/nuttx-export/libs\libnuttx.a(sched-sem_trywait.o)
 .debug_ranges  0x00002720       0x10 c:/px4/workspace/PX4Firmware/Build/px4io-v2_default.build/nuttx-export/libs\libnuttx.a(sched-sem_wait.o)
 .debug_ranges  0x00002730       0x10 c:/px4/workspace/PX4Firmware/Build/px4io-v2_default.build/nuttx-export/libs\libnuttx.a(sched-task_exithook.o)
 .debug_ranges  0x00002740       0x10 c:/px4/workspace/PX4Firmware/Build/px4io-v2_default.build/nuttx-export/libs\libnuttx.a(sched-task_recover.o)
 .debug_ranges  0x00002750       0x10 c:/px4/workspace/PX4Firmware/Build/px4io-v2_default.build/nuttx-export/libs\libnuttx.a(sched-wd_cancel.o)
 .debug_ranges  0x00002760       0x10 c:/px4/workspace/PX4Firmware/Build/px4io-v2_default.build/nuttx-export/libs\libnuttx.a(sched-wd_delete.o)
 .debug_ranges  0x00002770       0x10 c:/px4/workspace/PX4Firmware/Build/px4io-v2_default.build/nuttx-export/libs\libnuttx.a(sched-wd_initialize.o)
 .debug_ranges  0x00002780       0x10 c:/px4/workspace/PX4Firmware/Build/px4io-v2_default.build/nuttx-export/libs\libnuttx.a(c-dq_addfirst.o)
 .debug_ranges  0x00002790       0x10 c:/px4/workspace/PX4Firmware/Build/px4io-v2_default.build/nuttx-export/libs\libnuttx.a(c-lib_cfgetspeed.o)
 .debug_ranges  0x000027a0       0x10 c:/px4/workspace/PX4Firmware/Build/px4io-v2_default.build/nuttx-export/libs\libnuttx.a(c-lib_checkbase.o)
 .debug_ranges  0x000027b0       0x10 c:/px4/workspace/PX4Firmware/Build/px4io-v2_default.build/nuttx-export/libs\libnuttx.a(c-lib_isbasedigit.o)
 .debug_ranges  0x000027c0       0xb8 c:/px4/workspace/PX4Firmware/Build/px4io-v2_default.build/nuttx-export/libs\libnuttx.a(c-lib_libvsprintf.o)
 .debug_ranges  0x00002878       0x18 c:/px4/workspace/PX4Firmware/Build/px4io-v2_default.build/nuttx-export/libs\libnuttx.a(c-lib_lowoutstream.o)
 .debug_ranges  0x00002890       0x18 c:/px4/workspace/PX4Firmware/Build/px4io-v2_default.build/nuttx-export/libs\libnuttx.a(c-lib_memoutstream.o)
 .debug_ranges  0x000028a8       0x18 c:/px4/workspace/PX4Firmware/Build/px4io-v2_default.build/nuttx-export/libs\libnuttx.a(c-lib_nulloutstream.o)
 .debug_ranges  0x000028c0       0x18 c:/px4/workspace/PX4Firmware/Build/px4io-v2_default.build/nuttx-export/libs\libnuttx.a(c-lib_rawoutstream.o)
 .debug_ranges  0x000028d8       0x10 c:/px4/workspace/PX4Firmware/Build/px4io-v2_default.build/nuttx-export/libs\libnuttx.a(c-lib_skipspace.o)
 .debug_ranges  0x000028e8       0x10 c:/px4/workspace/PX4Firmware/Build/px4io-v2_default.build/nuttx-export/libs\libnuttx.a(c-lib_strcpy.o)
 .debug_ranges  0x000028f8       0x10 c:/px4/workspace/PX4Firmware/Build/px4io-v2_default.build/nuttx-export/libs\libnuttx.a(c-lib_strlen.o)
 .debug_ranges  0x00002908       0x10 c:/px4/workspace/PX4Firmware/Build/px4io-v2_default.build/nuttx-export/libs\libnuttx.a(c-sem_init.o)
 .debug_ranges  0x00002918       0x10 c:/px4/workspace/PX4Firmware/Build/px4io-v2_default.build/nuttx-export/libs\libnuttx.a(c-sq_remfirst.o)
 .debug_ranges  0x00002928       0x10 c:/px4/workspace/PX4Firmware/Build/px4io-v2_default.build/nuttx-export/libs\libnuttx.a(mm-mm_addfreechunk.o)
 .debug_ranges  0x00002938       0x18 c:/px4/workspace/PX4Firmware/Build/px4io-v2_default.build/nuttx-export/libs\libnuttx.a(mm-mm_initialize.o)
 .debug_ranges  0x00002950       0x10 c:/px4/workspace/PX4Firmware/Build/px4io-v2_default.build/nuttx-export/libs\libnuttx.a(arch-stm32_allocateheap.o)
 .debug_ranges  0x00002960       0x10 c:/px4/workspace/PX4Firmware/Build/px4io-v2_default.build/nuttx-export/libs\libnuttx.a(arch-stm32_idle.o)
 .debug_ranges  0x00002970       0x18 c:/px4/workspace/PX4Firmware/Build/px4io-v2_default.build/nuttx-export/libs\libnuttx.a(arch-stm32_lowputc.o)
 .debug_ranges  0x00002988       0x10 c:/px4/workspace/PX4Firmware/Build/px4io-v2_default.build/nuttx-export/libs\libnuttx.a(arch-stm32_rcc.o)
 .debug_ranges  0x00002998       0x28 c:/px4/workspace/PX4Firmware/Build/px4io-v2_default.build/nuttx-export/libs\libnuttx.a(arch-up_blocktask.o)
 .debug_ranges  0x000029c0       0x10 c:/px4/workspace/PX4Firmware/Build/px4io-v2_default.build/nuttx-export/libs\libnuttx.a(arch-up_copystate.o)
 .debug_ranges  0x000029d0       0x10 c:/px4/workspace/PX4Firmware/Build/px4io-v2_default.build/nuttx-export/libs\libnuttx.a(arch-up_exit.o)
 .debug_ranges  0x000029e0       0x10 c:/px4/workspace/PX4Firmware/Build/px4io-v2_default.build/nuttx-export/libs\libnuttx.a(arch-up_initialize.o)
 .debug_ranges  0x000029f0       0x10 c:/px4/workspace/PX4Firmware/Build/px4io-v2_default.build/nuttx-export/libs\libnuttx.a(arch-up_initialstate.o)
 .debug_ranges  0x00002a00       0x10 c:/px4/workspace/PX4Firmware/Build/px4io-v2_default.build/nuttx-export/libs\libnuttx.a(arch-up_interruptcontext.o)
 .debug_ranges  0x00002a10       0x10 c:/px4/workspace/PX4Firmware/Build/px4io-v2_default.build/nuttx-export/libs\libnuttx.a(arch-up_mdelay.o)
 .debug_ranges  0x00002a20       0x28 c:/px4/workspace/PX4Firmware/Build/px4io-v2_default.build/nuttx-export/libs\libnuttx.a(arch-up_unblocktask.o)
 .debug_ranges  0x00002a48       0x50 c:/px4/workspace/PX4Firmware/Build/px4io-v2_default.build/nuttx-export/libs\libnuttx.a(fs-fs_files.o)
 .debug_ranges  0x00002a98       0x10 c:/px4/workspace/PX4Firmware/Build/px4io-v2_default.build/nuttx-export/libs\libnuttx.a(fs-fs_inodeaddref.o)
 .debug_ranges  0x00002aa8       0x10 c:/px4/workspace/PX4Firmware/Build/px4io-v2_default.build/nuttx-export/libs\libnuttx.a(fs-fs_inodefind.o)
 .debug_ranges  0x00002ab8       0x10 c:/px4/workspace/PX4Firmware/Build/px4io-v2_default.build/nuttx-export/libs\libnuttx.a(fs-fs_inoderelease.o)
 .debug_ranges  0x00002ac8       0x10 c:/px4/workspace/PX4Firmware/Build/px4io-v2_default.build/nuttx-export/libs\libnuttx.a(fs-fs_registerdriver.o)
 .debug_ranges  0x00002ad8       0x18 c:/px4/workspace/PX4Firmware/Build/px4io-v2_default.build/nuttx-export/libs\libnuttx.a(sched-group_create.o)
 .debug_ranges  0x00002af0       0x10 c:/px4/workspace/PX4Firmware/Build/px4io-v2_default.build/nuttx-export/libs\libnuttx.a(sched-group_leave.o)
 .debug_ranges  0x00002b00       0x10 c:/px4/workspace/PX4Firmware/Build/px4io-v2_default.build/nuttx-export/libs\libnuttx.a(sched-group_setupidlefiles.o)
 .debug_ranges  0x00002b10       0x10 c:/px4/workspace/PX4Firmware/Build/px4io-v2_default.build/nuttx-export/libs\libnuttx.a(sched-os_bringup.o)
 .debug_ranges  0x00002b20       0x10 c:/px4/workspace/PX4Firmware/Build/px4io-v2_default.build/nuttx-export/libs\libnuttx.a(sched-sched_addblocked.o)
 .debug_ranges  0x00002b30       0x10 c:/px4/workspace/PX4Firmware/Build/px4io-v2_default.build/nuttx-export/libs\libnuttx.a(sched-sched_addprioritized.o)
 .debug_ranges  0x00002b40       0x10 c:/px4/workspace/PX4Firmware/Build/px4io-v2_default.build/nuttx-export/libs\libnuttx.a(sched-sched_addreadytorun.o)
 .debug_ranges  0x00002b50       0x10 c:/px4/workspace/PX4Firmware/Build/px4io-v2_default.build/nuttx-export/libs\libnuttx.a(sched-sched_free.o)
 .debug_ranges  0x00002b60       0x10 c:/px4/workspace/PX4Firmware/Build/px4io-v2_default.build/nuttx-export/libs\libnuttx.a(sched-sched_mergepending.o)
 .debug_ranges  0x00002b70       0x10 c:/px4/workspace/PX4Firmware/Build/px4io-v2_default.build/nuttx-export/libs\libnuttx.a(sched-sched_removeblocked.o)
 .debug_ranges  0x00002b80       0x10 c:/px4/workspace/PX4Firmware/Build/px4io-v2_default.build/nuttx-export/libs\libnuttx.a(sched-sched_removereadytorun.o)
 .debug_ranges  0x00002b90       0x10 c:/px4/workspace/PX4Firmware/Build/px4io-v2_default.build/nuttx-export/libs\libnuttx.a(sched-sem_destroy.o)
 .debug_ranges  0x00002ba0       0x20 c:/px4/workspace/PX4Firmware/Build/px4io-v2_default.build/nuttx-export/libs\libnuttx.a(sched-task_create.o)
 .debug_ranges  0x00002bc0       0x10 c:/px4/workspace/PX4Firmware/Build/px4io-v2_default.build/nuttx-export/libs\libnuttx.a(sched-task_exit.o)
 .debug_ranges  0x00002bd0       0x90 c:/px4/workspace/PX4Firmware/Build/px4io-v2_default.build/nuttx-export/libs\libnuttx.a(sched-task_setup.o)
 .debug_ranges  0x00002c60       0x10 c:/px4/workspace/PX4Firmware/Build/px4io-v2_default.build/nuttx-export/libs\libnuttx.a(sched-task_start.o)
 .debug_ranges  0x00002c70       0x10 c:/px4/workspace/PX4Firmware/Build/px4io-v2_default.build/nuttx-export/libs\libnuttx.a(sched-task_terminate.o)
 .debug_ranges  0x00002c80       0x10 c:/px4/workspace/PX4Firmware/Build/px4io-v2_default.build/nuttx-export/libs\libnuttx.a(c-dq_addlast.o)
 .debug_ranges  0x00002c90       0x10 c:/px4/workspace/PX4Firmware/Build/px4io-v2_default.build/nuttx-export/libs\libnuttx.a(c-dq_rem.o)
 .debug_ranges  0x00002ca0       0x10 c:/px4/workspace/PX4Firmware/Build/px4io-v2_default.build/nuttx-export/libs\libnuttx.a(c-lib_strdup.o)
 .debug_ranges  0x00002cb0       0x18 c:/px4/workspace/PX4Firmware/Build/px4io-v2_default.build/nuttx-export/libs\libnuttx.a(arch-stm32_timerisr.o)
 .debug_ranges  0x00002cc8       0x10 c:/px4/workspace/PX4Firmware/Build/px4io-v2_default.build/nuttx-export/libs\libnuttx.a(arch-up_createstack.o)
 .debug_ranges  0x00002cd8       0x10 c:/px4/workspace/PX4Firmware/Build/px4io-v2_default.build/nuttx-export/libs\libnuttx.a(arch-up_doirq.o)
 .debug_ranges  0x00002ce8       0x10 c:/px4/workspace/PX4Firmware/Build/px4io-v2_default.build/nuttx-export/libs\libnuttx.a(arch-up_releasestack.o)
 .debug_ranges  0x00002cf8       0x10 c:/px4/workspace/PX4Firmware/Build/px4io-v2_default.build/nuttx-export/libs\libnuttx.a(fs-fs_close.o)
 .debug_ranges  0x00002d08       0x10 c:/px4/workspace/PX4Firmware/Build/px4io-v2_default.build/nuttx-export/libs\libnuttx.a(fs-fs_filedup2.o)
 .debug_ranges  0x00002d18       0x90 c:/px4/workspace/PX4Firmware/Build/px4io-v2_default.build/nuttx-export/libs\libnuttx.a(fs-fs_inode.o)
 .debug_ranges  0x00002da8       0x80 c:/px4/workspace/PX4Firmware/Build/px4io-v2_default.build/nuttx-export/libs\libnuttx.a(fs-fs_inodereserve.o)
 .debug_ranges  0x00002e28       0x10 c:/px4/workspace/PX4Firmware/Build/px4io-v2_default.build/nuttx-export/libs\libnuttx.a(sched-group_setuptaskfiles.o)
 .debug_ranges  0x00002e38       0x10 c:/px4/workspace/PX4Firmware/Build/px4io-v2_default.build/nuttx-export/libs\libnuttx.a(sched-irq_dispatch.o)
 .debug_ranges  0x00002e48       0x10 c:/px4/workspace/PX4Firmware/Build/px4io-v2_default.build/nuttx-export/libs\libnuttx.a(sched-sched_gettcb.o)
 .debug_ranges  0x00002e58       0x10 c:/px4/workspace/PX4Firmware/Build/px4io-v2_default.build/nuttx-export/libs\libnuttx.a(sched-sched_lock.o)
 .debug_ranges  0x00002e68       0x10 c:/px4/workspace/PX4Firmware/Build/px4io-v2_default.build/nuttx-export/libs\libnuttx.a(sched-sched_processtimer.o)
 .debug_ranges  0x00002e78       0x10 c:/px4/workspace/PX4Firmware/Build/px4io-v2_default.build/nuttx-export/libs\libnuttx.a(sched-sched_releasetcb.o)
 .debug_ranges  0x00002e88       0x10 c:/px4/workspace/PX4Firmware/Build/px4io-v2_default.build/nuttx-export/libs\libnuttx.a(sched-sched_unlock.o)
 .debug_ranges  0x00002e98       0x10 c:/px4/workspace/PX4Firmware/Build/px4io-v2_default.build/nuttx-export/libs\libnuttx.a(sched-task_activate.o)
 .debug_ranges  0x00002ea8       0x28 c:/px4/workspace/PX4Firmware/Build/px4io-v2_default.build/nuttx-export/libs\libnuttx.a(arch-up_releasepending.o)
